ARM GAS  /var/folders/hv/f19l0kw128sbpybv1h43gz3c0000gn/T//cc0cLUco.s 			page 1


   1              		.cpu cortex-m4
   2              		.eabi_attribute 27, 1
   3              		.eabi_attribute 28, 1
   4              		.eabi_attribute 20, 1
   5              		.eabi_attribute 21, 1
   6              		.eabi_attribute 23, 3
   7              		.eabi_attribute 24, 1
   8              		.eabi_attribute 25, 1
   9              		.eabi_attribute 26, 1
  10              		.eabi_attribute 30, 1
  11              		.eabi_attribute 34, 1
  12              		.eabi_attribute 18, 4
  13              		.file	"draw.c"
  14              		.text
  15              	.Ltext0:
  16              		.cfi_sections	.debug_frame
  17              		.section	.text.fillFramebuffer,"ax",%progbits
  18              		.align	1
  19              		.global	fillFramebuffer
  20              		.arch armv7e-m
  21              		.syntax unified
  22              		.thumb
  23              		.thumb_func
  24              		.fpu fpv4-sp-d16
  26              	fillFramebuffer:
  27              	.LFB1:
  28              		.file 1 "Src/draw.c"
   1:Src/draw.c    **** #include "stdint.h"
   2:Src/draw.c    **** #include "string.h"
   3:Src/draw.c    **** #include "definitions.h"
   4:Src/draw.c    **** #include "notes.h"
   5:Src/draw.c    **** #include "ws2812.h"
   6:Src/draw.c    **** #include "draw.h"
   7:Src/draw.c    **** 
   8:Src/draw.c    **** drawshape_type drawshape_function;
   9:Src/draw.c    **** drawshape_type drawtext_function;
  10:Src/draw.c    **** 
  11:Src/draw.c    **** uint8_t minColor[3] = {0, 0, 0};
  12:Src/draw.c    **** uint8_t maxColor[3] = {255, 255, 255};
  13:Src/draw.c    **** 
  14:Src/draw.c    **** // uint8_t colorOriginal[12][3] = {
  15:Src/draw.c    **** //     {50, 0, 0},   //red ~~
  16:Src/draw.c    **** //     {50, 25, 0},  //orange ~~
  17:Src/draw.c    **** //     {50, 50, 0},  //amarelo ~~
  18:Src/draw.c    **** //     {50, 38, 0},  //castanho ~~
  19:Src/draw.c    **** //     {0, 50, 36},  //azul turquesa ~~
  20:Src/draw.c    **** //     {25, 0, 50},  //cor de rosa ~~
  21:Src/draw.c    **** //     {50, 0, 25},  //rosa choque ~~
  22:Src/draw.c    **** //     {50, 0, 50},  //violeta escuro ~~
  23:Src/draw.c    **** //     {0, 0, 40},   //azul escuro
  24:Src/draw.c    **** //     {30, 30, 30}, //cinzento
  25:Src/draw.c    **** //     {60, 60, 20}, //branca
  26:Src/draw.c    **** //     {60, 30, 20}}; //red magenta
  27:Src/draw.c    **** 
  28:Src/draw.c    **** uint8_t colorOriginal[12][3] = {
  29:Src/draw.c    ****     {123, 0, 0},    //red ~~
  30:Src/draw.c    ****     {123, 90, 0},   //orange ~~
ARM GAS  /var/folders/hv/f19l0kw128sbpybv1h43gz3c0000gn/T//cc0cLUco.s 			page 2


  31:Src/draw.c    ****     {123, 123, 0},  //amarelo ~~
  32:Src/draw.c    ****     {123, 109, 0},  //castanho ~~
  33:Src/draw.c    ****     {0, 123, 106},  //azul turquesa ~~
  34:Src/draw.c    ****     {90, 0, 123},   //cor de rosa ~~
  35:Src/draw.c    ****     {123, 0, 90},   //rosa choque ~~
  36:Src/draw.c    ****     {123, 0, 123},  //violeta escuro ~~
  37:Src/draw.c    ****     {0, 0, 112},    //azul escuro
  38:Src/draw.c    ****     {98, 98, 98},   //cinzento
  39:Src/draw.c    ****     {133, 133, 82}, //branca
  40:Src/draw.c    ****     {133, 98, 82}}; //red magenta
  41:Src/draw.c    **** 
  42:Src/draw.c    **** // uint8_t colorBW[12][3] = {
  43:Src/draw.c    **** //     {51, 51, 51},    //red ~~
  44:Src/draw.c    **** //     {62, 62, 62},    //orange ~~
  45:Src/draw.c    **** //     {74, 74, 74},    //amarelo ~~
  46:Src/draw.c    **** //     {85, 85, 85},    //castanho ~~
  47:Src/draw.c    **** //     {96, 96, 96},    //azul turquesa ~~
  48:Src/draw.c    **** //     {108, 108, 108}, //cor de rosa ~~
  49:Src/draw.c    **** //     {119, 119, 119}, //rosa choque ~~
  50:Src/draw.c    **** //     {130, 130, 130}, //violeta escuro ~~
  51:Src/draw.c    **** //     {142, 142, 142}, //azul escuro
  52:Src/draw.c    **** //     {153, 153, 153}, //cinzento
  53:Src/draw.c    **** //     {164, 164, 164}, //branca
  54:Src/draw.c    **** //     {176, 176, 176}}; //red magenta
  55:Src/draw.c    **** 
  56:Src/draw.c    **** uint8_t colorBW[12][3] = {
  57:Src/draw.c    ****     {78, 78, 78},    //red ~~
  58:Src/draw.c    ****     {116, 99, 94},   //orange ~~
  59:Src/draw.c    ****     {101, 105, 105}, //amarelo ~~
  60:Src/draw.c    ****     {72, 72, 36},    //castanho ~~
  61:Src/draw.c    ****     {42, 43, 44},    //azul turquesa ~~
  62:Src/draw.c    ****     {88, 79, 77},    //cor de rosa ~~
  63:Src/draw.c    ****     {50, 53, 53},    //rosa choque ~~
  64:Src/draw.c    ****     {36, 36, 18},    //violeta escuro ~~
  65:Src/draw.c    ****     {117, 117, 117}, //azul escuro
  66:Src/draw.c    ****     {174, 148, 141}, //cinzento
  67:Src/draw.c    ****     {151, 158, 158}, //branca
  68:Src/draw.c    ****     {108, 108, 54}}; //red magenta
  69:Src/draw.c    **** 
  70:Src/draw.c    **** uint8_t (*arrColor)[3];
  71:Src/draw.c    **** 
  72:Src/draw.c    **** const uint8_t font4x6[96][2] = {
  73:Src/draw.c    ****     {0x00, 0x00}, /*SPACE*/
  74:Src/draw.c    ****     {0x49, 0x08}, /*'!'*/
  75:Src/draw.c    ****     {0xb4, 0x00}, /*'"'*/
  76:Src/draw.c    ****     {0xbe, 0xf6}, /*'#'*/
  77:Src/draw.c    ****     {0x7b, 0x7a}, /*'$'*/
  78:Src/draw.c    ****     {0xa5, 0x94}, /*'%'*/
  79:Src/draw.c    ****     {0x55, 0xb8}, /*'&'*/
  80:Src/draw.c    ****     {0x48, 0x00}, /*'''*/
  81:Src/draw.c    ****     {0x29, 0x44}, /*'('*/
  82:Src/draw.c    ****     {0x44, 0x2a}, /*')'*/
  83:Src/draw.c    ****     {0x15, 0xa0}, /*'*'*/
  84:Src/draw.c    ****     {0x0b, 0x42}, /*'+'*/
  85:Src/draw.c    ****     {0x00, 0x50}, /*','*/
  86:Src/draw.c    ****     {0x03, 0x02}, /*'-'*/
  87:Src/draw.c    ****     {0x00, 0x08}, /*'.'*/
ARM GAS  /var/folders/hv/f19l0kw128sbpybv1h43gz3c0000gn/T//cc0cLUco.s 			page 3


  88:Src/draw.c    ****     {0x25, 0x90}, /*'/'*/
  89:Src/draw.c    ****     {0x76, 0xba}, /*'0'*/
  90:Src/draw.c    ****     {0x59, 0x5c}, /*'1'*/
  91:Src/draw.c    ****     {0xc5, 0x9e}, /*'2'*/
  92:Src/draw.c    ****     {0xc5, 0x38}, /*'3'*/
  93:Src/draw.c    ****     {0x92, 0xe6}, /*'4'*/
  94:Src/draw.c    ****     {0xf3, 0x3a}, /*'5'*/
  95:Src/draw.c    ****     {0x73, 0xba}, /*'6'*/
  96:Src/draw.c    ****     {0xe5, 0x90}, /*'7'*/
  97:Src/draw.c    ****     {0x77, 0xba}, /*'8'*/
  98:Src/draw.c    ****     {0x77, 0x3a}, /*'9'*/
  99:Src/draw.c    ****     {0x08, 0x40}, /*':'*/
 100:Src/draw.c    ****     {0x08, 0x50}, /*';'*/
 101:Src/draw.c    ****     {0x2a, 0x44}, /*'<'*/
 102:Src/draw.c    ****     {0x1c, 0xe0}, /*'='*/
 103:Src/draw.c    ****     {0x88, 0x52}, /*'>'*/
 104:Src/draw.c    ****     {0xe5, 0x08}, /*'?'*/
 105:Src/draw.c    ****     {0x56, 0x8e}, /*'@'*/
 106:Src/draw.c    ****     {0x77, 0xb6}, /*'A'*/
 107:Src/draw.c    ****     {0x77, 0xb8}, /*'B'*/
 108:Src/draw.c    ****     {0x72, 0x8c}, /*'C'*/
 109:Src/draw.c    ****     {0xd6, 0xba}, /*'D'*/
 110:Src/draw.c    ****     {0x73, 0x9e}, /*'E'*/
 111:Src/draw.c    ****     {0x73, 0x92}, /*'F'*/
 112:Src/draw.c    ****     {0x72, 0xae}, /*'G'*/
 113:Src/draw.c    ****     {0xb7, 0xb6}, /*'H'*/
 114:Src/draw.c    ****     {0xe9, 0x5c}, /*'I'*/
 115:Src/draw.c    ****     {0x64, 0xaa}, /*'J'*/
 116:Src/draw.c    ****     {0xb7, 0xb4}, /*'K'*/
 117:Src/draw.c    ****     {0x92, 0x9c}, /*'L'*/
 118:Src/draw.c    ****     {0xbe, 0xb6}, /*'M'*/
 119:Src/draw.c    ****     {0xd6, 0xb6}, /*'N'*/
 120:Src/draw.c    ****     {0x56, 0xaa}, /*'O'*/
 121:Src/draw.c    ****     {0xd7, 0x92}, /*'P'*/
 122:Src/draw.c    ****     {0x76, 0xee}, /*'Q'*/
 123:Src/draw.c    ****     {0x77, 0xb4}, /*'R'*/
 124:Src/draw.c    ****     {0x71, 0x38}, /*'S'*/
 125:Src/draw.c    ****     {0xe9, 0x48}, /*'T'*/
 126:Src/draw.c    ****     {0xb6, 0xae}, /*'U'*/
 127:Src/draw.c    ****     {0xb6, 0xaa}, /*'V'*/
 128:Src/draw.c    ****     {0xb6, 0xf6}, /*'W'*/
 129:Src/draw.c    ****     {0xb5, 0xb4}, /*'X'*/
 130:Src/draw.c    ****     {0xb5, 0x48}, /*'Y'*/
 131:Src/draw.c    ****     {0xe5, 0x9c}, /*'Z'*/
 132:Src/draw.c    ****     {0x69, 0x4c}, /*'['*/
 133:Src/draw.c    ****     {0x91, 0x24}, /*'\'*/
 134:Src/draw.c    ****     {0x64, 0x2e}, /*']'*/
 135:Src/draw.c    ****     {0x54, 0x00}, /*'^'*/
 136:Src/draw.c    ****     {0x00, 0x1c}, /*'_'*/
 137:Src/draw.c    ****     {0x44, 0x00}, /*'`'*/
 138:Src/draw.c    ****     {0x0e, 0xae}, /*'a'*/
 139:Src/draw.c    ****     {0x9a, 0xba}, /*'b'*/
 140:Src/draw.c    ****     {0x0e, 0x8c}, /*'c'*/
 141:Src/draw.c    ****     {0x2e, 0xae}, /*'d'*/
 142:Src/draw.c    ****     {0x0e, 0xce}, /*'e'*/
 143:Src/draw.c    ****     {0x56, 0xd0}, /*'f'*/
 144:Src/draw.c    ****     {0x55, 0x3B}, /*'g'*/
ARM GAS  /var/folders/hv/f19l0kw128sbpybv1h43gz3c0000gn/T//cc0cLUco.s 			page 4


 145:Src/draw.c    ****     {0x93, 0xb4}, /*'h'*/
 146:Src/draw.c    ****     {0x41, 0x44}, /*'i'*/
 147:Src/draw.c    ****     {0x41, 0x51}, /*'j'*/
 148:Src/draw.c    ****     {0x97, 0xb4}, /*'k'*/
 149:Src/draw.c    ****     {0x49, 0x44}, /*'l'*/
 150:Src/draw.c    ****     {0x17, 0xb6}, /*'m'*/
 151:Src/draw.c    ****     {0x1a, 0xb6}, /*'n'*/
 152:Src/draw.c    ****     {0x0a, 0xaa}, /*'o'*/
 153:Src/draw.c    ****     {0xd6, 0xd3}, /*'p'*/
 154:Src/draw.c    ****     {0x76, 0x67}, /*'q'*/
 155:Src/draw.c    ****     {0x17, 0x90}, /*'r'*/
 156:Src/draw.c    ****     {0x0f, 0x38}, /*'s'*/
 157:Src/draw.c    ****     {0x9a, 0x8c}, /*'t'*/
 158:Src/draw.c    ****     {0x16, 0xae}, /*'u'*/
 159:Src/draw.c    ****     {0x16, 0xba}, /*'v'*/
 160:Src/draw.c    ****     {0x16, 0xf6}, /*'w'*/
 161:Src/draw.c    ****     {0x15, 0xb4}, /*'x'*/
 162:Src/draw.c    ****     {0xb5, 0x2b}, /*'y'*/
 163:Src/draw.c    ****     {0x1c, 0x5e}, /*'z'*/
 164:Src/draw.c    ****     {0x6b, 0x4c}, /*'{'*/
 165:Src/draw.c    ****     {0x49, 0x48}, /*'|'*/
 166:Src/draw.c    ****     {0xc9, 0x5a}, /*'}'*/
 167:Src/draw.c    ****     {0x54, 0x00}, /*'~'*/
 168:Src/draw.c    ****     {0x56, 0xe2}  /*''*/
 169:Src/draw.c    **** };
 170:Src/draw.c    **** 
 171:Src/draw.c    **** uint8_t orientation = 0;
 172:Src/draw.c    **** uint8_t MAX_DIV = 3;
 173:Src/draw.c    **** float MAX_BRIGHT = 0.1;
 174:Src/draw.c    **** uint8_t MODE_BACK = 1;
 175:Src/draw.c    **** uint8_t MODE_TEXT = 1;
 176:Src/draw.c    **** callback_type callback_function;
 177:Src/draw.c    **** 
 178:Src/draw.c    **** static inline uint8_t callback(int8_t x, int8_t y, float layer)
 179:Src/draw.c    **** {
 180:Src/draw.c    ****   if (callback_function)
 181:Src/draw.c    ****   {
 182:Src/draw.c    ****     return (*callback_function)(x, y, layer);
 183:Src/draw.c    ****   }
 184:Src/draw.c    ****   return 0;
 185:Src/draw.c    **** }
 186:Src/draw.c    **** 
 187:Src/draw.c    **** void fillFramebuffer(void)
 188:Src/draw.c    **** {
  29              		.loc 1 188 1 view -0
  30              		.cfi_startproc
  31              		@ args = 0, pretend = 0, frame = 8
  32              		@ frame_needed = 0, uses_anonymous_args = 0
  33 0000 2DE9F041 		push	{r4, r5, r6, r7, r8, lr}
  34              	.LCFI0:
  35              		.cfi_def_cfa_offset 24
  36              		.cfi_offset 4, -24
  37              		.cfi_offset 5, -20
  38              		.cfi_offset 6, -16
  39              		.cfi_offset 7, -12
  40              		.cfi_offset 8, -8
  41              		.cfi_offset 14, -4
ARM GAS  /var/folders/hv/f19l0kw128sbpybv1h43gz3c0000gn/T//cc0cLUco.s 			page 5


  42 0004 84B0     		sub	sp, sp, #16
  43              	.LCFI1:
  44              		.cfi_def_cfa_offset 40
 189:Src/draw.c    ****   uint8_t mod, tempPoint[3], invI, invJ, invX;
  45              		.loc 1 189 3 view .LVU1
 190:Src/draw.c    ****   uint16_t coords, tmp = 0;
  46              		.loc 1 190 3 view .LVU2
  47              	.LVL0:
 191:Src/draw.c    **** #if REVERSE_ORIENTATION
 192:Src/draw.c    ****   for (uint8_t x = 0; x < NCOLS; x++)
  48              		.loc 1 192 3 view .LVU3
  49              	.LBB17:
  50              		.loc 1 192 8 view .LVU4
  51              		.loc 1 192 16 is_stmt 0 view .LVU5
  52 0006 0026     		movs	r6, #0
  53              		.loc 1 192 3 view .LVU6
  54 0008 4CE0     		b	.L2
  55              	.LVL1:
  56              	.L10:
  57              	.LBB18:
  58              	.LBB19:
 193:Src/draw.c    ****   {
 194:Src/draw.c    ****     for (uint8_t i = 0; i < NCHANNELS; i++)
 195:Src/draw.c    ****     {
 196:Src/draw.c    ****       for (uint8_t j = 0; j < NLINESCH; j++)
 197:Src/draw.c    ****       {
 198:Src/draw.c    ****         mod = j % 2;
 199:Src/draw.c    ****         if ((j + (i * NLINESCH)) > NCOLSL)
 200:Src/draw.c    ****           break;
 201:Src/draw.c    ****         coords = j + (i * NLINESCH) + (x * NCOLS);
 202:Src/draw.c    **** 
 203:Src/draw.c    **** #if MIRROR_X
 204:Src/draw.c    ****         invX = mod ? NCOLSL - x : x;
 205:Src/draw.c    **** #if MIRROR_Y
 206:Src/draw.c    ****         invI = i;
 207:Src/draw.c    ****         invJ = j;
 208:Src/draw.c    **** #else
 209:Src/draw.c    ****         invI = NCHANNELS - 1 - i;
 210:Src/draw.c    ****         invJ = NLINESCH - 1 - j;
 211:Src/draw.c    **** #endif
 212:Src/draw.c    **** #else
 213:Src/draw.c    ****         invX = mod ? x : NCOLSL - x;
  59              		.loc 1 213 14 view .LVU7
  60 000a B046     		mov	r8, r6
  61              	.L4:
  62              	.LVL2:
 214:Src/draw.c    **** #if MIRROR_Y
 215:Src/draw.c    ****         invI = NCHANNELS - 1 - i;
 216:Src/draw.c    ****         invJ = NLINESCH - 1 - j;
 217:Src/draw.c    **** #else
 218:Src/draw.c    ****         invI = i;
  63              		.loc 1 218 9 is_stmt 1 discriminator 4 view .LVU8
 219:Src/draw.c    ****         invJ = j;
  64              		.loc 1 219 9 discriminator 4 view .LVU9
 220:Src/draw.c    **** #endif
 221:Src/draw.c    **** #endif
 222:Src/draw.c    **** #else
ARM GAS  /var/folders/hv/f19l0kw128sbpybv1h43gz3c0000gn/T//cc0cLUco.s 			page 6


 223:Src/draw.c    ****   for (uint8_t i = 0; i < NCHANNELS; i++)
 224:Src/draw.c    ****   {
 225:Src/draw.c    ****     for (uint8_t j = 0; j < NLINESCH; j++)
 226:Src/draw.c    ****     {
 227:Src/draw.c    ****       mod = j % 2;
 228:Src/draw.c    ****       for (uint8_t x = 0; x < NCOLS; x++)
 229:Src/draw.c    ****       {
 230:Src/draw.c    ****         if ((x + (j * NCOLS) + (i * NLEDSCH)) > NLEDSL)
 231:Src/draw.c    ****           break;
 232:Src/draw.c    ****         coords = x + (j * NCOLS) + (i * NLEDSCH);
 233:Src/draw.c    **** 
 234:Src/draw.c    **** #if MIRROR_X
 235:Src/draw.c    ****         invX = mod ? x : NCOLSL - x;
 236:Src/draw.c    **** #else
 237:Src/draw.c    ****         invX = mod ? NCOLSL - x : x;
 238:Src/draw.c    **** #endif
 239:Src/draw.c    **** #if MIRROR_Y
 240:Src/draw.c    ****         invI = NCHANNELS - 1 - i;
 241:Src/draw.c    ****         invJ = NLINESCH - 1 - j;
 242:Src/draw.c    **** #else
 243:Src/draw.c    ****         invI = i;
 244:Src/draw.c    ****         invJ = j;
 245:Src/draw.c    **** #endif
 246:Src/draw.c    **** #endif
 247:Src/draw.c    **** #if COLOR_1BIT
 248:Src/draw.c    ****         tmp = BIT_CHECK(textLayer[DIV_8(coords)], REST_8(coords));
 249:Src/draw.c    ****         if (tmp)
 250:Src/draw.c    ****           setColorFB(tempPoint, textColor);
 251:Src/draw.c    **** #else
 252:Src/draw.c    ****         tmp = textLayer[coords][0] + textLayer[coords][1] + textLayer[coords][2];
  65              		.loc 1 252 9 discriminator 4 view .LVU10
  66              		.loc 1 252 32 is_stmt 0 discriminator 4 view .LVU11
  67 000c 2948     		ldr	r0, .L16
  68 000e 01EB4103 		add	r3, r1, r1, lsl #1
  69 0012 C218     		adds	r2, r0, r3
  70              	.LVL3:
  71              		.loc 1 252 32 discriminator 4 view .LVU12
  72 0014 C35C     		ldrb	r3, [r0, r3]	@ zero_extendqisi2
  73              		.loc 1 252 55 discriminator 4 view .LVU13
  74 0016 5078     		ldrb	r0, [r2, #1]	@ zero_extendqisi2
  75              		.loc 1 252 36 discriminator 4 view .LVU14
  76 0018 0344     		add	r3, r3, r0
  77              		.loc 1 252 78 discriminator 4 view .LVU15
  78 001a 9278     		ldrb	r2, [r2, #2]	@ zero_extendqisi2
  79              	.LVL4:
 253:Src/draw.c    ****         // if (tmp == 765) //255+255+255
 254:Src/draw.c    ****         //   setColorFadeFB(tempPoint, backLayer[coords]);
 255:Src/draw.c    ****         if (tmp)
  80              		.loc 1 255 9 is_stmt 1 discriminator 4 view .LVU16
  81              		.loc 1 255 12 is_stmt 0 discriminator 4 view .LVU17
  82 001c D342     		cmn	r3, r2
  83 001e 31D0     		beq	.L5
 256:Src/draw.c    ****           setColorFB(tempPoint, textLayer[coords]);
  84              		.loc 1 256 11 is_stmt 1 view .LVU18
  85              		.loc 1 256 42 is_stmt 0 view .LVU19
  86 0020 01EB4101 		add	r1, r1, r1, lsl #1
  87              	.LVL5:
ARM GAS  /var/folders/hv/f19l0kw128sbpybv1h43gz3c0000gn/T//cc0cLUco.s 			page 7


  88              		.loc 1 256 11 view .LVU20
  89 0024 234B     		ldr	r3, .L16
  90              	.LVL6:
  91              		.loc 1 256 11 view .LVU21
  92 0026 1944     		add	r1, r1, r3
  93              	.LVL7:
  94              		.loc 1 256 11 view .LVU22
  95 0028 03A8     		add	r0, sp, #12
  96              	.LVL8:
  97              		.loc 1 256 11 view .LVU23
  98 002a FFF7FEFF 		bl	setColorFB
  99              	.LVL9:
 100              	.L6:
 257:Src/draw.c    **** #endif
 258:Src/draw.c    ****         else
 259:Src/draw.c    ****           setColorFB(tempPoint, backLayer[coords]);
 260:Src/draw.c    **** 
 261:Src/draw.c    ****         WS2812_framedata_setPixel(invI, invX + (invJ * NCOLS), tempPoint[0], tempPoint[1], tempPoin
 101              		.loc 1 261 9 is_stmt 1 discriminator 2 view .LVU24
 102 002e 07EB4701 		add	r1, r7, r7, lsl #1
 103 0032 C1EB0111 		rsb	r1, r1, r1, lsl #4
 104 0036 4144     		add	r1, r1, r8
 105 0038 9DF80E30 		ldrb	r3, [sp, #14]	@ zero_extendqisi2
 106 003c 0093     		str	r3, [sp]
 107 003e 9DF80D30 		ldrb	r3, [sp, #13]	@ zero_extendqisi2
 108 0042 9DF80C20 		ldrb	r2, [sp, #12]	@ zero_extendqisi2
 109 0046 89B2     		uxth	r1, r1
 110 0048 2846     		mov	r0, r5
 111 004a FFF7FEFF 		bl	WS2812_framedata_setPixel
 112              	.LVL10:
 196:Src/draw.c    ****       {
 113              		.loc 1 196 42 is_stmt 0 discriminator 2 view .LVU25
 114 004e 0134     		adds	r4, r4, #1
 115              	.LVL11:
 196:Src/draw.c    ****       {
 116              		.loc 1 196 42 discriminator 2 view .LVU26
 117 0050 E4B2     		uxtb	r4, r4
 118              	.LVL12:
 119              	.L8:
 196:Src/draw.c    ****       {
 120              		.loc 1 196 7 discriminator 1 view .LVU27
 121 0052 032C     		cmp	r4, #3
 122 0054 1ED8     		bhi	.L3
 198:Src/draw.c    ****         if ((j + (i * NLINESCH)) > NCOLSL)
 123              		.loc 1 198 9 is_stmt 1 view .LVU28
 198:Src/draw.c    ****         if ((j + (i * NLINESCH)) > NCOLSL)
 124              		.loc 1 198 13 is_stmt 0 view .LVU29
 125 0056 04F00102 		and	r2, r4, #1
 126              	.LVL13:
 199:Src/draw.c    ****           break;
 127              		.loc 1 199 9 is_stmt 1 view .LVU30
 199:Src/draw.c    ****           break;
 128              		.loc 1 199 16 is_stmt 0 view .LVU31
 129 005a 04EB8503 		add	r3, r4, r5, lsl #2
 199:Src/draw.c    ****           break;
 130              		.loc 1 199 12 view .LVU32
 131 005e 2C2B     		cmp	r3, #44
ARM GAS  /var/folders/hv/f19l0kw128sbpybv1h43gz3c0000gn/T//cc0cLUco.s 			page 8


 132 0060 18DC     		bgt	.L3
 201:Src/draw.c    **** 
 133              		.loc 1 201 9 is_stmt 1 view .LVU33
 201:Src/draw.c    **** 
 134              		.loc 1 201 37 is_stmt 0 view .LVU34
 135 0062 A7B2     		uxth	r7, r4
 136 0064 06EB4601 		add	r1, r6, r6, lsl #1
 137 0068 C1EB0111 		rsb	r1, r1, r1, lsl #4
 138 006c 01EB8501 		add	r1, r1, r5, lsl #2
 201:Src/draw.c    **** 
 139              		.loc 1 201 16 view .LVU35
 140 0070 17FA81F1 		uxtah	r1, r7, r1
 141 0074 89B2     		uxth	r1, r1
 142              	.LVL14:
 213:Src/draw.c    **** #if MIRROR_Y
 143              		.loc 1 213 9 is_stmt 1 view .LVU36
 213:Src/draw.c    **** #if MIRROR_Y
 144              		.loc 1 213 14 is_stmt 0 view .LVU37
 145 0076 002A     		cmp	r2, #0
 146 0078 C7D1     		bne	.L10
 213:Src/draw.c    **** #if MIRROR_Y
 147              		.loc 1 213 14 discriminator 1 view .LVU38
 148 007a C6F12C08 		rsb	r8, r6, #44
 149 007e 5FFA88F8 		uxtb	r8, r8
 150 0082 C3E7     		b	.L4
 151              	.LVL15:
 152              	.L5:
 259:Src/draw.c    **** 
 153              		.loc 1 259 11 is_stmt 1 view .LVU39
 259:Src/draw.c    **** 
 154              		.loc 1 259 42 is_stmt 0 view .LVU40
 155 0084 01EB4101 		add	r1, r1, r1, lsl #1
 156              	.LVL16:
 259:Src/draw.c    **** 
 157              		.loc 1 259 11 view .LVU41
 158 0088 0B4B     		ldr	r3, .L16+4
 159              	.LVL17:
 259:Src/draw.c    **** 
 160              		.loc 1 259 11 view .LVU42
 161 008a 1944     		add	r1, r1, r3
 162 008c 03A8     		add	r0, sp, #12
 163              	.LVL18:
 259:Src/draw.c    **** 
 164              		.loc 1 259 11 view .LVU43
 165 008e FFF7FEFF 		bl	setColorFB
 166              	.LVL19:
 259:Src/draw.c    **** 
 167              		.loc 1 259 11 view .LVU44
 168 0092 CCE7     		b	.L6
 169              	.LVL20:
 170              	.L3:
 259:Src/draw.c    **** 
 171              		.loc 1 259 11 view .LVU45
 172              	.LBE19:
 194:Src/draw.c    ****     {
 173              		.loc 1 194 41 discriminator 2 view .LVU46
 174 0094 0135     		adds	r5, r5, #1
ARM GAS  /var/folders/hv/f19l0kw128sbpybv1h43gz3c0000gn/T//cc0cLUco.s 			page 9


 175              	.LVL21:
 194:Src/draw.c    ****     {
 176              		.loc 1 194 41 discriminator 2 view .LVU47
 177 0096 EDB2     		uxtb	r5, r5
 178              	.LVL22:
 179              	.L9:
 194:Src/draw.c    ****     {
 180              		.loc 1 194 5 discriminator 1 view .LVU48
 181 0098 0B2D     		cmp	r5, #11
 182 009a 01D8     		bhi	.L14
 183              	.LBB20:
 196:Src/draw.c    ****       {
 184              		.loc 1 196 20 view .LVU49
 185 009c 0024     		movs	r4, #0
 186 009e D8E7     		b	.L8
 187              	.L14:
 188              	.LBE20:
 189              	.LBE18:
 192:Src/draw.c    ****   {
 190              		.loc 1 192 35 discriminator 2 view .LVU50
 191 00a0 0136     		adds	r6, r6, #1
 192              	.LVL23:
 192:Src/draw.c    ****   {
 193              		.loc 1 192 35 discriminator 2 view .LVU51
 194 00a2 F6B2     		uxtb	r6, r6
 195              	.LVL24:
 196              	.L2:
 192:Src/draw.c    ****   {
 197              		.loc 1 192 3 discriminator 1 view .LVU52
 198 00a4 2C2E     		cmp	r6, #44
 199 00a6 01D8     		bhi	.L15
 200              	.LBB21:
 194:Src/draw.c    ****     {
 201              		.loc 1 194 18 view .LVU53
 202 00a8 0025     		movs	r5, #0
 203 00aa F5E7     		b	.L9
 204              	.L15:
 205              	.LBE21:
 206              	.LBE17:
 262:Src/draw.c    ****       }
 263:Src/draw.c    ****     }
 264:Src/draw.c    ****   }
 265:Src/draw.c    **** }
 207              		.loc 1 265 1 view .LVU54
 208 00ac 04B0     		add	sp, sp, #16
 209              	.LCFI2:
 210              		.cfi_def_cfa_offset 24
 211              		@ sp needed
 212 00ae BDE8F081 		pop	{r4, r5, r6, r7, r8, pc}
 213              	.LVL25:
 214              	.L17:
 215              		.loc 1 265 1 view .LVU55
 216 00b2 00BF     		.align	2
 217              	.L16:
 218 00b4 00000000 		.word	textLayer
 219 00b8 00000000 		.word	backLayer
 220              		.cfi_endproc
ARM GAS  /var/folders/hv/f19l0kw128sbpybv1h43gz3c0000gn/T//cc0cLUco.s 			page 10


 221              	.LFE1:
 223              		.section	.text.clearBack,"ax",%progbits
 224              		.align	1
 225              		.global	clearBack
 226              		.syntax unified
 227              		.thumb
 228              		.thumb_func
 229              		.fpu fpv4-sp-d16
 231              	clearBack:
 232              	.LFB2:
 266:Src/draw.c    **** 
 267:Src/draw.c    **** void clearBack(void)
 268:Src/draw.c    **** {
 233              		.loc 1 268 1 is_stmt 1 view -0
 234              		.cfi_startproc
 235              		@ args = 0, pretend = 0, frame = 0
 236              		@ frame_needed = 0, uses_anonymous_args = 0
 237 0000 38B5     		push	{r3, r4, r5, lr}
 238              	.LCFI3:
 239              		.cfi_def_cfa_offset 16
 240              		.cfi_offset 3, -16
 241              		.cfi_offset 4, -12
 242              		.cfi_offset 5, -8
 243              		.cfi_offset 14, -4
 269:Src/draw.c    ****   for (uint8_t y = 0; y < NCOLS; y++)
 244              		.loc 1 269 3 view .LVU57
 245              	.LBB22:
 246              		.loc 1 269 8 view .LVU58
 247              	.LVL26:
 248              		.loc 1 269 16 is_stmt 0 view .LVU59
 249 0002 0025     		movs	r5, #0
 250              		.loc 1 269 3 view .LVU60
 251 0004 11E0     		b	.L19
 252              	.LVL27:
 253              	.L20:
 254              	.LBB23:
 270:Src/draw.c    ****   {
 271:Src/draw.c    ****     for (uint8_t x = 0; x < NCOLS; x++)
 272:Src/draw.c    ****     {
 273:Src/draw.c    ****       setColor(backLayer[x + (y * NCOLS)], minColor);
 255              		.loc 1 273 7 is_stmt 1 discriminator 3 view .LVU61
 256              		.loc 1 273 33 is_stmt 0 discriminator 3 view .LVU62
 257 0006 05EB4500 		add	r0, r5, r5, lsl #1
 258 000a C0EB0010 		rsb	r0, r0, r0, lsl #4
 259              		.loc 1 273 28 discriminator 3 view .LVU63
 260 000e 2044     		add	r0, r0, r4
 261              		.loc 1 273 25 discriminator 3 view .LVU64
 262 0010 00EB4000 		add	r0, r0, r0, lsl #1
 263              		.loc 1 273 7 discriminator 3 view .LVU65
 264 0014 0749     		ldr	r1, .L25
 265 0016 084B     		ldr	r3, .L25+4
 266 0018 1844     		add	r0, r0, r3
 267 001a FFF7FEFF 		bl	setColor
 268              	.LVL28:
 271:Src/draw.c    ****     {
 269              		.loc 1 271 37 discriminator 3 view .LVU66
 270 001e 0134     		adds	r4, r4, #1
ARM GAS  /var/folders/hv/f19l0kw128sbpybv1h43gz3c0000gn/T//cc0cLUco.s 			page 11


 271              	.LVL29:
 271:Src/draw.c    ****     {
 272              		.loc 1 271 37 discriminator 3 view .LVU67
 273 0020 E4B2     		uxtb	r4, r4
 274              	.LVL30:
 275              	.L21:
 271:Src/draw.c    ****     {
 276              		.loc 1 271 5 discriminator 1 view .LVU68
 277 0022 2C2C     		cmp	r4, #44
 278 0024 EFD9     		bls	.L20
 279              	.LBE23:
 269:Src/draw.c    ****   for (uint8_t y = 0; y < NCOLS; y++)
 280              		.loc 1 269 35 discriminator 2 view .LVU69
 281 0026 0135     		adds	r5, r5, #1
 282              	.LVL31:
 269:Src/draw.c    ****   for (uint8_t y = 0; y < NCOLS; y++)
 283              		.loc 1 269 35 discriminator 2 view .LVU70
 284 0028 EDB2     		uxtb	r5, r5
 285              	.LVL32:
 286              	.L19:
 269:Src/draw.c    ****   for (uint8_t y = 0; y < NCOLS; y++)
 287              		.loc 1 269 3 discriminator 1 view .LVU71
 288 002a 2C2D     		cmp	r5, #44
 289 002c 01D8     		bhi	.L24
 290              	.LBB24:
 271:Src/draw.c    ****     {
 291              		.loc 1 271 18 view .LVU72
 292 002e 0024     		movs	r4, #0
 293 0030 F7E7     		b	.L21
 294              	.L24:
 295              	.LBE24:
 296              	.LBE22:
 274:Src/draw.c    ****     }
 275:Src/draw.c    ****   }
 276:Src/draw.c    **** }
 297              		.loc 1 276 1 view .LVU73
 298 0032 38BD     		pop	{r3, r4, r5, pc}
 299              	.LVL33:
 300              	.L26:
 301              		.loc 1 276 1 view .LVU74
 302              		.align	2
 303              	.L25:
 304 0034 00000000 		.word	.LANCHOR0
 305 0038 00000000 		.word	backLayer
 306              		.cfi_endproc
 307              	.LFE2:
 309              		.section	.text.clearText,"ax",%progbits
 310              		.align	1
 311              		.global	clearText
 312              		.syntax unified
 313              		.thumb
 314              		.thumb_func
 315              		.fpu fpv4-sp-d16
 317              	clearText:
 318              	.LFB3:
 277:Src/draw.c    **** 
 278:Src/draw.c    **** void clearText(void)
ARM GAS  /var/folders/hv/f19l0kw128sbpybv1h43gz3c0000gn/T//cc0cLUco.s 			page 12


 279:Src/draw.c    **** {
 319              		.loc 1 279 1 is_stmt 1 view -0
 320              		.cfi_startproc
 321              		@ args = 0, pretend = 0, frame = 0
 322              		@ frame_needed = 0, uses_anonymous_args = 0
 323 0000 38B5     		push	{r3, r4, r5, lr}
 324              	.LCFI4:
 325              		.cfi_def_cfa_offset 16
 326              		.cfi_offset 3, -16
 327              		.cfi_offset 4, -12
 328              		.cfi_offset 5, -8
 329              		.cfi_offset 14, -4
 280:Src/draw.c    **** #if COLOR_1BIT
 281:Src/draw.c    ****   for (uint8_t i = 0; i < NLEDSBIT; i++)
 282:Src/draw.c    ****   {
 283:Src/draw.c    ****     textLayer[i] = 0;
 284:Src/draw.c    ****   }
 285:Src/draw.c    **** #else
 286:Src/draw.c    ****   for (uint8_t y = 0; y < NCOLS; y++)
 330              		.loc 1 286 3 view .LVU76
 331              	.LBB25:
 332              		.loc 1 286 8 view .LVU77
 333              	.LVL34:
 334              		.loc 1 286 16 is_stmt 0 view .LVU78
 335 0002 0025     		movs	r5, #0
 336              		.loc 1 286 3 view .LVU79
 337 0004 11E0     		b	.L28
 338              	.LVL35:
 339              	.L29:
 340              	.LBB26:
 287:Src/draw.c    ****   {
 288:Src/draw.c    ****     for (uint8_t x = 0; x < NCOLS; x++)
 289:Src/draw.c    ****     {
 290:Src/draw.c    ****       setColor(textLayer[x + (y * NCOLS)], minColor);
 341              		.loc 1 290 7 is_stmt 1 discriminator 3 view .LVU80
 342              		.loc 1 290 33 is_stmt 0 discriminator 3 view .LVU81
 343 0006 05EB4500 		add	r0, r5, r5, lsl #1
 344 000a C0EB0010 		rsb	r0, r0, r0, lsl #4
 345              		.loc 1 290 28 discriminator 3 view .LVU82
 346 000e 2044     		add	r0, r0, r4
 347              		.loc 1 290 25 discriminator 3 view .LVU83
 348 0010 00EB4000 		add	r0, r0, r0, lsl #1
 349              		.loc 1 290 7 discriminator 3 view .LVU84
 350 0014 0749     		ldr	r1, .L34
 351 0016 084B     		ldr	r3, .L34+4
 352 0018 1844     		add	r0, r0, r3
 353 001a FFF7FEFF 		bl	setColor
 354              	.LVL36:
 288:Src/draw.c    ****     {
 355              		.loc 1 288 37 discriminator 3 view .LVU85
 356 001e 0134     		adds	r4, r4, #1
 357              	.LVL37:
 288:Src/draw.c    ****     {
 358              		.loc 1 288 37 discriminator 3 view .LVU86
 359 0020 E4B2     		uxtb	r4, r4
 360              	.LVL38:
 361              	.L30:
ARM GAS  /var/folders/hv/f19l0kw128sbpybv1h43gz3c0000gn/T//cc0cLUco.s 			page 13


 288:Src/draw.c    ****     {
 362              		.loc 1 288 5 discriminator 1 view .LVU87
 363 0022 2C2C     		cmp	r4, #44
 364 0024 EFD9     		bls	.L29
 365              	.LBE26:
 286:Src/draw.c    ****   {
 366              		.loc 1 286 35 discriminator 2 view .LVU88
 367 0026 0135     		adds	r5, r5, #1
 368              	.LVL39:
 286:Src/draw.c    ****   {
 369              		.loc 1 286 35 discriminator 2 view .LVU89
 370 0028 EDB2     		uxtb	r5, r5
 371              	.LVL40:
 372              	.L28:
 286:Src/draw.c    ****   {
 373              		.loc 1 286 3 discriminator 1 view .LVU90
 374 002a 2C2D     		cmp	r5, #44
 375 002c 01D8     		bhi	.L33
 376              	.LBB27:
 288:Src/draw.c    ****     {
 377              		.loc 1 288 18 view .LVU91
 378 002e 0024     		movs	r4, #0
 379 0030 F7E7     		b	.L30
 380              	.L33:
 381              	.LBE27:
 382              	.LBE25:
 291:Src/draw.c    ****     }
 292:Src/draw.c    ****   }
 293:Src/draw.c    **** #endif
 294:Src/draw.c    **** }
 383              		.loc 1 294 1 view .LVU92
 384 0032 38BD     		pop	{r3, r4, r5, pc}
 385              	.LVL41:
 386              	.L35:
 387              		.loc 1 294 1 view .LVU93
 388              		.align	2
 389              	.L34:
 390 0034 00000000 		.word	.LANCHOR0
 391 0038 00000000 		.word	textLayer
 392              		.cfi_endproc
 393              	.LFE3:
 395              		.section	.text.clearFramebuffer,"ax",%progbits
 396              		.align	1
 397              		.global	clearFramebuffer
 398              		.syntax unified
 399              		.thumb
 400              		.thumb_func
 401              		.fpu fpv4-sp-d16
 403              	clearFramebuffer:
 404              	.LFB4:
 295:Src/draw.c    **** 
 296:Src/draw.c    **** void clearFramebuffer(void)
 297:Src/draw.c    **** {
 405              		.loc 1 297 1 is_stmt 1 view -0
 406              		.cfi_startproc
 407              		@ args = 0, pretend = 0, frame = 0
 408              		@ frame_needed = 0, uses_anonymous_args = 0
ARM GAS  /var/folders/hv/f19l0kw128sbpybv1h43gz3c0000gn/T//cc0cLUco.s 			page 14


 409 0000 70B5     		push	{r4, r5, r6, lr}
 410              	.LCFI5:
 411              		.cfi_def_cfa_offset 16
 412              		.cfi_offset 4, -16
 413              		.cfi_offset 5, -12
 414              		.cfi_offset 6, -8
 415              		.cfi_offset 14, -4
 416 0002 82B0     		sub	sp, sp, #8
 417              	.LCFI6:
 418              		.cfi_def_cfa_offset 24
 298:Src/draw.c    ****   for (uint8_t i = 0; i < NCHANNELS; i++)
 419              		.loc 1 298 3 view .LVU95
 420              	.LBB28:
 421              		.loc 1 298 8 view .LVU96
 422              	.LVL42:
 423              		.loc 1 298 16 is_stmt 0 view .LVU97
 424 0004 0026     		movs	r6, #0
 425              		.loc 1 298 3 view .LVU98
 426 0006 24E0     		b	.L37
 427              	.LVL43:
 428              	.L38:
 429              	.LBB29:
 299:Src/draw.c    ****   {
 300:Src/draw.c    ****     for (uint8_t j = 0; j < NLINESCH; j++)
 430              		.loc 1 300 40 discriminator 2 view .LVU99
 431 0008 0135     		adds	r5, r5, #1
 432              	.LVL44:
 433              		.loc 1 300 40 discriminator 2 view .LVU100
 434 000a EDB2     		uxtb	r5, r5
 435              	.LVL45:
 436              	.L41:
 437              		.loc 1 300 5 discriminator 1 view .LVU101
 438 000c 032D     		cmp	r5, #3
 439 000e 1ED8     		bhi	.L45
 440              	.LBB30:
 301:Src/draw.c    ****     {
 302:Src/draw.c    ****       for (uint16_t x = 0; x < NCOLS; x++)
 441              		.loc 1 302 21 view .LVU102
 442 0010 0024     		movs	r4, #0
 443              	.L40:
 444              	.LVL46:
 445              		.loc 1 302 7 discriminator 1 view .LVU103
 446 0012 2C2C     		cmp	r4, #44
 447 0014 F8D8     		bhi	.L38
 303:Src/draw.c    ****       {
 304:Src/draw.c    ****         if ((x + (j * NCOLS) + (i * NLEDSCH)) > NLEDSL)
 448              		.loc 1 304 9 is_stmt 1 view .LVU104
 449              		.loc 1 304 21 is_stmt 0 view .LVU105
 450 0016 05EB4503 		add	r3, r5, r5, lsl #1
 451 001a C3EB0313 		rsb	r3, r3, r3, lsl #4
 452              		.loc 1 304 16 view .LVU106
 453 001e 2344     		add	r3, r3, r4
 454              		.loc 1 304 30 view .LVU107
 455 0020 B422     		movs	r2, #180
 456 0022 02FB0633 		mla	r3, r2, r6, r3
 457              		.loc 1 304 12 view .LVU108
 458 0026 B3F5FD6F 		cmp	r3, #2024
ARM GAS  /var/folders/hv/f19l0kw128sbpybv1h43gz3c0000gn/T//cc0cLUco.s 			page 15


 459 002a EDDC     		bgt	.L38
 305:Src/draw.c    ****           break;
 306:Src/draw.c    ****         WS2812_framedata_setPixel(i, x + (j * NCOLS), minColor[0], minColor[1], minColor[2]);
 460              		.loc 1 306 9 is_stmt 1 discriminator 2 view .LVU109
 461 002c 0C4A     		ldr	r2, .L47
 462 002e 05EB4501 		add	r1, r5, r5, lsl #1
 463 0032 C1EB0111 		rsb	r1, r1, r1, lsl #4
 464 0036 2144     		add	r1, r1, r4
 465 0038 9378     		ldrb	r3, [r2, #2]	@ zero_extendqisi2
 466 003a 0093     		str	r3, [sp]
 467 003c 5378     		ldrb	r3, [r2, #1]	@ zero_extendqisi2
 468 003e 1278     		ldrb	r2, [r2]	@ zero_extendqisi2
 469 0040 89B2     		uxth	r1, r1
 470 0042 3046     		mov	r0, r6
 471 0044 FFF7FEFF 		bl	WS2812_framedata_setPixel
 472              	.LVL47:
 302:Src/draw.c    ****       {
 473              		.loc 1 302 40 is_stmt 0 discriminator 2 view .LVU110
 474 0048 0134     		adds	r4, r4, #1
 475              	.LVL48:
 302:Src/draw.c    ****       {
 476              		.loc 1 302 40 discriminator 2 view .LVU111
 477 004a A4B2     		uxth	r4, r4
 478              	.LVL49:
 302:Src/draw.c    ****       {
 479              		.loc 1 302 40 discriminator 2 view .LVU112
 480 004c E1E7     		b	.L40
 481              	.LVL50:
 482              	.L45:
 302:Src/draw.c    ****       {
 483              		.loc 1 302 40 discriminator 2 view .LVU113
 484              	.LBE30:
 485              	.LBE29:
 298:Src/draw.c    ****   {
 486              		.loc 1 298 39 discriminator 2 view .LVU114
 487 004e 0136     		adds	r6, r6, #1
 488              	.LVL51:
 298:Src/draw.c    ****   {
 489              		.loc 1 298 39 discriminator 2 view .LVU115
 490 0050 F6B2     		uxtb	r6, r6
 491              	.LVL52:
 492              	.L37:
 298:Src/draw.c    ****   {
 493              		.loc 1 298 3 discriminator 1 view .LVU116
 494 0052 0B2E     		cmp	r6, #11
 495 0054 01D8     		bhi	.L46
 496              	.LBB31:
 300:Src/draw.c    ****     {
 497              		.loc 1 300 18 view .LVU117
 498 0056 0025     		movs	r5, #0
 499 0058 D8E7     		b	.L41
 500              	.L46:
 501              	.LBE31:
 502              	.LBE28:
 307:Src/draw.c    ****       }
 308:Src/draw.c    ****     }
 309:Src/draw.c    ****   }
ARM GAS  /var/folders/hv/f19l0kw128sbpybv1h43gz3c0000gn/T//cc0cLUco.s 			page 16


 310:Src/draw.c    **** }
 503              		.loc 1 310 1 view .LVU118
 504 005a 02B0     		add	sp, sp, #8
 505              	.LCFI7:
 506              		.cfi_def_cfa_offset 16
 507              		@ sp needed
 508 005c 70BD     		pop	{r4, r5, r6, pc}
 509              	.LVL53:
 510              	.L48:
 511              		.loc 1 310 1 view .LVU119
 512 005e 00BF     		.align	2
 513              	.L47:
 514 0060 00000000 		.word	.LANCHOR0
 515              		.cfi_endproc
 516              	.LFE4:
 518              		.section	.text.drawShape,"ax",%progbits
 519              		.align	1
 520              		.global	drawShape
 521              		.syntax unified
 522              		.thumb
 523              		.thumb_func
 524              		.fpu fpv4-sp-d16
 526              	drawShape:
 527              	.LFB5:
 311:Src/draw.c    **** 
 312:Src/draw.c    **** // void move(int8_t newX, int8_t newY)
 313:Src/draw.c    **** // {
 314:Src/draw.c    **** //   uint8_t tempVector[NLEDS][3];
 315:Src/draw.c    **** //   uint8_t tempX, tempY;
 316:Src/draw.c    **** //   for (int y = 0; y < NCOLS; y++)
 317:Src/draw.c    **** //   {
 318:Src/draw.c    **** //     for (int x = 0; x < NCOLS; x++)
 319:Src/draw.c    **** //     {
 320:Src/draw.c    **** //       for (int z = 0; z < 3; z++)
 321:Src/draw.c    **** //       {
 322:Src/draw.c    **** //         tempVector[x + (y * NCOLS)][z] = backLayer[x + (y * NCOLS)][z];
 323:Src/draw.c    **** //       }
 324:Src/draw.c    **** //     }
 325:Src/draw.c    **** //   }
 326:Src/draw.c    **** 
 327:Src/draw.c    **** //   for (int y = 0; y < NCOLS; y++)
 328:Src/draw.c    **** //   {
 329:Src/draw.c    **** //     if ((y - newY) < 0)
 330:Src/draw.c    **** //     {
 331:Src/draw.c    **** //       tempY = NCOLS - (-y + newY);
 332:Src/draw.c    **** //     }
 333:Src/draw.c    **** //     else if ((y - newY) >= NCOLS)
 334:Src/draw.c    **** //     {
 335:Src/draw.c    **** //       tempY = (y - newY) - NCOLS;
 336:Src/draw.c    **** //     }
 337:Src/draw.c    **** //     else
 338:Src/draw.c    **** //       tempY = y - newY;
 339:Src/draw.c    **** 
 340:Src/draw.c    **** //     for (int x = 0; x < NCOLS; x++)
 341:Src/draw.c    **** //     {
 342:Src/draw.c    **** //       if ((x - newX) < 0)
 343:Src/draw.c    **** //       {
ARM GAS  /var/folders/hv/f19l0kw128sbpybv1h43gz3c0000gn/T//cc0cLUco.s 			page 17


 344:Src/draw.c    **** //         tempX = NCOLS - (-x + newX);
 345:Src/draw.c    **** //       }
 346:Src/draw.c    **** //       else if ((x - newX) >= NCOLS)
 347:Src/draw.c    **** //       {
 348:Src/draw.c    **** //         tempX = (x - newX) - NCOLS;
 349:Src/draw.c    **** //       }
 350:Src/draw.c    **** //       else
 351:Src/draw.c    **** //         tempX = x - newX;
 352:Src/draw.c    **** 
 353:Src/draw.c    **** //       for (int z = 0; z < 3; z++)
 354:Src/draw.c    **** //       {
 355:Src/draw.c    **** //         backLayer[x + (y * NCOLS)][z] = tempVector[tempX + (tempY * NCOLS)][z];
 356:Src/draw.c    **** //       }
 357:Src/draw.c    **** //     }
 358:Src/draw.c    **** //   }
 359:Src/draw.c    **** // }
 360:Src/draw.c    **** 
 361:Src/draw.c    **** void drawShape(void)
 362:Src/draw.c    **** {
 528              		.loc 1 362 1 is_stmt 1 view -0
 529              		.cfi_startproc
 530              		@ args = 0, pretend = 0, frame = 0
 531              		@ frame_needed = 0, uses_anonymous_args = 0
 532 0000 08B5     		push	{r3, lr}
 533              	.LCFI8:
 534              		.cfi_def_cfa_offset 8
 535              		.cfi_offset 3, -8
 536              		.cfi_offset 14, -4
 363:Src/draw.c    ****   if (drawshape_function && MODE_BACK)
 537              		.loc 1 363 3 view .LVU121
 538              		.loc 1 363 7 is_stmt 0 view .LVU122
 539 0002 044B     		ldr	r3, .L52
 540 0004 1B68     		ldr	r3, [r3]
 541              		.loc 1 363 6 view .LVU123
 542 0006 1BB1     		cbz	r3, .L49
 543              		.loc 1 363 26 discriminator 1 view .LVU124
 544 0008 034A     		ldr	r2, .L52+4
 545 000a 1278     		ldrb	r2, [r2]	@ zero_extendqisi2
 546 000c 02B1     		cbz	r2, .L49
 364:Src/draw.c    ****   {
 365:Src/draw.c    ****     (*drawshape_function)();
 547              		.loc 1 365 5 is_stmt 1 view .LVU125
 548              		.loc 1 365 6 is_stmt 0 view .LVU126
 549 000e 9847     		blx	r3
 550              	.LVL54:
 551              	.L49:
 366:Src/draw.c    ****   }
 367:Src/draw.c    **** }
 552              		.loc 1 367 1 view .LVU127
 553 0010 08BD     		pop	{r3, pc}
 554              	.L53:
 555 0012 00BF     		.align	2
 556              	.L52:
 557 0014 00000000 		.word	drawshape_function
 558 0018 00000000 		.word	.LANCHOR1
 559              		.cfi_endproc
 560              	.LFE5:
ARM GAS  /var/folders/hv/f19l0kw128sbpybv1h43gz3c0000gn/T//cc0cLUco.s 			page 18


 562              		.section	.text.drawText,"ax",%progbits
 563              		.align	1
 564              		.global	drawText
 565              		.syntax unified
 566              		.thumb
 567              		.thumb_func
 568              		.fpu fpv4-sp-d16
 570              	drawText:
 571              	.LFB6:
 368:Src/draw.c    **** 
 369:Src/draw.c    **** void drawText(void)
 370:Src/draw.c    **** {
 572              		.loc 1 370 1 is_stmt 1 view -0
 573              		.cfi_startproc
 574              		@ args = 0, pretend = 0, frame = 0
 575              		@ frame_needed = 0, uses_anonymous_args = 0
 576 0000 08B5     		push	{r3, lr}
 577              	.LCFI9:
 578              		.cfi_def_cfa_offset 8
 579              		.cfi_offset 3, -8
 580              		.cfi_offset 14, -4
 371:Src/draw.c    ****   if (drawtext_function && MODE_TEXT)
 581              		.loc 1 371 3 view .LVU129
 582              		.loc 1 371 7 is_stmt 0 view .LVU130
 583 0002 044B     		ldr	r3, .L57
 584 0004 1B68     		ldr	r3, [r3]
 585              		.loc 1 371 6 view .LVU131
 586 0006 1BB1     		cbz	r3, .L54
 587              		.loc 1 371 25 discriminator 1 view .LVU132
 588 0008 034A     		ldr	r2, .L57+4
 589 000a 1278     		ldrb	r2, [r2]	@ zero_extendqisi2
 590 000c 02B1     		cbz	r2, .L54
 372:Src/draw.c    ****   {
 373:Src/draw.c    ****     (*drawtext_function)();
 591              		.loc 1 373 5 is_stmt 1 view .LVU133
 592              		.loc 1 373 6 is_stmt 0 view .LVU134
 593 000e 9847     		blx	r3
 594              	.LVL55:
 595              	.L54:
 374:Src/draw.c    ****   }
 375:Src/draw.c    **** }
 596              		.loc 1 375 1 view .LVU135
 597 0010 08BD     		pop	{r3, pc}
 598              	.L58:
 599 0012 00BF     		.align	2
 600              	.L57:
 601 0014 00000000 		.word	drawtext_function
 602 0018 00000000 		.word	.LANCHOR2
 603              		.cfi_endproc
 604              	.LFE6:
 606              		.section	.text.drawShapeNote,"ax",%progbits
 607              		.align	1
 608              		.global	drawShapeNote
 609              		.syntax unified
 610              		.thumb
 611              		.thumb_func
 612              		.fpu fpv4-sp-d16
ARM GAS  /var/folders/hv/f19l0kw128sbpybv1h43gz3c0000gn/T//cc0cLUco.s 			page 19


 614              	drawShapeNote:
 615              	.LFB7:
 376:Src/draw.c    **** 
 377:Src/draw.c    **** void drawShapeNote()
 378:Src/draw.c    **** {
 616              		.loc 1 378 1 is_stmt 1 view -0
 617              		.cfi_startproc
 618              		@ args = 0, pretend = 0, frame = 0
 619              		@ frame_needed = 0, uses_anonymous_args = 0
 620 0000 2DE9F843 		push	{r3, r4, r5, r6, r7, r8, r9, lr}
 621              	.LCFI10:
 622              		.cfi_def_cfa_offset 32
 623              		.cfi_offset 3, -32
 624              		.cfi_offset 4, -28
 625              		.cfi_offset 5, -24
 626              		.cfi_offset 6, -20
 627              		.cfi_offset 7, -16
 628              		.cfi_offset 8, -12
 629              		.cfi_offset 9, -8
 630              		.cfi_offset 14, -4
 379:Src/draw.c    ****   uint8_t rz = NCOLS / 2;
 631              		.loc 1 379 3 view .LVU137
 632              	.LVL56:
 380:Src/draw.c    ****   uint16_t coords = 0;
 633              		.loc 1 380 3 view .LVU138
 381:Src/draw.c    ****   uint8_t invI;
 634              		.loc 1 381 3 view .LVU139
 382:Src/draw.c    ****   for (int8_t y = -rz; y <= rz; y++)
 635              		.loc 1 382 3 view .LVU140
 636              	.LBB32:
 637              		.loc 1 382 8 view .LVU141
 638              		.loc 1 382 15 is_stmt 0 view .LVU142
 639 0004 6FF01508 		mvn	r8, #21
 640              		.loc 1 382 3 view .LVU143
 641 0008 58E0     		b	.L60
 642              	.LVL57:
 643              	.L64:
 644              	.LBB33:
 645              	.LBB34:
 646              	.LBB35:
 383:Src/draw.c    ****   {
 384:Src/draw.c    ****     for (int8_t x = -rz; x <= rz; x++)
 385:Src/draw.c    ****     {
 386:Src/draw.c    ****       coords = (x + rz) + ((y + rz) * NCOLS);
 387:Src/draw.c    ****       invI = orientation ? MAX_DIV - 1 : 0;
 388:Src/draw.c    ****       for (int8_t i = 0; i < MAX_DIV - 1; i++)
 389:Src/draw.c    ****       {
 390:Src/draw.c    ****         float layer = ((float)(i + 1) / MAX_DIV);
 391:Src/draw.c    ****         if (callback(x, y, layer))
 392:Src/draw.c    ****         {
 393:Src/draw.c    ****           invI = orientation ? i : MAX_DIV - 1 - i;
 647              		.loc 1 393 16 discriminator 2 view .LVU144
 648 000a E6B2     		uxtb	r6, r4
 649              	.LVL58:
 650              		.loc 1 393 16 discriminator 2 view .LVU145
 651 000c 24E0     		b	.L65
 652              	.LVL59:
ARM GAS  /var/folders/hv/f19l0kw128sbpybv1h43gz3c0000gn/T//cc0cLUco.s 			page 20


 653              	.L63:
 654              		.loc 1 393 16 discriminator 2 view .LVU146
 655              	.LBE35:
 388:Src/draw.c    ****       {
 656              		.loc 1 388 44 discriminator 2 view .LVU147
 657 000e 0134     		adds	r4, r4, #1
 658              	.LVL60:
 388:Src/draw.c    ****       {
 659              		.loc 1 388 44 discriminator 2 view .LVU148
 660 0010 64B2     		sxtb	r4, r4
 661              	.LVL61:
 662              	.L62:
 388:Src/draw.c    ****       {
 663              		.loc 1 388 38 discriminator 1 view .LVU149
 664 0012 2F4B     		ldr	r3, .L75
 665 0014 1B78     		ldrb	r3, [r3]	@ zero_extendqisi2
 666 0016 5A1E     		subs	r2, r3, #1
 388:Src/draw.c    ****       {
 667              		.loc 1 388 7 discriminator 1 view .LVU150
 668 0018 9442     		cmp	r4, r2
 669 001a 1DDA     		bge	.L65
 670              	.LBB38:
 390:Src/draw.c    ****         if (callback(x, y, layer))
 671              		.loc 1 390 9 is_stmt 1 view .LVU151
 390:Src/draw.c    ****         if (callback(x, y, layer))
 672              		.loc 1 390 34 is_stmt 0 view .LVU152
 673 001c 621C     		adds	r2, r4, #1
 674 001e 07EE102A 		vmov	s14, r2	@ int
 390:Src/draw.c    ****         if (callback(x, y, layer))
 675              		.loc 1 390 24 view .LVU153
 676 0022 B8EEC77A 		vcvt.f32.s32	s14, s14
 390:Src/draw.c    ****         if (callback(x, y, layer))
 677              		.loc 1 390 39 view .LVU154
 678 0026 07EE903A 		vmov	s15, r3	@ int
 679 002a F8EEE77A 		vcvt.f32.s32	s15, s15
 390:Src/draw.c    ****         if (callback(x, y, layer))
 680              		.loc 1 390 15 view .LVU155
 681 002e 87EE270A 		vdiv.f32	s0, s14, s15
 682              	.LVL62:
 391:Src/draw.c    ****         {
 683              		.loc 1 391 9 is_stmt 1 view .LVU156
 684              	.LBB36:
 685              	.LBI36:
 178:Src/draw.c    **** {
 686              		.loc 1 178 23 view .LVU157
 687              	.LBB37:
 180:Src/draw.c    ****   {
 688              		.loc 1 180 3 view .LVU158
 180:Src/draw.c    ****   {
 689              		.loc 1 180 7 is_stmt 0 view .LVU159
 690 0032 284B     		ldr	r3, .L75+4
 691 0034 1B68     		ldr	r3, [r3]
 180:Src/draw.c    ****   {
 692              		.loc 1 180 6 view .LVU160
 693 0036 002B     		cmp	r3, #0
 694 0038 E9D0     		beq	.L63
 182:Src/draw.c    ****   }
ARM GAS  /var/folders/hv/f19l0kw128sbpybv1h43gz3c0000gn/T//cc0cLUco.s 			page 21


 695              		.loc 1 182 5 is_stmt 1 view .LVU161
 182:Src/draw.c    ****   }
 696              		.loc 1 182 13 is_stmt 0 view .LVU162
 697 003a 4146     		mov	r1, r8
 698 003c 2846     		mov	r0, r5
 699 003e 9847     		blx	r3
 700              	.LVL63:
 182:Src/draw.c    ****   }
 701              		.loc 1 182 13 view .LVU163
 702              	.LBE37:
 703              	.LBE36:
 391:Src/draw.c    ****         {
 704              		.loc 1 391 12 view .LVU164
 705 0040 0028     		cmp	r0, #0
 706 0042 E4D0     		beq	.L63
 707              		.loc 1 393 11 is_stmt 1 view .LVU165
 708              		.loc 1 393 30 is_stmt 0 view .LVU166
 709 0044 244B     		ldr	r3, .L75+8
 710 0046 1B78     		ldrb	r3, [r3]	@ zero_extendqisi2
 711              		.loc 1 393 16 view .LVU167
 712 0048 002B     		cmp	r3, #0
 713 004a DED1     		bne	.L64
 714              		.loc 1 393 48 discriminator 1 view .LVU168
 715 004c 204B     		ldr	r3, .L75
 716 004e 1E78     		ldrb	r6, [r3]	@ zero_extendqisi2
 717              	.LVL64:
 718              		.loc 1 393 48 discriminator 1 view .LVU169
 719 0050 361B     		subs	r6, r6, r4
 720 0052 F6B2     		uxtb	r6, r6
 721              		.loc 1 393 16 discriminator 1 view .LVU170
 722 0054 013E     		subs	r6, r6, #1
 723 0056 F6B2     		uxtb	r6, r6
 724              	.L65:
 725              	.LVL65:
 726              		.loc 1 393 16 discriminator 1 view .LVU171
 727              	.LBE38:
 728              	.LBE34:
 394:Src/draw.c    ****           break;
 395:Src/draw.c    ****         }
 396:Src/draw.c    ****       }
 397:Src/draw.c    ****       setColor(backLayer[coords], noteBuffer[invI].color);
 729              		.loc 1 397 7 is_stmt 1 view .LVU172
 730              		.loc 1 397 25 is_stmt 0 view .LVU173
 731 0058 07EB4707 		add	r7, r7, r7, lsl #1
 732              	.LVL66:
 733              		.loc 1 397 51 view .LVU174
 734 005c 06EB4606 		add	r6, r6, r6, lsl #1
 735              	.LVL67:
 736              		.loc 1 397 51 view .LVU175
 737 0060 7100     		lsls	r1, r6, #1
 738 0062 1E4B     		ldr	r3, .L75+12
 739 0064 1944     		add	r1, r1, r3
 740              		.loc 1 397 7 view .LVU176
 741 0066 0331     		adds	r1, r1, #3
 742 0068 1D48     		ldr	r0, .L75+16
 743 006a 3844     		add	r0, r0, r7
 744 006c FFF7FEFF 		bl	setColor
ARM GAS  /var/folders/hv/f19l0kw128sbpybv1h43gz3c0000gn/T//cc0cLUco.s 			page 22


 745              	.LVL68:
 398:Src/draw.c    ****       for (uint8_t z = 0, invz = 2; z < 3; z++, invz--)
 746              		.loc 1 398 7 is_stmt 1 view .LVU177
 747              	.LBB39:
 748              		.loc 1 398 12 view .LVU178
 749              		.loc 1 398 20 is_stmt 0 view .LVU179
 750 0070 0023     		movs	r3, #0
 751              		.loc 1 398 7 view .LVU180
 752 0072 04E0     		b	.L67
 753              	.LVL69:
 754              	.L68:
 399:Src/draw.c    ****       {
 400:Src/draw.c    ****         textColor[z] = 254;
 755              		.loc 1 400 9 is_stmt 1 discriminator 3 view .LVU181
 756              		.loc 1 400 22 is_stmt 0 discriminator 3 view .LVU182
 757 0074 1B4A     		ldr	r2, .L75+20
 758 0076 FE21     		movs	r1, #254
 759 0078 D154     		strb	r1, [r2, r3]
 398:Src/draw.c    ****       for (uint8_t z = 0, invz = 2; z < 3; z++, invz--)
 760              		.loc 1 398 45 discriminator 3 view .LVU183
 761 007a 0133     		adds	r3, r3, #1
 762              	.LVL70:
 398:Src/draw.c    ****       for (uint8_t z = 0, invz = 2; z < 3; z++, invz--)
 763              		.loc 1 398 45 discriminator 3 view .LVU184
 764 007c DBB2     		uxtb	r3, r3
 765              	.LVL71:
 766              	.L67:
 398:Src/draw.c    ****       for (uint8_t z = 0, invz = 2; z < 3; z++, invz--)
 767              		.loc 1 398 7 discriminator 1 view .LVU185
 768 007e 022B     		cmp	r3, #2
 769 0080 F8D9     		bls	.L68
 770              	.LBE39:
 384:Src/draw.c    ****     {
 771              		.loc 1 384 36 discriminator 2 view .LVU186
 772 0082 0135     		adds	r5, r5, #1
 773              	.LVL72:
 384:Src/draw.c    ****     {
 774              		.loc 1 384 36 discriminator 2 view .LVU187
 775 0084 6DB2     		sxtb	r5, r5
 776              	.LVL73:
 777              	.L70:
 384:Src/draw.c    ****     {
 778              		.loc 1 384 5 discriminator 1 view .LVU188
 779 0086 162D     		cmp	r5, #22
 780 0088 14DC     		bgt	.L73
 386:Src/draw.c    ****       invI = orientation ? MAX_DIV - 1 : 0;
 781              		.loc 1 386 7 is_stmt 1 view .LVU189
 386:Src/draw.c    ****       invI = orientation ? MAX_DIV - 1 : 0;
 782              		.loc 1 386 19 is_stmt 0 view .LVU190
 783 008a 05F11607 		add	r7, r5, #22
 386:Src/draw.c    ****       invI = orientation ? MAX_DIV - 1 : 0;
 784              		.loc 1 386 31 view .LVU191
 785 008e 09F11603 		add	r3, r9, #22
 386:Src/draw.c    ****       invI = orientation ? MAX_DIV - 1 : 0;
 786              		.loc 1 386 25 view .LVU192
 787 0092 03EB4303 		add	r3, r3, r3, lsl #1
 788 0096 C3EB0313 		rsb	r3, r3, r3, lsl #4
ARM GAS  /var/folders/hv/f19l0kw128sbpybv1h43gz3c0000gn/T//cc0cLUco.s 			page 23


 789 009a 9BB2     		uxth	r3, r3
 386:Src/draw.c    ****       invI = orientation ? MAX_DIV - 1 : 0;
 790              		.loc 1 386 14 view .LVU193
 791 009c 13FA87F3 		uxtah	r3, r3, r7
 792 00a0 9FB2     		uxth	r7, r3
 793              	.LVL74:
 387:Src/draw.c    ****       for (int8_t i = 0; i < MAX_DIV - 1; i++)
 794              		.loc 1 387 7 is_stmt 1 view .LVU194
 387:Src/draw.c    ****       for (int8_t i = 0; i < MAX_DIV - 1; i++)
 795              		.loc 1 387 26 is_stmt 0 view .LVU195
 796 00a2 0D4B     		ldr	r3, .L75+8
 797 00a4 1E78     		ldrb	r6, [r3]	@ zero_extendqisi2
 387:Src/draw.c    ****       for (int8_t i = 0; i < MAX_DIV - 1; i++)
 798              		.loc 1 387 12 view .LVU196
 799 00a6 1EB1     		cbz	r6, .L61
 387:Src/draw.c    ****       for (int8_t i = 0; i < MAX_DIV - 1; i++)
 800              		.loc 1 387 36 discriminator 1 view .LVU197
 801 00a8 094B     		ldr	r3, .L75
 802 00aa 1E78     		ldrb	r6, [r3]	@ zero_extendqisi2
 387:Src/draw.c    ****       for (int8_t i = 0; i < MAX_DIV - 1; i++)
 803              		.loc 1 387 12 discriminator 1 view .LVU198
 804 00ac 013E     		subs	r6, r6, #1
 805 00ae F6B2     		uxtb	r6, r6
 806              	.L61:
 807              	.LVL75:
 388:Src/draw.c    ****       {
 808              		.loc 1 388 7 is_stmt 1 discriminator 4 view .LVU199
 809              	.LBB40:
 388:Src/draw.c    ****       {
 810              		.loc 1 388 12 discriminator 4 view .LVU200
 388:Src/draw.c    ****       {
 811              		.loc 1 388 19 is_stmt 0 discriminator 4 view .LVU201
 812 00b0 0024     		movs	r4, #0
 388:Src/draw.c    ****       {
 813              		.loc 1 388 7 discriminator 4 view .LVU202
 814 00b2 AEE7     		b	.L62
 815              	.LVL76:
 816              	.L73:
 388:Src/draw.c    ****       {
 817              		.loc 1 388 7 discriminator 4 view .LVU203
 818              	.LBE40:
 819              	.LBE33:
 382:Src/draw.c    ****   {
 820              		.loc 1 382 34 discriminator 2 view .LVU204
 821 00b4 08F10108 		add	r8, r8, #1
 822              	.LVL77:
 382:Src/draw.c    ****   {
 823              		.loc 1 382 34 discriminator 2 view .LVU205
 824 00b8 4FFA88F8 		sxtb	r8, r8
 825              	.LVL78:
 826              	.L60:
 382:Src/draw.c    ****   {
 827              		.loc 1 382 26 discriminator 1 view .LVU206
 828 00bc C146     		mov	r9, r8
 382:Src/draw.c    ****   {
 829              		.loc 1 382 3 discriminator 1 view .LVU207
 830 00be B8F1160F 		cmp	r8, #22
ARM GAS  /var/folders/hv/f19l0kw128sbpybv1h43gz3c0000gn/T//cc0cLUco.s 			page 24


 831 00c2 02DC     		bgt	.L74
 832              	.LBB41:
 384:Src/draw.c    ****     {
 833              		.loc 1 384 17 view .LVU208
 834 00c4 6FF01505 		mvn	r5, #21
 835 00c8 DDE7     		b	.L70
 836              	.L74:
 837              	.LBE41:
 838              	.LBE32:
 401:Src/draw.c    ****       }
 402:Src/draw.c    ****     }
 403:Src/draw.c    ****   }
 404:Src/draw.c    **** }
 839              		.loc 1 404 1 view .LVU209
 840 00ca BDE8F883 		pop	{r3, r4, r5, r6, r7, r8, r9, pc}
 841              	.LVL79:
 842              	.L76:
 843              		.loc 1 404 1 view .LVU210
 844 00ce 00BF     		.align	2
 845              	.L75:
 846 00d0 00000000 		.word	.LANCHOR4
 847 00d4 00000000 		.word	callback_function
 848 00d8 00000000 		.word	.LANCHOR3
 849 00dc 00000000 		.word	noteBuffer
 850 00e0 00000000 		.word	backLayer
 851 00e4 00000000 		.word	textColor
 852              		.cfi_endproc
 853              	.LFE7:
 855              		.section	.text.drawShapeNoteGrad,"ax",%progbits
 856              		.align	1
 857              		.global	drawShapeNoteGrad
 858              		.syntax unified
 859              		.thumb
 860              		.thumb_func
 861              		.fpu fpv4-sp-d16
 863              	drawShapeNoteGrad:
 864              	.LFB9:
 405:Src/draw.c    **** 
 406:Src/draw.c    **** void drawShapeNoteTemp()
 407:Src/draw.c    **** {
 408:Src/draw.c    ****   uint8_t rz = NCOLS / 2;
 409:Src/draw.c    ****   uint16_t coords = 0;
 410:Src/draw.c    ****   uint8_t invI;
 411:Src/draw.c    ****   for (int8_t y = -rz; y <= rz; y++)
 412:Src/draw.c    ****   {
 413:Src/draw.c    ****     for (int8_t x = -rz; x <= rz; x++)
 414:Src/draw.c    ****     {
 415:Src/draw.c    ****       coords = (x + rz) + ((y + rz) * NCOLS);
 416:Src/draw.c    ****       invI = orientation ? MAX_DIV - 1 : 0;
 417:Src/draw.c    ****       for (int8_t i = 0; i < MAX_DIV - 1; i++)
 418:Src/draw.c    ****       {
 419:Src/draw.c    ****         float layer = ((float)(i + 1) / MAX_DIV);
 420:Src/draw.c    ****         if (circle(x, y, layer))
 421:Src/draw.c    ****         {
 422:Src/draw.c    ****           invI = orientation ? i : MAX_DIV - 1 - i;
 423:Src/draw.c    ****           break;
 424:Src/draw.c    ****         }
ARM GAS  /var/folders/hv/f19l0kw128sbpybv1h43gz3c0000gn/T//cc0cLUco.s 			page 25


 425:Src/draw.c    ****       }
 426:Src/draw.c    ****       setColor(backLayer[coords], noteBuffer[invI].color);
 427:Src/draw.c    ****       for (uint8_t z = 0, invz = 2; z < 3; z++, invz--)
 428:Src/draw.c    ****       {
 429:Src/draw.c    ****         textColor[z] = 150;
 430:Src/draw.c    ****       }
 431:Src/draw.c    ****     }
 432:Src/draw.c    ****   }
 433:Src/draw.c    **** }
 434:Src/draw.c    **** 
 435:Src/draw.c    **** void drawShapeNoteGrad()
 436:Src/draw.c    **** {
 865              		.loc 1 436 1 is_stmt 1 view -0
 866              		.cfi_startproc
 867              		@ args = 0, pretend = 0, frame = 8
 868              		@ frame_needed = 0, uses_anonymous_args = 0
 869 0000 2DE9F047 		push	{r4, r5, r6, r7, r8, r9, r10, lr}
 870              	.LCFI11:
 871              		.cfi_def_cfa_offset 32
 872              		.cfi_offset 4, -32
 873              		.cfi_offset 5, -28
 874              		.cfi_offset 6, -24
 875              		.cfi_offset 7, -20
 876              		.cfi_offset 8, -16
 877              		.cfi_offset 9, -12
 878              		.cfi_offset 10, -8
 879              		.cfi_offset 14, -4
 880 0004 82B0     		sub	sp, sp, #8
 881              	.LCFI12:
 882              		.cfi_def_cfa_offset 40
 437:Src/draw.c    ****   uint8_t rz = NCOLS / 2;
 883              		.loc 1 437 3 view .LVU212
 884              	.LVL80:
 438:Src/draw.c    ****   uint16_t coords = 0;
 885              		.loc 1 438 3 view .LVU213
 439:Src/draw.c    ****   uint8_t invO = orientation ? 0 : 1;
 886              		.loc 1 439 3 view .LVU214
 887              		.loc 1 439 34 is_stmt 0 view .LVU215
 888 0006 434B     		ldr	r3, .L94
 889 0008 1C78     		ldrb	r4, [r3]	@ zero_extendqisi2
 890 000a B4FA84F8 		clz	r8, r4
 891 000e 4FEA5818 		lsr	r8, r8, #5
 892              	.LVL81:
 440:Src/draw.c    ****   int8_t diff[3];
 893              		.loc 1 440 3 is_stmt 1 view .LVU216
 441:Src/draw.c    ****   for (uint8_t j = 0; j < 3; j++)
 894              		.loc 1 441 3 view .LVU217
 895              	.LBB42:
 896              		.loc 1 441 8 view .LVU218
 897              		.loc 1 441 16 is_stmt 0 view .LVU219
 898 0012 0023     		movs	r3, #0
 899              		.loc 1 441 3 view .LVU220
 900 0014 18E0     		b	.L78
 901              	.LVL82:
 902              	.L79:
 442:Src/draw.c    ****   {
 443:Src/draw.c    ****     diff[j] = (noteBuffer[orientation].color[j] - noteBuffer[invO].color[j]) / MAX_DIV;
ARM GAS  /var/folders/hv/f19l0kw128sbpybv1h43gz3c0000gn/T//cc0cLUco.s 			page 26


 903              		.loc 1 443 5 is_stmt 1 discriminator 3 view .LVU221
 904              		.loc 1 443 45 is_stmt 0 discriminator 3 view .LVU222
 905 0016 404A     		ldr	r2, .L94+4
 906 0018 04EB4400 		add	r0, r4, r4, lsl #1
 907 001c 4100     		lsls	r1, r0, #1
 908 001e 1144     		add	r1, r1, r2
 909 0020 1944     		add	r1, r1, r3
 910 0022 C978     		ldrb	r1, [r1, #3]	@ zero_extendqisi2
 911              		.loc 1 443 73 discriminator 3 view .LVU223
 912 0024 4FEA4800 		lsl	r0, r8, #1
 913 0028 4044     		add	r0, r0, r8
 914 002a 4500     		lsls	r5, r0, #1
 915 002c 2A44     		add	r2, r2, r5
 916 002e 1A44     		add	r2, r2, r3
 917 0030 D278     		ldrb	r2, [r2, #3]	@ zero_extendqisi2
 918              		.loc 1 443 49 discriminator 3 view .LVU224
 919 0032 8A1A     		subs	r2, r1, r2
 920              		.loc 1 443 78 discriminator 3 view .LVU225
 921 0034 3949     		ldr	r1, .L94+8
 922 0036 0978     		ldrb	r1, [r1]	@ zero_extendqisi2
 923 0038 92FBF1F2 		sdiv	r2, r2, r1
 924              		.loc 1 443 13 discriminator 3 view .LVU226
 925 003c 02A9     		add	r1, sp, #8
 926 003e 1944     		add	r1, r1, r3
 927 0040 01F8042C 		strb	r2, [r1, #-4]
 441:Src/draw.c    ****   for (uint8_t j = 0; j < 3; j++)
 928              		.loc 1 441 31 discriminator 3 view .LVU227
 929 0044 0133     		adds	r3, r3, #1
 930              	.LVL83:
 441:Src/draw.c    ****   for (uint8_t j = 0; j < 3; j++)
 931              		.loc 1 441 31 discriminator 3 view .LVU228
 932 0046 DBB2     		uxtb	r3, r3
 933              	.LVL84:
 934              	.L78:
 441:Src/draw.c    ****   for (uint8_t j = 0; j < 3; j++)
 935              		.loc 1 441 3 discriminator 1 view .LVU229
 936 0048 022B     		cmp	r3, #2
 937 004a E4D9     		bls	.L79
 938              	.LBE42:
 939              	.LBB43:
 444:Src/draw.c    ****   }
 445:Src/draw.c    **** 
 446:Src/draw.c    ****   for (int8_t y = -rz; y <= rz; y++)
 940              		.loc 1 446 15 view .LVU230
 941 004c 6FF01507 		mvn	r7, #21
 942 0050 56E0     		b	.L80
 943              	.LVL85:
 944              	.L82:
 945              	.LBB44:
 946              	.LBB45:
 447:Src/draw.c    ****   {
 448:Src/draw.c    ****     for (int8_t x = -rz; x <= rz; x++)
 449:Src/draw.c    ****     {
 450:Src/draw.c    ****       coords = (x + rz) + ((y + rz) * NCOLS);
 451:Src/draw.c    ****       setColor(backLayer[coords], noteBuffer[orientation].color);
 452:Src/draw.c    ****       for (int8_t i = 0; i < MAX_DIV - 1; i++)
 947              		.loc 1 452 44 discriminator 2 view .LVU231
ARM GAS  /var/folders/hv/f19l0kw128sbpybv1h43gz3c0000gn/T//cc0cLUco.s 			page 27


 948 0052 0134     		adds	r4, r4, #1
 949              	.LVL86:
 950              		.loc 1 452 44 discriminator 2 view .LVU232
 951 0054 64B2     		sxtb	r4, r4
 952              	.LVL87:
 953              	.L81:
 954              		.loc 1 452 38 discriminator 1 view .LVU233
 955 0056 314B     		ldr	r3, .L94+8
 956 0058 1B78     		ldrb	r3, [r3]	@ zero_extendqisi2
 957 005a 5A1E     		subs	r2, r3, #1
 958              		.loc 1 452 7 discriminator 1 view .LVU234
 959 005c 9442     		cmp	r4, r2
 960 005e 2DDA     		bge	.L85
 961              	.LBB46:
 453:Src/draw.c    ****       {
 454:Src/draw.c    ****         float layer = ((float)(i + 1) / MAX_DIV);
 962              		.loc 1 454 9 is_stmt 1 view .LVU235
 963              		.loc 1 454 34 is_stmt 0 view .LVU236
 964 0060 04F1010A 		add	r10, r4, #1
 965              		.loc 1 454 24 view .LVU237
 966 0064 07EE90AA 		vmov	s15, r10	@ int
 967 0068 B8EEE77A 		vcvt.f32.s32	s14, s15
 968              		.loc 1 454 39 view .LVU238
 969 006c 07EE903A 		vmov	s15, r3	@ int
 970 0070 F8EEE77A 		vcvt.f32.s32	s15, s15
 971              		.loc 1 454 15 view .LVU239
 972 0074 87EE270A 		vdiv.f32	s0, s14, s15
 973              	.LVL88:
 455:Src/draw.c    ****         if (callback(x, y, layer))
 974              		.loc 1 455 9 is_stmt 1 view .LVU240
 975              	.LBB47:
 976              	.LBI47:
 178:Src/draw.c    **** {
 977              		.loc 1 178 23 view .LVU241
 978              	.LBB48:
 180:Src/draw.c    ****   {
 979              		.loc 1 180 3 view .LVU242
 180:Src/draw.c    ****   {
 980              		.loc 1 180 7 is_stmt 0 view .LVU243
 981 0078 294B     		ldr	r3, .L94+12
 982 007a 1B68     		ldr	r3, [r3]
 180:Src/draw.c    ****   {
 983              		.loc 1 180 6 view .LVU244
 984 007c 002B     		cmp	r3, #0
 985 007e E8D0     		beq	.L82
 182:Src/draw.c    ****   }
 986              		.loc 1 182 5 is_stmt 1 view .LVU245
 182:Src/draw.c    ****   }
 987              		.loc 1 182 13 is_stmt 0 view .LVU246
 988 0080 3946     		mov	r1, r7
 989 0082 2846     		mov	r0, r5
 990 0084 9847     		blx	r3
 991              	.LVL89:
 182:Src/draw.c    ****   }
 992              		.loc 1 182 13 view .LVU247
 993              	.LBE48:
 994              	.LBE47:
ARM GAS  /var/folders/hv/f19l0kw128sbpybv1h43gz3c0000gn/T//cc0cLUco.s 			page 28


 995              		.loc 1 455 12 view .LVU248
 996 0086 0028     		cmp	r0, #0
 997 0088 E3D0     		beq	.L82
 998              	.LBB49:
 456:Src/draw.c    ****         {
 457:Src/draw.c    ****           for (uint8_t j = 0; j < 3; j++)
 999              		.loc 1 457 24 view .LVU249
 1000 008a 0023     		movs	r3, #0
 1001              	.L83:
 1002              	.LVL90:
 1003              		.loc 1 457 11 discriminator 1 view .LVU250
 1004 008c 022B     		cmp	r3, #2
 1005 008e 15D8     		bhi	.L85
 458:Src/draw.c    ****           {
 459:Src/draw.c    ****             backLayer[coords][j] = noteBuffer[invO].color[j] + ((i + 1) * diff[j]);
 1006              		.loc 1 459 13 is_stmt 1 discriminator 3 view .LVU251
 1007              		.loc 1 459 58 is_stmt 0 discriminator 3 view .LVU252
 1008 0090 4FEA4801 		lsl	r1, r8, #1
 1009 0094 4144     		add	r1, r1, r8
 1010 0096 4800     		lsls	r0, r1, #1
 1011 0098 1F4A     		ldr	r2, .L94+4
 1012 009a 0244     		add	r2, r2, r0
 1013 009c 1A44     		add	r2, r2, r3
 1014 009e D278     		ldrb	r2, [r2, #3]	@ zero_extendqisi2
 1015              		.loc 1 459 79 discriminator 3 view .LVU253
 1016 00a0 02A9     		add	r1, sp, #8
 1017 00a2 1944     		add	r1, r1, r3
 1018 00a4 11F9041C 		ldrsb	r1, [r1, #-4]
 1019              		.loc 1 459 62 discriminator 3 view .LVU254
 1020 00a8 0AFB0121 		mla	r1, r10, r1, r2
 1021              		.loc 1 459 34 discriminator 3 view .LVU255
 1022 00ac 06EB4600 		add	r0, r6, r6, lsl #1
 1023 00b0 1C4A     		ldr	r2, .L94+16
 1024 00b2 0244     		add	r2, r2, r0
 1025 00b4 D154     		strb	r1, [r2, r3]
 457:Src/draw.c    ****           {
 1026              		.loc 1 457 39 discriminator 3 view .LVU256
 1027 00b6 0133     		adds	r3, r3, #1
 1028              	.LVL91:
 457:Src/draw.c    ****           {
 1029              		.loc 1 457 39 discriminator 3 view .LVU257
 1030 00b8 DBB2     		uxtb	r3, r3
 1031              	.LVL92:
 457:Src/draw.c    ****           {
 1032              		.loc 1 457 39 discriminator 3 view .LVU258
 1033 00ba E7E7     		b	.L83
 1034              	.LVL93:
 1035              	.L85:
 457:Src/draw.c    ****           {
 1036              		.loc 1 457 39 discriminator 3 view .LVU259
 1037              	.LBE49:
 1038              	.LBE46:
 1039              	.LBE45:
 448:Src/draw.c    ****     {
 1040              		.loc 1 448 36 discriminator 2 view .LVU260
 1041 00bc 0135     		adds	r5, r5, #1
 1042              	.LVL94:
ARM GAS  /var/folders/hv/f19l0kw128sbpybv1h43gz3c0000gn/T//cc0cLUco.s 			page 29


 448:Src/draw.c    ****     {
 1043              		.loc 1 448 36 discriminator 2 view .LVU261
 1044 00be 6DB2     		sxtb	r5, r5
 1045              	.LVL95:
 1046              	.L88:
 448:Src/draw.c    ****     {
 1047              		.loc 1 448 5 discriminator 1 view .LVU262
 1048 00c0 162D     		cmp	r5, #22
 1049 00c2 1BDC     		bgt	.L92
 450:Src/draw.c    ****       setColor(backLayer[coords], noteBuffer[orientation].color);
 1050              		.loc 1 450 7 is_stmt 1 view .LVU263
 450:Src/draw.c    ****       setColor(backLayer[coords], noteBuffer[orientation].color);
 1051              		.loc 1 450 19 is_stmt 0 view .LVU264
 1052 00c4 05F11606 		add	r6, r5, #22
 450:Src/draw.c    ****       setColor(backLayer[coords], noteBuffer[orientation].color);
 1053              		.loc 1 450 31 view .LVU265
 1054 00c8 09F11603 		add	r3, r9, #22
 450:Src/draw.c    ****       setColor(backLayer[coords], noteBuffer[orientation].color);
 1055              		.loc 1 450 25 view .LVU266
 1056 00cc 03EB4303 		add	r3, r3, r3, lsl #1
 1057 00d0 C3EB0313 		rsb	r3, r3, r3, lsl #4
 1058 00d4 9BB2     		uxth	r3, r3
 450:Src/draw.c    ****       setColor(backLayer[coords], noteBuffer[orientation].color);
 1059              		.loc 1 450 14 view .LVU267
 1060 00d6 13FA86F3 		uxtah	r3, r3, r6
 1061 00da 9EB2     		uxth	r6, r3
 451:Src/draw.c    ****       for (int8_t i = 0; i < MAX_DIV - 1; i++)
 1062              		.loc 1 451 7 is_stmt 1 view .LVU268
 451:Src/draw.c    ****       for (int8_t i = 0; i < MAX_DIV - 1; i++)
 1063              		.loc 1 451 25 is_stmt 0 view .LVU269
 1064 00dc 06EB4602 		add	r2, r6, r6, lsl #1
 451:Src/draw.c    ****       for (int8_t i = 0; i < MAX_DIV - 1; i++)
 1065              		.loc 1 451 58 view .LVU270
 1066 00e0 0C4B     		ldr	r3, .L94
 1067 00e2 1B78     		ldrb	r3, [r3]	@ zero_extendqisi2
 1068 00e4 03EB4303 		add	r3, r3, r3, lsl #1
 1069 00e8 5900     		lsls	r1, r3, #1
 1070 00ea 0B4B     		ldr	r3, .L94+4
 1071 00ec 1944     		add	r1, r1, r3
 451:Src/draw.c    ****       for (int8_t i = 0; i < MAX_DIV - 1; i++)
 1072              		.loc 1 451 7 view .LVU271
 1073 00ee 0331     		adds	r1, r1, #3
 1074 00f0 0C48     		ldr	r0, .L94+16
 1075 00f2 1044     		add	r0, r0, r2
 1076 00f4 FFF7FEFF 		bl	setColor
 1077              	.LVL96:
 452:Src/draw.c    ****       {
 1078              		.loc 1 452 7 is_stmt 1 view .LVU272
 1079              	.LBB50:
 452:Src/draw.c    ****       {
 1080              		.loc 1 452 12 view .LVU273
 452:Src/draw.c    ****       {
 1081              		.loc 1 452 19 is_stmt 0 view .LVU274
 1082 00f8 0024     		movs	r4, #0
 452:Src/draw.c    ****       {
 1083              		.loc 1 452 7 view .LVU275
 1084 00fa ACE7     		b	.L81
ARM GAS  /var/folders/hv/f19l0kw128sbpybv1h43gz3c0000gn/T//cc0cLUco.s 			page 30


 1085              	.LVL97:
 1086              	.L92:
 452:Src/draw.c    ****       {
 1087              		.loc 1 452 7 view .LVU276
 1088              	.LBE50:
 1089              	.LBE44:
 446:Src/draw.c    ****   {
 1090              		.loc 1 446 34 discriminator 2 view .LVU277
 1091 00fc 0137     		adds	r7, r7, #1
 1092              	.LVL98:
 446:Src/draw.c    ****   {
 1093              		.loc 1 446 34 discriminator 2 view .LVU278
 1094 00fe 7FB2     		sxtb	r7, r7
 1095              	.LVL99:
 1096              	.L80:
 446:Src/draw.c    ****   {
 1097              		.loc 1 446 26 discriminator 1 view .LVU279
 1098 0100 B946     		mov	r9, r7
 446:Src/draw.c    ****   {
 1099              		.loc 1 446 3 discriminator 1 view .LVU280
 1100 0102 162F     		cmp	r7, #22
 1101 0104 02DC     		bgt	.L93
 1102              	.LBB51:
 448:Src/draw.c    ****     {
 1103              		.loc 1 448 17 view .LVU281
 1104 0106 6FF01505 		mvn	r5, #21
 1105 010a D9E7     		b	.L88
 1106              	.L93:
 1107              	.LBE51:
 1108              	.LBE43:
 460:Src/draw.c    ****           }
 461:Src/draw.c    ****           break;
 462:Src/draw.c    ****         }
 463:Src/draw.c    ****       }
 464:Src/draw.c    ****     }
 465:Src/draw.c    ****   }
 466:Src/draw.c    **** }
 1109              		.loc 1 466 1 view .LVU282
 1110 010c 02B0     		add	sp, sp, #8
 1111              	.LCFI13:
 1112              		.cfi_def_cfa_offset 32
 1113              		@ sp needed
 1114 010e BDE8F087 		pop	{r4, r5, r6, r7, r8, r9, r10, pc}
 1115              	.LVL100:
 1116              	.L95:
 1117              		.loc 1 466 1 view .LVU283
 1118 0112 00BF     		.align	2
 1119              	.L94:
 1120 0114 00000000 		.word	.LANCHOR3
 1121 0118 00000000 		.word	noteBuffer
 1122 011c 00000000 		.word	.LANCHOR4
 1123 0120 00000000 		.word	callback_function
 1124 0124 00000000 		.word	backLayer
 1125              		.cfi_endproc
 1126              	.LFE9:
 1128              		.section	.text.circle,"ax",%progbits
 1129              		.align	1
ARM GAS  /var/folders/hv/f19l0kw128sbpybv1h43gz3c0000gn/T//cc0cLUco.s 			page 31


 1130              		.global	circle
 1131              		.syntax unified
 1132              		.thumb
 1133              		.thumb_func
 1134              		.fpu fpv4-sp-d16
 1136              	circle:
 1137              	.LVL101:
 1138              	.LFB10:
 467:Src/draw.c    **** uint8_t circle(int8_t x, int8_t y, float layer)
 468:Src/draw.c    **** {
 1139              		.loc 1 468 1 is_stmt 1 view -0
 1140              		.cfi_startproc
 1141              		@ args = 0, pretend = 0, frame = 0
 1142              		@ frame_needed = 0, uses_anonymous_args = 0
 1143              		@ link register save eliminated.
 469:Src/draw.c    ****   float z = ((float)NCOLS / 2);
 1144              		.loc 1 469 3 view .LVU285
 470:Src/draw.c    ****   return ((x * x) + (y * y) <= (z * z) * layer);
 1145              		.loc 1 470 3 view .LVU286
 1146              		.loc 1 470 24 is_stmt 0 view .LVU287
 1147 0000 01FB01F1 		mul	r1, r1, r1
 1148              	.LVL102:
 1149              		.loc 1 470 19 view .LVU288
 1150 0004 00FB0010 		mla	r0, r0, r0, r1
 1151              	.LVL103:
 1152              		.loc 1 470 40 view .LVU289
 1153 0008 DFED077A 		vldr.32	s15, .L97
 1154 000c 20EE270A 		vmul.f32	s0, s0, s15
 1155              	.LVL104:
 1156              		.loc 1 470 29 view .LVU290
 1157 0010 07EE900A 		vmov	s15, r0	@ int
 1158 0014 F8EEE77A 		vcvt.f32.s32	s15, s15
 1159 0018 F4EEC07A 		vcmpe.f32	s15, s0
 1160 001c F1EE10FA 		vmrs	APSR_nzcv, FPSCR
 471:Src/draw.c    **** }
 1161              		.loc 1 471 1 view .LVU291
 1162 0020 94BF     		ite	ls
 1163 0022 0120     		movls	r0, #1
 1164 0024 0020     		movhi	r0, #0
 1165 0026 7047     		bx	lr
 1166              	.L98:
 1167              		.align	2
 1168              	.L97:
 1169 0028 0020FD43 		.word	1140662272
 1170              		.cfi_endproc
 1171              	.LFE10:
 1173              		.section	.text.drawShapeNoteTemp,"ax",%progbits
 1174              		.align	1
 1175              		.global	drawShapeNoteTemp
 1176              		.syntax unified
 1177              		.thumb
 1178              		.thumb_func
 1179              		.fpu fpv4-sp-d16
 1181              	drawShapeNoteTemp:
 1182              	.LFB8:
 407:Src/draw.c    ****   uint8_t rz = NCOLS / 2;
 1183              		.loc 1 407 1 is_stmt 1 view -0
ARM GAS  /var/folders/hv/f19l0kw128sbpybv1h43gz3c0000gn/T//cc0cLUco.s 			page 32


 1184              		.cfi_startproc
 1185              		@ args = 0, pretend = 0, frame = 0
 1186              		@ frame_needed = 0, uses_anonymous_args = 0
 1187 0000 2DE9F84F 		push	{r3, r4, r5, r6, r7, r8, r9, r10, fp, lr}
 1188              	.LCFI14:
 1189              		.cfi_def_cfa_offset 40
 1190              		.cfi_offset 3, -40
 1191              		.cfi_offset 4, -36
 1192              		.cfi_offset 5, -32
 1193              		.cfi_offset 6, -28
 1194              		.cfi_offset 7, -24
 1195              		.cfi_offset 8, -20
 1196              		.cfi_offset 9, -16
 1197              		.cfi_offset 10, -12
 1198              		.cfi_offset 11, -8
 1199              		.cfi_offset 14, -4
 408:Src/draw.c    ****   uint16_t coords = 0;
 1200              		.loc 1 408 3 view .LVU293
 1201              	.LVL105:
 409:Src/draw.c    ****   uint8_t invI;
 1202              		.loc 1 409 3 view .LVU294
 410:Src/draw.c    ****   for (int8_t y = -rz; y <= rz; y++)
 1203              		.loc 1 410 3 view .LVU295
 411:Src/draw.c    ****   {
 1204              		.loc 1 411 3 view .LVU296
 1205              	.LBB52:
 411:Src/draw.c    ****   {
 1206              		.loc 1 411 8 view .LVU297
 411:Src/draw.c    ****   {
 1207              		.loc 1 411 15 is_stmt 0 view .LVU298
 1208 0004 6FF01508 		mvn	r8, #21
 411:Src/draw.c    ****   {
 1209              		.loc 1 411 3 view .LVU299
 1210 0008 60E0     		b	.L100
 1211              	.LVL106:
 1212              	.L111:
 1213              	.LBB53:
 416:Src/draw.c    ****       for (int8_t i = 0; i < MAX_DIV - 1; i++)
 1214              		.loc 1 416 12 view .LVU300
 1215 000a D146     		mov	r9, r10
 1216 000c 40E0     		b	.L101
 1217              	.LVL107:
 1218              	.L115:
 1219              	.LBB54:
 1220              	.LBB55:
 422:Src/draw.c    ****           break;
 1221              		.loc 1 422 11 is_stmt 1 view .LVU301
 422:Src/draw.c    ****           break;
 1222              		.loc 1 422 16 is_stmt 0 view .LVU302
 1223 000e BAF1000F 		cmp	r10, #0
 1224 0012 16D1     		bne	.L104
 422:Src/draw.c    ****           break;
 1225              		.loc 1 422 48 discriminator 1 view .LVU303
 1226 0014 A5EB0409 		sub	r9, r5, r4
 1227              	.LVL108:
 422:Src/draw.c    ****           break;
 1228              		.loc 1 422 48 discriminator 1 view .LVU304
ARM GAS  /var/folders/hv/f19l0kw128sbpybv1h43gz3c0000gn/T//cc0cLUco.s 			page 33


 1229 0018 5FFA89F9 		uxtb	r9, r9
 422:Src/draw.c    ****           break;
 1230              		.loc 1 422 16 discriminator 1 view .LVU305
 1231 001c 09F1FF39 		add	r9, r9, #-1
 1232 0020 5FFA89F9 		uxtb	r9, r9
 1233              	.LVL109:
 1234              	.L105:
 422:Src/draw.c    ****           break;
 1235              		.loc 1 422 16 discriminator 1 view .LVU306
 1236              	.LBE55:
 1237              	.LBE54:
 426:Src/draw.c    ****       for (uint8_t z = 0, invz = 2; z < 3; z++, invz--)
 1238              		.loc 1 426 7 is_stmt 1 view .LVU307
 426:Src/draw.c    ****       for (uint8_t z = 0, invz = 2; z < 3; z++, invz--)
 1239              		.loc 1 426 25 is_stmt 0 view .LVU308
 1240 0024 07EB4707 		add	r7, r7, r7, lsl #1
 1241              	.LVL110:
 426:Src/draw.c    ****       for (uint8_t z = 0, invz = 2; z < 3; z++, invz--)
 1242              		.loc 1 426 51 view .LVU309
 1243 0028 09EB4909 		add	r9, r9, r9, lsl #1
 1244              	.LVL111:
 426:Src/draw.c    ****       for (uint8_t z = 0, invz = 2; z < 3; z++, invz--)
 1245              		.loc 1 426 51 view .LVU310
 1246 002c 4FEA4901 		lsl	r1, r9, #1
 1247 0030 2B4B     		ldr	r3, .L117
 1248 0032 1944     		add	r1, r1, r3
 426:Src/draw.c    ****       for (uint8_t z = 0, invz = 2; z < 3; z++, invz--)
 1249              		.loc 1 426 7 view .LVU311
 1250 0034 0331     		adds	r1, r1, #3
 1251 0036 2B48     		ldr	r0, .L117+4
 1252 0038 3844     		add	r0, r0, r7
 1253 003a FFF7FEFF 		bl	setColor
 1254              	.LVL112:
 427:Src/draw.c    ****       {
 1255              		.loc 1 427 7 is_stmt 1 view .LVU312
 1256              	.LBB58:
 427:Src/draw.c    ****       {
 1257              		.loc 1 427 12 view .LVU313
 427:Src/draw.c    ****       {
 1258              		.loc 1 427 20 is_stmt 0 view .LVU314
 1259 003e 0023     		movs	r3, #0
 427:Src/draw.c    ****       {
 1260              		.loc 1 427 7 view .LVU315
 1261 0040 07E0     		b	.L107
 1262              	.LVL113:
 1263              	.L104:
 427:Src/draw.c    ****       {
 1264              		.loc 1 427 7 view .LVU316
 1265              	.LBE58:
 1266              	.LBB59:
 1267              	.LBB56:
 422:Src/draw.c    ****           break;
 1268              		.loc 1 422 16 discriminator 2 view .LVU317
 1269 0042 5FFA84F9 		uxtb	r9, r4
 1270              	.LVL114:
 422:Src/draw.c    ****           break;
 1271              		.loc 1 422 16 discriminator 2 view .LVU318
ARM GAS  /var/folders/hv/f19l0kw128sbpybv1h43gz3c0000gn/T//cc0cLUco.s 			page 34


 1272 0046 EDE7     		b	.L105
 1273              	.LVL115:
 1274              	.L108:
 422:Src/draw.c    ****           break;
 1275              		.loc 1 422 16 discriminator 2 view .LVU319
 1276              	.LBE56:
 1277              	.LBE59:
 1278              	.LBB60:
 429:Src/draw.c    ****       }
 1279              		.loc 1 429 9 is_stmt 1 discriminator 3 view .LVU320
 429:Src/draw.c    ****       }
 1280              		.loc 1 429 22 is_stmt 0 discriminator 3 view .LVU321
 1281 0048 274A     		ldr	r2, .L117+8
 1282 004a 9621     		movs	r1, #150
 1283 004c D154     		strb	r1, [r2, r3]
 427:Src/draw.c    ****       {
 1284              		.loc 1 427 45 discriminator 3 view .LVU322
 1285 004e 0133     		adds	r3, r3, #1
 1286              	.LVL116:
 427:Src/draw.c    ****       {
 1287              		.loc 1 427 45 discriminator 3 view .LVU323
 1288 0050 DBB2     		uxtb	r3, r3
 1289              	.LVL117:
 1290              	.L107:
 427:Src/draw.c    ****       {
 1291              		.loc 1 427 7 discriminator 1 view .LVU324
 1292 0052 022B     		cmp	r3, #2
 1293 0054 F8D9     		bls	.L108
 1294              	.LBE60:
 413:Src/draw.c    ****     {
 1295              		.loc 1 413 36 discriminator 2 view .LVU325
 1296 0056 0136     		adds	r6, r6, #1
 1297              	.LVL118:
 413:Src/draw.c    ****     {
 1298              		.loc 1 413 36 discriminator 2 view .LVU326
 1299 0058 76B2     		sxtb	r6, r6
 1300              	.LVL119:
 1301              	.L110:
 413:Src/draw.c    ****     {
 1302              		.loc 1 413 5 discriminator 1 view .LVU327
 1303 005a 162E     		cmp	r6, #22
 1304 005c 32DC     		bgt	.L114
 415:Src/draw.c    ****       invI = orientation ? MAX_DIV - 1 : 0;
 1305              		.loc 1 415 7 is_stmt 1 view .LVU328
 415:Src/draw.c    ****       invI = orientation ? MAX_DIV - 1 : 0;
 1306              		.loc 1 415 19 is_stmt 0 view .LVU329
 1307 005e 06F11607 		add	r7, r6, #22
 415:Src/draw.c    ****       invI = orientation ? MAX_DIV - 1 : 0;
 1308              		.loc 1 415 31 view .LVU330
 1309 0062 0BF11603 		add	r3, fp, #22
 415:Src/draw.c    ****       invI = orientation ? MAX_DIV - 1 : 0;
 1310              		.loc 1 415 25 view .LVU331
 1311 0066 03EB4303 		add	r3, r3, r3, lsl #1
 1312 006a C3EB0313 		rsb	r3, r3, r3, lsl #4
 1313 006e 9BB2     		uxth	r3, r3
 415:Src/draw.c    ****       invI = orientation ? MAX_DIV - 1 : 0;
 1314              		.loc 1 415 14 view .LVU332
ARM GAS  /var/folders/hv/f19l0kw128sbpybv1h43gz3c0000gn/T//cc0cLUco.s 			page 35


 1315 0070 13FA87F3 		uxtah	r3, r3, r7
 1316 0074 9FB2     		uxth	r7, r3
 1317              	.LVL120:
 416:Src/draw.c    ****       for (int8_t i = 0; i < MAX_DIV - 1; i++)
 1318              		.loc 1 416 7 is_stmt 1 view .LVU333
 416:Src/draw.c    ****       for (int8_t i = 0; i < MAX_DIV - 1; i++)
 1319              		.loc 1 416 26 is_stmt 0 view .LVU334
 1320 0076 1D4B     		ldr	r3, .L117+12
 1321 0078 93F800A0 		ldrb	r10, [r3]	@ zero_extendqisi2
 416:Src/draw.c    ****       for (int8_t i = 0; i < MAX_DIV - 1; i++)
 1322              		.loc 1 416 12 view .LVU335
 1323 007c BAF1000F 		cmp	r10, #0
 1324 0080 C3D0     		beq	.L111
 416:Src/draw.c    ****       for (int8_t i = 0; i < MAX_DIV - 1; i++)
 1325              		.loc 1 416 36 discriminator 1 view .LVU336
 1326 0082 1B4B     		ldr	r3, .L117+16
 1327 0084 93F80090 		ldrb	r9, [r3]	@ zero_extendqisi2
 416:Src/draw.c    ****       for (int8_t i = 0; i < MAX_DIV - 1; i++)
 1328              		.loc 1 416 12 discriminator 1 view .LVU337
 1329 0088 09F1FF39 		add	r9, r9, #-1
 1330 008c 5FFA89F9 		uxtb	r9, r9
 1331              	.L101:
 1332              	.LVL121:
 417:Src/draw.c    ****       {
 1333              		.loc 1 417 7 is_stmt 1 discriminator 4 view .LVU338
 1334              	.LBB61:
 417:Src/draw.c    ****       {
 1335              		.loc 1 417 12 discriminator 4 view .LVU339
 417:Src/draw.c    ****       {
 1336              		.loc 1 417 19 is_stmt 0 discriminator 4 view .LVU340
 1337 0090 0024     		movs	r4, #0
 1338              	.LVL122:
 1339              	.L102:
 417:Src/draw.c    ****       {
 1340              		.loc 1 417 38 discriminator 1 view .LVU341
 1341 0092 174B     		ldr	r3, .L117+16
 1342 0094 1D78     		ldrb	r5, [r3]	@ zero_extendqisi2
 1343 0096 6B1E     		subs	r3, r5, #1
 417:Src/draw.c    ****       {
 1344              		.loc 1 417 7 discriminator 1 view .LVU342
 1345 0098 9C42     		cmp	r4, r3
 1346 009a C3DA     		bge	.L105
 1347              	.LBB57:
 419:Src/draw.c    ****         if (circle(x, y, layer))
 1348              		.loc 1 419 9 is_stmt 1 view .LVU343
 419:Src/draw.c    ****         if (circle(x, y, layer))
 1349              		.loc 1 419 34 is_stmt 0 view .LVU344
 1350 009c 631C     		adds	r3, r4, #1
 1351 009e 00EE103A 		vmov	s0, r3	@ int
 419:Src/draw.c    ****         if (circle(x, y, layer))
 1352              		.loc 1 419 24 view .LVU345
 1353 00a2 B8EEC00A 		vcvt.f32.s32	s0, s0
 419:Src/draw.c    ****         if (circle(x, y, layer))
 1354              		.loc 1 419 39 view .LVU346
 1355 00a6 07EE905A 		vmov	s15, r5	@ int
 1356 00aa F8EEE77A 		vcvt.f32.s32	s15, s15
 1357              	.LVL123:
ARM GAS  /var/folders/hv/f19l0kw128sbpybv1h43gz3c0000gn/T//cc0cLUco.s 			page 36


 420:Src/draw.c    ****         {
 1358              		.loc 1 420 9 is_stmt 1 view .LVU347
 420:Src/draw.c    ****         {
 1359              		.loc 1 420 13 is_stmt 0 view .LVU348
 1360 00ae 80EE270A 		vdiv.f32	s0, s0, s15
 1361              	.LVL124:
 420:Src/draw.c    ****         {
 1362              		.loc 1 420 13 view .LVU349
 1363 00b2 4146     		mov	r1, r8
 1364 00b4 3046     		mov	r0, r6
 1365 00b6 FFF7FEFF 		bl	circle
 1366              	.LVL125:
 420:Src/draw.c    ****         {
 1367              		.loc 1 420 12 view .LVU350
 1368 00ba 0028     		cmp	r0, #0
 1369 00bc A7D1     		bne	.L115
 1370              	.LBE57:
 417:Src/draw.c    ****       {
 1371              		.loc 1 417 44 discriminator 2 view .LVU351
 1372 00be 0134     		adds	r4, r4, #1
 1373              	.LVL126:
 417:Src/draw.c    ****       {
 1374              		.loc 1 417 44 discriminator 2 view .LVU352
 1375 00c0 64B2     		sxtb	r4, r4
 1376              	.LVL127:
 417:Src/draw.c    ****       {
 1377              		.loc 1 417 44 discriminator 2 view .LVU353
 1378 00c2 E6E7     		b	.L102
 1379              	.LVL128:
 1380              	.L114:
 417:Src/draw.c    ****       {
 1381              		.loc 1 417 44 discriminator 2 view .LVU354
 1382              	.LBE61:
 1383              	.LBE53:
 411:Src/draw.c    ****   {
 1384              		.loc 1 411 34 discriminator 2 view .LVU355
 1385 00c4 08F10108 		add	r8, r8, #1
 1386              	.LVL129:
 411:Src/draw.c    ****   {
 1387              		.loc 1 411 34 discriminator 2 view .LVU356
 1388 00c8 4FFA88F8 		sxtb	r8, r8
 1389              	.LVL130:
 1390              	.L100:
 411:Src/draw.c    ****   {
 1391              		.loc 1 411 26 discriminator 1 view .LVU357
 1392 00cc C346     		mov	fp, r8
 411:Src/draw.c    ****   {
 1393              		.loc 1 411 3 discriminator 1 view .LVU358
 1394 00ce B8F1160F 		cmp	r8, #22
 1395 00d2 02DC     		bgt	.L116
 1396              	.LBB62:
 413:Src/draw.c    ****     {
 1397              		.loc 1 413 17 view .LVU359
 1398 00d4 6FF01506 		mvn	r6, #21
 1399 00d8 BFE7     		b	.L110
 1400              	.L116:
 1401              	.LBE62:
ARM GAS  /var/folders/hv/f19l0kw128sbpybv1h43gz3c0000gn/T//cc0cLUco.s 			page 37


 1402              	.LBE52:
 433:Src/draw.c    **** 
 1403              		.loc 1 433 1 view .LVU360
 1404 00da BDE8F88F 		pop	{r3, r4, r5, r6, r7, r8, r9, r10, fp, pc}
 1405              	.LVL131:
 1406              	.L118:
 433:Src/draw.c    **** 
 1407              		.loc 1 433 1 view .LVU361
 1408 00de 00BF     		.align	2
 1409              	.L117:
 1410 00e0 00000000 		.word	noteBuffer
 1411 00e4 00000000 		.word	backLayer
 1412 00e8 00000000 		.word	textColor
 1413 00ec 00000000 		.word	.LANCHOR3
 1414 00f0 00000000 		.word	.LANCHOR4
 1415              		.cfi_endproc
 1416              	.LFE8:
 1418              		.section	.text.square,"ax",%progbits
 1419              		.align	1
 1420              		.global	square
 1421              		.syntax unified
 1422              		.thumb
 1423              		.thumb_func
 1424              		.fpu fpv4-sp-d16
 1426              	square:
 1427              	.LVL132:
 1428              	.LFB11:
 472:Src/draw.c    **** 
 473:Src/draw.c    **** uint8_t square(int8_t x, int8_t y, float layer)
 474:Src/draw.c    **** {
 1429              		.loc 1 474 1 is_stmt 1 view -0
 1430              		.cfi_startproc
 1431              		@ args = 0, pretend = 0, frame = 8
 1432              		@ frame_needed = 0, uses_anonymous_args = 0
 1433              		@ link register save eliminated.
 1434              		.loc 1 474 1 is_stmt 0 view .LVU363
 1435 0000 82B0     		sub	sp, sp, #8
 1436              	.LCFI15:
 1437              		.cfi_def_cfa_offset 8
 1438 0002 0191     		str	r1, [sp, #4]
 475:Src/draw.c    ****   float z = ((float)NCOLS / 2);
 1439              		.loc 1 475 3 is_stmt 1 view .LVU364
 1440              	.LVL133:
 476:Src/draw.c    ****   float perc = layer * z;
 1441              		.loc 1 476 3 view .LVU365
 1442              		.loc 1 476 9 is_stmt 0 view .LVU366
 1443 0004 DFED167A 		vldr.32	s15, .L135
 1444 0008 20EE270A 		vmul.f32	s0, s0, s15
 1445              	.LVL134:
 477:Src/draw.c    ****   return ((x >= -perc && x <= perc) && (y >= -perc && y <= perc));
 1446              		.loc 1 477 3 is_stmt 1 view .LVU367
 1447              		.loc 1 477 14 is_stmt 0 view .LVU368
 1448 000c 07EE900A 		vmov	s15, r0	@ int
 1449 0010 F8EEE77A 		vcvt.f32.s32	s15, s15
 1450              		.loc 1 477 17 view .LVU369
 1451 0014 B1EE407A 		vneg.f32	s14, s0
 1452              		.loc 1 477 37 view .LVU370
ARM GAS  /var/folders/hv/f19l0kw128sbpybv1h43gz3c0000gn/T//cc0cLUco.s 			page 38


 1453 0018 F4EEC77A 		vcmpe.f32	s15, s14
 1454 001c F1EE10FA 		vmrs	APSR_nzcv, FPSCR
 1455 0020 14DB     		blt	.L131
 1456              		.loc 1 477 23 discriminator 1 view .LVU371
 1457 0022 F4EEC07A 		vcmpe.f32	s15, s0
 1458 0026 F1EE10FA 		vmrs	APSR_nzcv, FPSCR
 1459 002a 12D8     		bhi	.L132
 1460              		.loc 1 477 43 discriminator 3 view .LVU372
 1461 002c 07EE901A 		vmov	s15, r1	@ int
 1462 0030 F8EEE77A 		vcvt.f32.s32	s15, s15
 1463              		.loc 1 477 37 discriminator 3 view .LVU373
 1464 0034 B4EEE77A 		vcmpe.f32	s14, s15
 1465 0038 F1EE10FA 		vmrs	APSR_nzcv, FPSCR
 1466 003c 0BD8     		bhi	.L133
 1467              		.loc 1 477 52 discriminator 5 view .LVU374
 1468 003e F4EEC07A 		vcmpe.f32	s15, s0
 1469 0042 F1EE10FA 		vmrs	APSR_nzcv, FPSCR
 1470 0046 08D9     		bls	.L127
 1471              		.loc 1 477 37 view .LVU375
 1472 0048 0020     		movs	r0, #0
 1473              	.LVL135:
 1474              		.loc 1 477 37 view .LVU376
 1475 004a 00E0     		b	.L120
 1476              	.LVL136:
 1477              	.L131:
 1478              		.loc 1 477 37 view .LVU377
 1479 004c 0020     		movs	r0, #0
 1480              	.LVL137:
 1481              	.L120:
 478:Src/draw.c    **** }
 1482              		.loc 1 478 1 discriminator 10 view .LVU378
 1483 004e 02B0     		add	sp, sp, #8
 1484              	.LCFI16:
 1485              		.cfi_remember_state
 1486              		.cfi_def_cfa_offset 0
 1487              		@ sp needed
 1488 0050 7047     		bx	lr
 1489              	.LVL138:
 1490              	.L132:
 1491              	.LCFI17:
 1492              		.cfi_restore_state
 477:Src/draw.c    ****   return ((x >= -perc && x <= perc) && (y >= -perc && y <= perc));
 1493              		.loc 1 477 37 view .LVU379
 1494 0052 0020     		movs	r0, #0
 1495              	.LVL139:
 477:Src/draw.c    ****   return ((x >= -perc && x <= perc) && (y >= -perc && y <= perc));
 1496              		.loc 1 477 37 view .LVU380
 1497 0054 FBE7     		b	.L120
 1498              	.LVL140:
 1499              	.L133:
 477:Src/draw.c    ****   return ((x >= -perc && x <= perc) && (y >= -perc && y <= perc));
 1500              		.loc 1 477 37 view .LVU381
 1501 0056 0020     		movs	r0, #0
 1502              	.LVL141:
 477:Src/draw.c    ****   return ((x >= -perc && x <= perc) && (y >= -perc && y <= perc));
 1503              		.loc 1 477 37 view .LVU382
 1504 0058 F9E7     		b	.L120
ARM GAS  /var/folders/hv/f19l0kw128sbpybv1h43gz3c0000gn/T//cc0cLUco.s 			page 39


 1505              	.LVL142:
 1506              	.L127:
 477:Src/draw.c    ****   return ((x >= -perc && x <= perc) && (y >= -perc && y <= perc));
 1507              		.loc 1 477 37 view .LVU383
 1508 005a 0120     		movs	r0, #1
 1509              	.LVL143:
 477:Src/draw.c    ****   return ((x >= -perc && x <= perc) && (y >= -perc && y <= perc));
 1510              		.loc 1 477 37 view .LVU384
 1511 005c F7E7     		b	.L120
 1512              	.L136:
 1513 005e 00BF     		.align	2
 1514              	.L135:
 1515 0060 0000B441 		.word	1102315520
 1516              		.cfi_endproc
 1517              	.LFE11:
 1519              		.global	__aeabi_i2d
 1520              		.global	__aeabi_dmul
 1521              		.global	__aeabi_f2d
 1522              		.global	__aeabi_dadd
 1523              		.global	__aeabi_d2f
 1524              		.global	__aeabi_dcmplt
 1525              		.section	.text.triangle,"ax",%progbits
 1526              		.align	1
 1527              		.global	triangle
 1528              		.syntax unified
 1529              		.thumb
 1530              		.thumb_func
 1531              		.fpu fpv4-sp-d16
 1533              	triangle:
 1534              	.LVL144:
 1535              	.LFB12:
 479:Src/draw.c    **** 
 480:Src/draw.c    **** uint8_t triangle(int8_t x, int8_t y, float layer)
 481:Src/draw.c    **** {
 1536              		.loc 1 481 1 is_stmt 1 view -0
 1537              		.cfi_startproc
 1538              		@ args = 0, pretend = 0, frame = 0
 1539              		@ frame_needed = 0, uses_anonymous_args = 0
 1540              		.loc 1 481 1 is_stmt 0 view .LVU386
 1541 0000 2DE9F843 		push	{r3, r4, r5, r6, r7, r8, r9, lr}
 1542              	.LCFI18:
 1543              		.cfi_def_cfa_offset 32
 1544              		.cfi_offset 3, -32
 1545              		.cfi_offset 4, -28
 1546              		.cfi_offset 5, -24
 1547              		.cfi_offset 6, -20
 1548              		.cfi_offset 7, -16
 1549              		.cfi_offset 8, -12
 1550              		.cfi_offset 9, -8
 1551              		.cfi_offset 14, -4
 1552 0004 2DED028B 		vpush.64	{d8}
 1553              	.LCFI19:
 1554              		.cfi_def_cfa_offset 40
 1555              		.cfi_offset 80, -40
 1556              		.cfi_offset 81, -36
 1557 0008 08EE100A 		vmov	s16, r0	@ int
 482:Src/draw.c    ****   float z = ((float)NCOLS / 2);
ARM GAS  /var/folders/hv/f19l0kw128sbpybv1h43gz3c0000gn/T//cc0cLUco.s 			page 40


 1558              		.loc 1 482 3 is_stmt 1 view .LVU387
 1559              	.LVL145:
 483:Src/draw.c    ****   float perc = layer * z;
 1560              		.loc 1 483 3 view .LVU388
 1561              		.loc 1 483 9 is_stmt 0 view .LVU389
 1562 000c DFED2A8A 		vldr.32	s17, .L149+24
 1563 0010 60EE288A 		vmul.f32	s17, s0, s17
 1564              	.LVL146:
 484:Src/draw.c    ****   float offset = z / 7;
 1565              		.loc 1 484 3 is_stmt 1 view .LVU390
 485:Src/draw.c    ****   float m = y * 0.7 + perc;
 1566              		.loc 1 485 3 view .LVU391
 1567              		.loc 1 485 15 is_stmt 0 view .LVU392
 1568 0014 0846     		mov	r0, r1
 1569              	.LVL147:
 1570              		.loc 1 485 15 view .LVU393
 1571 0016 FFF7FEFF 		bl	__aeabi_i2d
 1572              	.LVL148:
 1573              		.loc 1 485 15 view .LVU394
 1574 001a 8046     		mov	r8, r0
 1575 001c 8946     		mov	r9, r1
 1576 001e 20A3     		adr	r3, .L149
 1577 0020 D3E90023 		ldrd	r2, [r3]
 1578 0024 FFF7FEFF 		bl	__aeabi_dmul
 1579              	.LVL149:
 1580 0028 0646     		mov	r6, r0
 1581 002a 0F46     		mov	r7, r1
 1582              		.loc 1 485 21 view .LVU395
 1583 002c 18EE900A 		vmov	r0, s17
 1584 0030 FFF7FEFF 		bl	__aeabi_f2d
 1585              	.LVL150:
 1586 0034 0446     		mov	r4, r0
 1587 0036 0D46     		mov	r5, r1
 1588 0038 0246     		mov	r2, r0
 1589 003a 0B46     		mov	r3, r1
 1590 003c 3046     		mov	r0, r6
 1591 003e 3946     		mov	r1, r7
 1592 0040 FFF7FEFF 		bl	__aeabi_dadd
 1593              	.LVL151:
 1594              		.loc 1 485 9 view .LVU396
 1595 0044 FFF7FEFF 		bl	__aeabi_d2f
 1596              	.LVL152:
 1597 0048 07EE100A 		vmov	s14, r0
 1598              	.LVL153:
 486:Src/draw.c    ****   return ((x > -m) && (x < m)) && (y < perc * 0.9 + offset);
 1599              		.loc 1 486 3 is_stmt 1 view .LVU397
 1600              		.loc 1 486 14 is_stmt 0 view .LVU398
 1601 004c F8EEC87A 		vcvt.f32.s32	s15, s16
 1602              		.loc 1 486 16 view .LVU399
 1603 0050 F1EE476A 		vneg.f32	s13, s14
 1604              		.loc 1 486 32 view .LVU400
 1605 0054 F4EEE67A 		vcmpe.f32	s15, s13
 1606 0058 F1EE10FA 		vmrs	APSR_nzcv, FPSCR
 1607 005c 19DD     		ble	.L146
 1608              		.loc 1 486 20 discriminator 1 view .LVU401
 1609 005e F4EEC77A 		vcmpe.f32	s15, s14
 1610 0062 F1EE10FA 		vmrs	APSR_nzcv, FPSCR
ARM GAS  /var/folders/hv/f19l0kw128sbpybv1h43gz3c0000gn/T//cc0cLUco.s 			page 41


 1611 0066 19D5     		bpl	.L147
 1612              		.loc 1 486 45 discriminator 3 view .LVU402
 1613 0068 0FA3     		adr	r3, .L149+8
 1614 006a D3E90023 		ldrd	r2, [r3]
 1615 006e 2046     		mov	r0, r4
 1616              	.LVL154:
 1617              		.loc 1 486 45 discriminator 3 view .LVU403
 1618 0070 2946     		mov	r1, r5
 1619 0072 FFF7FEFF 		bl	__aeabi_dmul
 1620              	.LVL155:
 1621              		.loc 1 486 51 discriminator 3 view .LVU404
 1622 0076 0EA3     		adr	r3, .L149+16
 1623 0078 D3E90023 		ldrd	r2, [r3]
 1624 007c FFF7FEFF 		bl	__aeabi_dadd
 1625              	.LVL156:
 1626              		.loc 1 486 32 discriminator 3 view .LVU405
 1627 0080 0246     		mov	r2, r0
 1628 0082 0B46     		mov	r3, r1
 1629 0084 4046     		mov	r0, r8
 1630 0086 4946     		mov	r1, r9
 1631 0088 FFF7FEFF 		bl	__aeabi_dcmplt
 1632              	.LVL157:
 1633 008c 10B1     		cbz	r0, .L138
 1634              		.loc 1 486 32 view .LVU406
 1635 008e 0120     		movs	r0, #1
 1636 0090 00E0     		b	.L138
 1637              	.LVL158:
 1638              	.L146:
 1639              		.loc 1 486 32 view .LVU407
 1640 0092 0020     		movs	r0, #0
 1641              	.LVL159:
 1642              	.L138:
 487:Src/draw.c    **** }
 1643              		.loc 1 487 1 discriminator 8 view .LVU408
 1644 0094 BDEC028B 		vldm	sp!, {d8}
 1645              	.LCFI20:
 1646              		.cfi_remember_state
 1647              		.cfi_restore 80
 1648              		.cfi_restore 81
 1649              		.cfi_def_cfa_offset 32
 1650 0098 BDE8F883 		pop	{r3, r4, r5, r6, r7, r8, r9, pc}
 1651              	.LVL160:
 1652              	.L147:
 1653              	.LCFI21:
 1654              		.cfi_restore_state
 486:Src/draw.c    ****   return ((x > -m) && (x < m)) && (y < perc * 0.9 + offset);
 1655              		.loc 1 486 32 view .LVU409
 1656 009c 0020     		movs	r0, #0
 1657              	.LVL161:
 486:Src/draw.c    ****   return ((x > -m) && (x < m)) && (y < perc * 0.9 + offset);
 1658              		.loc 1 486 32 view .LVU410
 1659 009e F9E7     		b	.L138
 1660              	.L150:
 1661              		.align	3
 1662              	.L149:
 1663 00a0 66666666 		.word	1717986918
 1664 00a4 6666E63F 		.word	1072064102
ARM GAS  /var/folders/hv/f19l0kw128sbpybv1h43gz3c0000gn/T//cc0cLUco.s 			page 42


 1665 00a8 CDCCCCCC 		.word	3435973837
 1666 00ac CCCCEC3F 		.word	1072483532
 1667 00b0 00000060 		.word	1610612736
 1668 00b4 DBB60940 		.word	1074378459
 1669 00b8 0000B441 		.word	1102315520
 1670              		.cfi_endproc
 1671              	.LFE12:
 1673              		.section	.text.cross,"ax",%progbits
 1674              		.align	1
 1675              		.global	cross
 1676              		.syntax unified
 1677              		.thumb
 1678              		.thumb_func
 1679              		.fpu fpv4-sp-d16
 1681              	cross:
 1682              	.LVL162:
 1683              	.LFB13:
 488:Src/draw.c    **** 
 489:Src/draw.c    **** uint8_t cross(int8_t x, int8_t y, float layer)
 490:Src/draw.c    **** {
 1684              		.loc 1 490 1 is_stmt 1 view -0
 1685              		.cfi_startproc
 1686              		@ args = 0, pretend = 0, frame = 8
 1687              		@ frame_needed = 0, uses_anonymous_args = 0
 1688              		@ link register save eliminated.
 1689              		.loc 1 490 1 is_stmt 0 view .LVU412
 1690 0000 82B0     		sub	sp, sp, #8
 1691              	.LCFI22:
 1692              		.cfi_def_cfa_offset 8
 1693 0002 0191     		str	r1, [sp, #4]
 491:Src/draw.c    ****   float z = ((float)NCOLS / 2);
 1694              		.loc 1 491 3 is_stmt 1 view .LVU413
 1695              	.LVL163:
 492:Src/draw.c    ****   float perc = z - layer * z;
 1696              		.loc 1 492 3 view .LVU414
 1697              		.loc 1 492 26 is_stmt 0 view .LVU415
 1698 0004 DFED167A 		vldr.32	s15, .L160
 1699 0008 20EE270A 		vmul.f32	s0, s0, s15
 1700              	.LVL164:
 1701              		.loc 1 492 9 view .LVU416
 1702 000c 77EEC07A 		vsub.f32	s15, s15, s0
 1703              	.LVL165:
 493:Src/draw.c    ****   return ((x <= -perc || x >= perc) && (y <= -perc || y >= perc));
 1704              		.loc 1 493 3 is_stmt 1 view .LVU417
 1705              		.loc 1 493 14 is_stmt 0 view .LVU418
 1706 0010 07EE100A 		vmov	s14, r0	@ int
 1707 0014 B8EEC77A 		vcvt.f32.s32	s14, s14
 1708              		.loc 1 493 17 view .LVU419
 1709 0018 F1EE676A 		vneg.f32	s13, s15
 1710              		.loc 1 493 37 view .LVU420
 1711 001c B4EEE67A 		vcmpe.f32	s14, s13
 1712 0020 F1EE10FA 		vmrs	APSR_nzcv, FPSCR
 1713 0024 04D9     		bls	.L152
 1714              		.loc 1 493 23 discriminator 2 view .LVU421
 1715 0026 B4EEE77A 		vcmpe.f32	s14, s15
 1716 002a F1EE10FA 		vmrs	APSR_nzcv, FPSCR
 1717 002e 0FDB     		blt	.L158
ARM GAS  /var/folders/hv/f19l0kw128sbpybv1h43gz3c0000gn/T//cc0cLUco.s 			page 43


 1718              	.L152:
 1719              		.loc 1 493 43 discriminator 3 view .LVU422
 1720 0030 9DED017A 		vldr.32	s14, [sp, #4]	@ int
 1721 0034 B8EEC77A 		vcvt.f32.s32	s14, s14
 1722              		.loc 1 493 37 discriminator 3 view .LVU423
 1723 0038 F4EEC76A 		vcmpe.f32	s13, s14
 1724 003c F1EE10FA 		vmrs	APSR_nzcv, FPSCR
 1725 0040 08DA     		bge	.L156
 1726              		.loc 1 493 52 discriminator 6 view .LVU424
 1727 0042 B4EEE77A 		vcmpe.f32	s14, s15
 1728 0046 F1EE10FA 		vmrs	APSR_nzcv, FPSCR
 1729 004a 06DA     		bge	.L157
 1730              		.loc 1 493 37 view .LVU425
 1731 004c 0020     		movs	r0, #0
 1732              	.LVL166:
 1733              		.loc 1 493 37 view .LVU426
 1734 004e 02E0     		b	.L153
 1735              	.LVL167:
 1736              	.L158:
 1737              		.loc 1 493 37 view .LVU427
 1738 0050 0020     		movs	r0, #0
 1739              	.LVL168:
 1740              		.loc 1 493 37 view .LVU428
 1741 0052 00E0     		b	.L153
 1742              	.LVL169:
 1743              	.L156:
 1744              		.loc 1 493 37 view .LVU429
 1745 0054 0120     		movs	r0, #1
 1746              	.LVL170:
 1747              	.L153:
 494:Src/draw.c    **** }
 1748              		.loc 1 494 1 discriminator 10 view .LVU430
 1749 0056 02B0     		add	sp, sp, #8
 1750              	.LCFI23:
 1751              		.cfi_remember_state
 1752              		.cfi_def_cfa_offset 0
 1753              		@ sp needed
 1754 0058 7047     		bx	lr
 1755              	.LVL171:
 1756              	.L157:
 1757              	.LCFI24:
 1758              		.cfi_restore_state
 493:Src/draw.c    ****   return ((x <= -perc || x >= perc) && (y <= -perc || y >= perc));
 1759              		.loc 1 493 37 view .LVU431
 1760 005a 0120     		movs	r0, #1
 1761              	.LVL172:
 493:Src/draw.c    ****   return ((x <= -perc || x >= perc) && (y <= -perc || y >= perc));
 1762              		.loc 1 493 37 view .LVU432
 1763 005c FBE7     		b	.L153
 1764              	.L161:
 1765 005e 00BF     		.align	2
 1766              	.L160:
 1767 0060 0000B441 		.word	1102315520
 1768              		.cfi_endproc
 1769              	.LFE13:
 1771              		.section	.text.horizontal,"ax",%progbits
 1772              		.align	1
ARM GAS  /var/folders/hv/f19l0kw128sbpybv1h43gz3c0000gn/T//cc0cLUco.s 			page 44


 1773              		.global	horizontal
 1774              		.syntax unified
 1775              		.thumb
 1776              		.thumb_func
 1777              		.fpu fpv4-sp-d16
 1779              	horizontal:
 1780              	.LVL173:
 1781              	.LFB14:
 495:Src/draw.c    **** 
 496:Src/draw.c    **** uint8_t horizontal(int8_t x, int8_t y, float layer)
 497:Src/draw.c    **** {
 1782              		.loc 1 497 1 is_stmt 1 view -0
 1783              		.cfi_startproc
 1784              		@ args = 0, pretend = 0, frame = 8
 1785              		@ frame_needed = 0, uses_anonymous_args = 0
 1786              		@ link register save eliminated.
 1787              		.loc 1 497 1 is_stmt 0 view .LVU434
 1788 0000 82B0     		sub	sp, sp, #8
 1789              	.LCFI25:
 1790              		.cfi_def_cfa_offset 8
 1791 0002 0191     		str	r1, [sp, #4]
 498:Src/draw.c    ****   float z = ((float)NCOLS / 2);
 1792              		.loc 1 498 3 is_stmt 1 view .LVU435
 1793              	.LVL174:
 499:Src/draw.c    ****   float perc = z - layer * z;
 1794              		.loc 1 499 3 view .LVU436
 1795              		.loc 1 499 26 is_stmt 0 view .LVU437
 1796 0004 DFED167A 		vldr.32	s15, .L171
 1797 0008 20EE270A 		vmul.f32	s0, s0, s15
 1798              	.LVL175:
 1799              		.loc 1 499 9 view .LVU438
 1800 000c 77EEC07A 		vsub.f32	s15, s15, s0
 1801              	.LVL176:
 500:Src/draw.c    ****   return ((x >= -perc || x <= perc) && (y <= -perc || y >= perc));
 1802              		.loc 1 500 3 is_stmt 1 view .LVU439
 1803              		.loc 1 500 14 is_stmt 0 view .LVU440
 1804 0010 07EE100A 		vmov	s14, r0	@ int
 1805 0014 B8EEC77A 		vcvt.f32.s32	s14, s14
 1806              		.loc 1 500 17 view .LVU441
 1807 0018 F1EE676A 		vneg.f32	s13, s15
 1808              		.loc 1 500 37 view .LVU442
 1809 001c B4EEE67A 		vcmpe.f32	s14, s13
 1810 0020 F1EE10FA 		vmrs	APSR_nzcv, FPSCR
 1811 0024 04DA     		bge	.L163
 1812              		.loc 1 500 23 discriminator 2 view .LVU443
 1813 0026 B4EEE77A 		vcmpe.f32	s14, s15
 1814 002a F1EE10FA 		vmrs	APSR_nzcv, FPSCR
 1815 002e 0FD8     		bhi	.L169
 1816              	.L163:
 1817              		.loc 1 500 43 discriminator 3 view .LVU444
 1818 0030 9DED017A 		vldr.32	s14, [sp, #4]	@ int
 1819 0034 B8EEC77A 		vcvt.f32.s32	s14, s14
 1820              		.loc 1 500 37 discriminator 3 view .LVU445
 1821 0038 F4EEC76A 		vcmpe.f32	s13, s14
 1822 003c F1EE10FA 		vmrs	APSR_nzcv, FPSCR
 1823 0040 08DA     		bge	.L167
 1824              		.loc 1 500 52 discriminator 6 view .LVU446
ARM GAS  /var/folders/hv/f19l0kw128sbpybv1h43gz3c0000gn/T//cc0cLUco.s 			page 45


 1825 0042 B4EEE77A 		vcmpe.f32	s14, s15
 1826 0046 F1EE10FA 		vmrs	APSR_nzcv, FPSCR
 1827 004a 06DA     		bge	.L168
 1828              		.loc 1 500 37 view .LVU447
 1829 004c 0020     		movs	r0, #0
 1830              	.LVL177:
 1831              		.loc 1 500 37 view .LVU448
 1832 004e 02E0     		b	.L164
 1833              	.LVL178:
 1834              	.L169:
 1835              		.loc 1 500 37 view .LVU449
 1836 0050 0020     		movs	r0, #0
 1837              	.LVL179:
 1838              		.loc 1 500 37 view .LVU450
 1839 0052 00E0     		b	.L164
 1840              	.LVL180:
 1841              	.L167:
 1842              		.loc 1 500 37 view .LVU451
 1843 0054 0120     		movs	r0, #1
 1844              	.LVL181:
 1845              	.L164:
 501:Src/draw.c    **** }
 1846              		.loc 1 501 1 discriminator 10 view .LVU452
 1847 0056 02B0     		add	sp, sp, #8
 1848              	.LCFI26:
 1849              		.cfi_remember_state
 1850              		.cfi_def_cfa_offset 0
 1851              		@ sp needed
 1852 0058 7047     		bx	lr
 1853              	.LVL182:
 1854              	.L168:
 1855              	.LCFI27:
 1856              		.cfi_restore_state
 500:Src/draw.c    ****   return ((x >= -perc || x <= perc) && (y <= -perc || y >= perc));
 1857              		.loc 1 500 37 view .LVU453
 1858 005a 0120     		movs	r0, #1
 1859              	.LVL183:
 500:Src/draw.c    ****   return ((x >= -perc || x <= perc) && (y <= -perc || y >= perc));
 1860              		.loc 1 500 37 view .LVU454
 1861 005c FBE7     		b	.L164
 1862              	.L172:
 1863 005e 00BF     		.align	2
 1864              	.L171:
 1865 0060 0000B441 		.word	1102315520
 1866              		.cfi_endproc
 1867              	.LFE14:
 1869              		.section	.text.vertical,"ax",%progbits
 1870              		.align	1
 1871              		.global	vertical
 1872              		.syntax unified
 1873              		.thumb
 1874              		.thumb_func
 1875              		.fpu fpv4-sp-d16
 1877              	vertical:
 1878              	.LVL184:
 1879              	.LFB15:
 502:Src/draw.c    **** 
ARM GAS  /var/folders/hv/f19l0kw128sbpybv1h43gz3c0000gn/T//cc0cLUco.s 			page 46


 503:Src/draw.c    **** uint8_t vertical(int8_t x, int8_t y, float layer)
 504:Src/draw.c    **** {
 1880              		.loc 1 504 1 is_stmt 1 view -0
 1881              		.cfi_startproc
 1882              		@ args = 0, pretend = 0, frame = 8
 1883              		@ frame_needed = 0, uses_anonymous_args = 0
 1884              		@ link register save eliminated.
 1885              		.loc 1 504 1 is_stmt 0 view .LVU456
 1886 0000 82B0     		sub	sp, sp, #8
 1887              	.LCFI28:
 1888              		.cfi_def_cfa_offset 8
 1889 0002 0191     		str	r1, [sp, #4]
 505:Src/draw.c    ****   float z = ((float)NCOLS / 2);
 1890              		.loc 1 505 3 is_stmt 1 view .LVU457
 1891              	.LVL185:
 506:Src/draw.c    ****   float perc = z - layer * z;
 1892              		.loc 1 506 3 view .LVU458
 1893              		.loc 1 506 26 is_stmt 0 view .LVU459
 1894 0004 DFED167A 		vldr.32	s15, .L182
 1895 0008 20EE270A 		vmul.f32	s0, s0, s15
 1896              	.LVL186:
 1897              		.loc 1 506 9 view .LVU460
 1898 000c 77EEC07A 		vsub.f32	s15, s15, s0
 1899              	.LVL187:
 507:Src/draw.c    ****   return ((x <= -perc || x >= perc) && (y >= -perc || y <= perc));
 1900              		.loc 1 507 3 is_stmt 1 view .LVU461
 1901              		.loc 1 507 14 is_stmt 0 view .LVU462
 1902 0010 07EE100A 		vmov	s14, r0	@ int
 1903 0014 B8EEC77A 		vcvt.f32.s32	s14, s14
 1904              		.loc 1 507 17 view .LVU463
 1905 0018 F1EE676A 		vneg.f32	s13, s15
 1906              		.loc 1 507 37 view .LVU464
 1907 001c B4EEE67A 		vcmpe.f32	s14, s13
 1908 0020 F1EE10FA 		vmrs	APSR_nzcv, FPSCR
 1909 0024 04D9     		bls	.L174
 1910              		.loc 1 507 23 discriminator 2 view .LVU465
 1911 0026 B4EEE77A 		vcmpe.f32	s14, s15
 1912 002a F1EE10FA 		vmrs	APSR_nzcv, FPSCR
 1913 002e 0FDB     		blt	.L180
 1914              	.L174:
 1915              		.loc 1 507 43 discriminator 3 view .LVU466
 1916 0030 9DED017A 		vldr.32	s14, [sp, #4]	@ int
 1917 0034 B8EEC77A 		vcvt.f32.s32	s14, s14
 1918              		.loc 1 507 37 discriminator 3 view .LVU467
 1919 0038 F4EEC76A 		vcmpe.f32	s13, s14
 1920 003c F1EE10FA 		vmrs	APSR_nzcv, FPSCR
 1921 0040 08D9     		bls	.L178
 1922              		.loc 1 507 52 discriminator 6 view .LVU468
 1923 0042 B4EEE77A 		vcmpe.f32	s14, s15
 1924 0046 F1EE10FA 		vmrs	APSR_nzcv, FPSCR
 1925 004a 06D9     		bls	.L179
 1926              		.loc 1 507 37 view .LVU469
 1927 004c 0020     		movs	r0, #0
 1928              	.LVL188:
 1929              		.loc 1 507 37 view .LVU470
 1930 004e 02E0     		b	.L175
 1931              	.LVL189:
ARM GAS  /var/folders/hv/f19l0kw128sbpybv1h43gz3c0000gn/T//cc0cLUco.s 			page 47


 1932              	.L180:
 1933              		.loc 1 507 37 view .LVU471
 1934 0050 0020     		movs	r0, #0
 1935              	.LVL190:
 1936              		.loc 1 507 37 view .LVU472
 1937 0052 00E0     		b	.L175
 1938              	.LVL191:
 1939              	.L178:
 1940              		.loc 1 507 37 view .LVU473
 1941 0054 0120     		movs	r0, #1
 1942              	.LVL192:
 1943              	.L175:
 508:Src/draw.c    **** }
 1944              		.loc 1 508 1 discriminator 10 view .LVU474
 1945 0056 02B0     		add	sp, sp, #8
 1946              	.LCFI29:
 1947              		.cfi_remember_state
 1948              		.cfi_def_cfa_offset 0
 1949              		@ sp needed
 1950 0058 7047     		bx	lr
 1951              	.LVL193:
 1952              	.L179:
 1953              	.LCFI30:
 1954              		.cfi_restore_state
 507:Src/draw.c    ****   return ((x <= -perc || x >= perc) && (y >= -perc || y <= perc));
 1955              		.loc 1 507 37 view .LVU475
 1956 005a 0120     		movs	r0, #1
 1957              	.LVL194:
 507:Src/draw.c    ****   return ((x <= -perc || x >= perc) && (y >= -perc || y <= perc));
 1958              		.loc 1 507 37 view .LVU476
 1959 005c FBE7     		b	.L175
 1960              	.L183:
 1961 005e 00BF     		.align	2
 1962              	.L182:
 1963 0060 0000B441 		.word	1102315520
 1964              		.cfi_endproc
 1965              	.LFE15:
 1967              		.section	.text.drawLine,"ax",%progbits
 1968              		.align	1
 1969              		.global	drawLine
 1970              		.syntax unified
 1971              		.thumb
 1972              		.thumb_func
 1973              		.fpu fpv4-sp-d16
 1975              	drawLine:
 1976              	.LVL195:
 1977              	.LFB16:
 509:Src/draw.c    **** 
 510:Src/draw.c    **** void drawLine(uint8_t px, uint8_t py, uint8_t *color)
 511:Src/draw.c    **** {
 1978              		.loc 1 511 1 is_stmt 1 view -0
 1979              		.cfi_startproc
 1980              		@ args = 0, pretend = 0, frame = 0
 1981              		@ frame_needed = 0, uses_anonymous_args = 0
 1982              		.loc 1 511 1 is_stmt 0 view .LVU478
 1983 0000 2DE9F041 		push	{r4, r5, r6, r7, r8, lr}
 1984              	.LCFI31:
ARM GAS  /var/folders/hv/f19l0kw128sbpybv1h43gz3c0000gn/T//cc0cLUco.s 			page 48


 1985              		.cfi_def_cfa_offset 24
 1986              		.cfi_offset 4, -24
 1987              		.cfi_offset 5, -20
 1988              		.cfi_offset 6, -16
 1989              		.cfi_offset 7, -12
 1990              		.cfi_offset 8, -8
 1991              		.cfi_offset 14, -4
 1992 0004 0646     		mov	r6, r0
 1993 0006 0F46     		mov	r7, r1
 1994 0008 9046     		mov	r8, r2
 512:Src/draw.c    ****   for (int y = 0; y <= NCOLS; y++)
 1995              		.loc 1 512 3 is_stmt 1 view .LVU479
 1996              	.LBB63:
 1997              		.loc 1 512 8 view .LVU480
 1998              	.LVL196:
 1999              		.loc 1 512 12 is_stmt 0 view .LVU481
 2000 000a 0025     		movs	r5, #0
 2001              		.loc 1 512 3 view .LVU482
 2002 000c 14E0     		b	.L185
 2003              	.LVL197:
 2004              	.L186:
 2005              	.LBB64:
 513:Src/draw.c    ****   {
 514:Src/draw.c    ****     for (int x = 0; x <= NCOLS; x++)
 515:Src/draw.c    ****     {
 516:Src/draw.c    ****       if (x == px || y == py)
 517:Src/draw.c    ****       {
 518:Src/draw.c    ****         setColor(backLayer[x + (y * NCOLS)], color);
 2006              		.loc 1 518 9 is_stmt 1 view .LVU483
 2007              		.loc 1 518 35 is_stmt 0 view .LVU484
 2008 000e 05EB4500 		add	r0, r5, r5, lsl #1
 2009 0012 C0EB0010 		rsb	r0, r0, r0, lsl #4
 2010              		.loc 1 518 30 view .LVU485
 2011 0016 2044     		add	r0, r0, r4
 2012              		.loc 1 518 27 view .LVU486
 2013 0018 00EB4000 		add	r0, r0, r0, lsl #1
 2014              		.loc 1 518 9 view .LVU487
 2015 001c 4146     		mov	r1, r8
 2016 001e 094B     		ldr	r3, .L194
 2017 0020 1844     		add	r0, r0, r3
 2018 0022 FFF7FEFF 		bl	setColor
 2019              	.LVL198:
 2020              	.L187:
 514:Src/draw.c    ****     {
 2021              		.loc 1 514 34 discriminator 2 view .LVU488
 2022 0026 0134     		adds	r4, r4, #1
 2023              	.LVL199:
 2024              	.L189:
 514:Src/draw.c    ****     {
 2025              		.loc 1 514 5 discriminator 1 view .LVU489
 2026 0028 2D2C     		cmp	r4, #45
 2027 002a 04DC     		bgt	.L192
 516:Src/draw.c    ****       {
 2028              		.loc 1 516 7 is_stmt 1 view .LVU490
 516:Src/draw.c    ****       {
 2029              		.loc 1 516 10 is_stmt 0 view .LVU491
 2030 002c A642     		cmp	r6, r4
ARM GAS  /var/folders/hv/f19l0kw128sbpybv1h43gz3c0000gn/T//cc0cLUco.s 			page 49


 2031 002e EED0     		beq	.L186
 516:Src/draw.c    ****       {
 2032              		.loc 1 516 19 discriminator 1 view .LVU492
 2033 0030 AF42     		cmp	r7, r5
 2034 0032 F8D1     		bne	.L187
 516:Src/draw.c    ****       {
 2035              		.loc 1 516 19 discriminator 1 view .LVU493
 2036 0034 EBE7     		b	.L186
 2037              	.L192:
 516:Src/draw.c    ****       {
 2038              		.loc 1 516 19 discriminator 1 view .LVU494
 2039              	.LBE64:
 512:Src/draw.c    ****   {
 2040              		.loc 1 512 32 discriminator 2 view .LVU495
 2041 0036 0135     		adds	r5, r5, #1
 2042              	.LVL200:
 2043              	.L185:
 512:Src/draw.c    ****   {
 2044              		.loc 1 512 3 discriminator 1 view .LVU496
 2045 0038 2D2D     		cmp	r5, #45
 2046 003a 01DC     		bgt	.L193
 2047              	.LBB65:
 514:Src/draw.c    ****     {
 2048              		.loc 1 514 14 view .LVU497
 2049 003c 0024     		movs	r4, #0
 2050 003e F3E7     		b	.L189
 2051              	.L193:
 2052              	.LBE65:
 2053              	.LBE63:
 519:Src/draw.c    ****       }
 520:Src/draw.c    ****     }
 521:Src/draw.c    ****   }
 522:Src/draw.c    **** }
 2054              		.loc 1 522 1 view .LVU498
 2055 0040 BDE8F081 		pop	{r4, r5, r6, r7, r8, pc}
 2056              	.LVL201:
 2057              	.L195:
 2058              		.loc 1 522 1 view .LVU499
 2059              		.align	2
 2060              	.L194:
 2061 0044 00000000 		.word	backLayer
 2062              		.cfi_endproc
 2063              	.LFE16:
 2065              		.section	.text.drawPixel,"ax",%progbits
 2066              		.align	1
 2067              		.global	drawPixel
 2068              		.syntax unified
 2069              		.thumb
 2070              		.thumb_func
 2071              		.fpu fpv4-sp-d16
 2073              	drawPixel:
 2074              	.LVL202:
 2075              	.LFB17:
 523:Src/draw.c    **** 
 524:Src/draw.c    **** void drawPixel(uint8_t px, uint8_t py, uint8_t *color)
 525:Src/draw.c    **** {
 2076              		.loc 1 525 1 is_stmt 1 view -0
ARM GAS  /var/folders/hv/f19l0kw128sbpybv1h43gz3c0000gn/T//cc0cLUco.s 			page 50


 2077              		.cfi_startproc
 2078              		@ args = 0, pretend = 0, frame = 0
 2079              		@ frame_needed = 0, uses_anonymous_args = 0
 2080              		.loc 1 525 1 is_stmt 0 view .LVU501
 2081 0000 2DE9F041 		push	{r4, r5, r6, r7, r8, lr}
 2082              	.LCFI32:
 2083              		.cfi_def_cfa_offset 24
 2084              		.cfi_offset 4, -24
 2085              		.cfi_offset 5, -20
 2086              		.cfi_offset 6, -16
 2087              		.cfi_offset 7, -12
 2088              		.cfi_offset 8, -8
 2089              		.cfi_offset 14, -4
 2090 0004 0546     		mov	r5, r0
 2091 0006 0F46     		mov	r7, r1
 2092 0008 9046     		mov	r8, r2
 526:Src/draw.c    ****   for (int y = 0; y <= NCOLS; y++)
 2093              		.loc 1 526 3 is_stmt 1 view .LVU502
 2094              	.LBB66:
 2095              		.loc 1 526 8 view .LVU503
 2096              	.LVL203:
 2097              		.loc 1 526 12 is_stmt 0 view .LVU504
 2098 000a 0026     		movs	r6, #0
 2099              		.loc 1 526 3 view .LVU505
 2100 000c 14E0     		b	.L197
 2101              	.LVL204:
 2102              	.L198:
 2103              	.LBB67:
 527:Src/draw.c    ****   {
 528:Src/draw.c    ****     for (int x = 0; x <= NCOLS; x++)
 2104              		.loc 1 528 34 discriminator 2 view .LVU506
 2105 000e 0134     		adds	r4, r4, #1
 2106              	.LVL205:
 2107              	.L200:
 2108              		.loc 1 528 5 discriminator 1 view .LVU507
 2109 0010 2D2C     		cmp	r4, #45
 2110 0012 10DC     		bgt	.L203
 529:Src/draw.c    ****     {
 530:Src/draw.c    ****       if (x == px && y == py)
 2111              		.loc 1 530 7 is_stmt 1 view .LVU508
 2112              		.loc 1 530 10 is_stmt 0 view .LVU509
 2113 0014 A542     		cmp	r5, r4
 2114 0016 FAD1     		bne	.L198
 2115              		.loc 1 530 19 discriminator 1 view .LVU510
 2116 0018 B742     		cmp	r7, r6
 2117 001a F8D1     		bne	.L198
 531:Src/draw.c    ****       {
 532:Src/draw.c    ****         setColor(backLayer[x + (y * NCOLS)], color);
 2118              		.loc 1 532 9 is_stmt 1 view .LVU511
 2119              		.loc 1 532 35 is_stmt 0 view .LVU512
 2120 001c 06EB4600 		add	r0, r6, r6, lsl #1
 2121 0020 C0EB0010 		rsb	r0, r0, r0, lsl #4
 2122              		.loc 1 532 30 view .LVU513
 2123 0024 2044     		add	r0, r0, r4
 2124              		.loc 1 532 27 view .LVU514
 2125 0026 00EB4000 		add	r0, r0, r0, lsl #1
 2126              		.loc 1 532 9 view .LVU515
ARM GAS  /var/folders/hv/f19l0kw128sbpybv1h43gz3c0000gn/T//cc0cLUco.s 			page 51


 2127 002a 4146     		mov	r1, r8
 2128 002c 054B     		ldr	r3, .L205
 2129 002e 1844     		add	r0, r0, r3
 2130 0030 FFF7FEFF 		bl	setColor
 2131              	.LVL206:
 2132 0034 EBE7     		b	.L198
 2133              	.L203:
 2134              		.loc 1 532 9 view .LVU516
 2135              	.LBE67:
 526:Src/draw.c    ****   {
 2136              		.loc 1 526 32 discriminator 2 view .LVU517
 2137 0036 0136     		adds	r6, r6, #1
 2138              	.LVL207:
 2139              	.L197:
 526:Src/draw.c    ****   {
 2140              		.loc 1 526 3 discriminator 1 view .LVU518
 2141 0038 2D2E     		cmp	r6, #45
 2142 003a 01DC     		bgt	.L204
 2143              	.LBB68:
 528:Src/draw.c    ****     {
 2144              		.loc 1 528 14 view .LVU519
 2145 003c 0024     		movs	r4, #0
 2146 003e E7E7     		b	.L200
 2147              	.L204:
 2148              	.LBE68:
 2149              	.LBE66:
 533:Src/draw.c    ****       }
 534:Src/draw.c    ****     }
 535:Src/draw.c    ****   }
 536:Src/draw.c    **** }
 2150              		.loc 1 536 1 view .LVU520
 2151 0040 BDE8F081 		pop	{r4, r5, r6, r7, r8, pc}
 2152              	.LVL208:
 2153              	.L206:
 2154              		.loc 1 536 1 view .LVU521
 2155              		.align	2
 2156              	.L205:
 2157 0044 00000000 		.word	backLayer
 2158              		.cfi_endproc
 2159              	.LFE17:
 2161              		.section	.text.drawColor,"ax",%progbits
 2162              		.align	1
 2163              		.global	drawColor
 2164              		.syntax unified
 2165              		.thumb
 2166              		.thumb_func
 2167              		.fpu fpv4-sp-d16
 2169              	drawColor:
 2170              	.LVL209:
 2171              	.LFB18:
 537:Src/draw.c    **** 
 538:Src/draw.c    **** void drawColor(uint8_t *color)
 539:Src/draw.c    **** {
 2172              		.loc 1 539 1 is_stmt 1 view -0
 2173              		.cfi_startproc
 2174              		@ args = 0, pretend = 0, frame = 0
 2175              		@ frame_needed = 0, uses_anonymous_args = 0
ARM GAS  /var/folders/hv/f19l0kw128sbpybv1h43gz3c0000gn/T//cc0cLUco.s 			page 52


 2176              		.loc 1 539 1 is_stmt 0 view .LVU523
 2177 0000 70B5     		push	{r4, r5, r6, lr}
 2178              	.LCFI33:
 2179              		.cfi_def_cfa_offset 16
 2180              		.cfi_offset 4, -16
 2181              		.cfi_offset 5, -12
 2182              		.cfi_offset 6, -8
 2183              		.cfi_offset 14, -4
 2184 0002 0646     		mov	r6, r0
 540:Src/draw.c    ****   for (int y = 0; y <= NCOLS; y++)
 2185              		.loc 1 540 3 is_stmt 1 view .LVU524
 2186              	.LBB69:
 2187              		.loc 1 540 8 view .LVU525
 2188              	.LVL210:
 2189              		.loc 1 540 12 is_stmt 0 view .LVU526
 2190 0004 0025     		movs	r5, #0
 2191              		.loc 1 540 3 view .LVU527
 2192 0006 0FE0     		b	.L208
 2193              	.LVL211:
 2194              	.L209:
 2195              	.LBB70:
 541:Src/draw.c    ****   {
 542:Src/draw.c    ****     for (int x = 0; x <= NCOLS; x++)
 543:Src/draw.c    ****     {
 544:Src/draw.c    ****       setColor(backLayer[x + (y * NCOLS)], color);
 2196              		.loc 1 544 7 is_stmt 1 discriminator 3 view .LVU528
 2197              		.loc 1 544 33 is_stmt 0 discriminator 3 view .LVU529
 2198 0008 05EB4500 		add	r0, r5, r5, lsl #1
 2199 000c C0EB0010 		rsb	r0, r0, r0, lsl #4
 2200              		.loc 1 544 28 discriminator 3 view .LVU530
 2201 0010 2044     		add	r0, r0, r4
 2202              		.loc 1 544 25 discriminator 3 view .LVU531
 2203 0012 00EB4000 		add	r0, r0, r0, lsl #1
 2204              		.loc 1 544 7 discriminator 3 view .LVU532
 2205 0016 3146     		mov	r1, r6
 2206 0018 064B     		ldr	r3, .L214
 2207 001a 1844     		add	r0, r0, r3
 2208 001c FFF7FEFF 		bl	setColor
 2209              	.LVL212:
 542:Src/draw.c    ****     {
 2210              		.loc 1 542 34 discriminator 3 view .LVU533
 2211 0020 0134     		adds	r4, r4, #1
 2212              	.LVL213:
 2213              	.L210:
 542:Src/draw.c    ****     {
 2214              		.loc 1 542 5 discriminator 1 view .LVU534
 2215 0022 2D2C     		cmp	r4, #45
 2216 0024 F0DD     		ble	.L209
 2217              	.LBE70:
 540:Src/draw.c    ****   for (int y = 0; y <= NCOLS; y++)
 2218              		.loc 1 540 32 discriminator 2 view .LVU535
 2219 0026 0135     		adds	r5, r5, #1
 2220              	.LVL214:
 2221              	.L208:
 540:Src/draw.c    ****   for (int y = 0; y <= NCOLS; y++)
 2222              		.loc 1 540 3 discriminator 1 view .LVU536
 2223 0028 2D2D     		cmp	r5, #45
ARM GAS  /var/folders/hv/f19l0kw128sbpybv1h43gz3c0000gn/T//cc0cLUco.s 			page 53


 2224 002a 01DC     		bgt	.L213
 2225              	.LBB71:
 542:Src/draw.c    ****     {
 2226              		.loc 1 542 14 view .LVU537
 2227 002c 0024     		movs	r4, #0
 2228 002e F8E7     		b	.L210
 2229              	.L213:
 2230              	.LBE71:
 2231              	.LBE69:
 545:Src/draw.c    ****     }
 546:Src/draw.c    ****   }
 547:Src/draw.c    **** }
 2232              		.loc 1 547 1 view .LVU538
 2233 0030 70BD     		pop	{r4, r5, r6, pc}
 2234              	.LVL215:
 2235              	.L215:
 2236              		.loc 1 547 1 view .LVU539
 2237 0032 00BF     		.align	2
 2238              	.L214:
 2239 0034 00000000 		.word	backLayer
 2240              		.cfi_endproc
 2241              	.LFE18:
 2243              		.section	.text.getFontLine,"ax",%progbits
 2244              		.align	1
 2245              		.global	getFontLine
 2246              		.syntax unified
 2247              		.thumb
 2248              		.thumb_func
 2249              		.fpu fpv4-sp-d16
 2251              	getFontLine:
 2252              	.LVL216:
 2253              	.LFB21:
 548:Src/draw.c    **** 
 549:Src/draw.c    **** void checkSequence(void)
 550:Src/draw.c    **** {
 551:Src/draw.c    ****   uint8_t cnt = 0;
 552:Src/draw.c    ****   // uint8_t blue[3] = {1, 1, 20};
 553:Src/draw.c    ****   for (uint8_t j = 0; j < noteSequenceSize; j++)
 554:Src/draw.c    ****   {
 555:Src/draw.c    ****     uint8_t len = ARRAY_LEN(noteSequence[j].note);
 556:Src/draw.c    ****     for (uint8_t i = 0; i < len; i++)
 557:Src/draw.c    ****     {
 558:Src/draw.c    ****       if (noteBuffer[i].note.symbol == noteSequence[j].note[len - 1 - i].symbol)
 559:Src/draw.c    ****       {
 560:Src/draw.c    ****         cnt++;
 561:Src/draw.c    ****         if (cnt == len)
 562:Src/draw.c    ****         {
 563:Src/draw.c    ****           clearText();
 564:Src/draw.c    ****           // drawString(noteSequence[j].word, 1, 24, 1, 0);
 565:Src/draw.c    ****           drawCenter(noteSequence[j].word, 1, 0);
 566:Src/draw.c    ****         }
 567:Src/draw.c    ****       }
 568:Src/draw.c    ****       else
 569:Src/draw.c    ****         break;
 570:Src/draw.c    ****     }
 571:Src/draw.c    ****   }
 572:Src/draw.c    **** }
ARM GAS  /var/folders/hv/f19l0kw128sbpybv1h43gz3c0000gn/T//cc0cLUco.s 			page 54


 573:Src/draw.c    **** 
 574:Src/draw.c    **** void drawNote(void)
 575:Src/draw.c    **** {
 576:Src/draw.c    ****   // uint8_t red[3] = {20, 1, 1};
 577:Src/draw.c    ****   // uint8_t green[3] = {1, 20, 1};
 578:Src/draw.c    ****   // drawStringArray(1, 1, 1, 1);
 579:Src/draw.c    **** 
 580:Src/draw.c    ****   checkSequence();
 581:Src/draw.c    **** 
 582:Src/draw.c    ****   // drawString(noteBuffer[0], 1, 1, 1, 0);
 583:Src/draw.c    ****   // setTextColor(noteBuffer[0].color);
 584:Src/draw.c    ****   // drawColor(noteBuffer[0].color);
 585:Src/draw.c    ****   // drawLetter(note.symbol, 1, 10);
 586:Src/draw.c    **** }
 587:Src/draw.c    **** 
 588:Src/draw.c    **** /* Draw Strings */
 589:Src/draw.c    **** 
 590:Src/draw.c    **** unsigned char getFontLine(unsigned char data, int line_num)
 591:Src/draw.c    **** {
 2254              		.loc 1 591 1 is_stmt 1 view -0
 2255              		.cfi_startproc
 2256              		@ args = 0, pretend = 0, frame = 0
 2257              		@ frame_needed = 0, uses_anonymous_args = 0
 2258              		@ link register save eliminated.
 592:Src/draw.c    ****   const uint8_t index = (data - 32);
 2259              		.loc 1 592 3 view .LVU541
 2260              		.loc 1 592 17 is_stmt 0 view .LVU542
 2261 0000 2038     		subs	r0, r0, #32
 2262              	.LVL217:
 2263              		.loc 1 592 17 view .LVU543
 2264 0002 C0B2     		uxtb	r0, r0
 593:Src/draw.c    ****   unsigned char pixel = 0;
 2265              		.loc 1 593 3 is_stmt 1 view .LVU544
 2266              	.LVL218:
 594:Src/draw.c    ****   if ((font4x6[index][1] & 1) == 1)
 2267              		.loc 1 594 3 view .LVU545
 2268              		.loc 1 594 22 is_stmt 0 view .LVU546
 2269 0004 164B     		ldr	r3, .L229
 2270 0006 03EB4003 		add	r3, r3, r0, lsl #1
 2271 000a 5B78     		ldrb	r3, [r3, #1]	@ zero_extendqisi2
 2272              		.loc 1 594 6 view .LVU547
 2273 000c 13F0010F 		tst	r3, #1
 2274 0010 00D0     		beq	.L217
 595:Src/draw.c    ****     line_num -= 1;
 2275              		.loc 1 595 5 is_stmt 1 view .LVU548
 2276              		.loc 1 595 14 is_stmt 0 view .LVU549
 2277 0012 0139     		subs	r1, r1, #1
 2278              	.LVL219:
 2279              	.L217:
 596:Src/draw.c    ****   if (line_num == 0)
 2280              		.loc 1 596 3 is_stmt 1 view .LVU550
 2281              		.loc 1 596 6 is_stmt 0 view .LVU551
 2282 0014 31B9     		cbnz	r1, .L218
 597:Src/draw.c    ****   {
 598:Src/draw.c    ****     pixel = (font4x6[index][0]) >> 4;
 2283              		.loc 1 598 5 is_stmt 1 view .LVU552
 2284              		.loc 1 598 28 is_stmt 0 view .LVU553
ARM GAS  /var/folders/hv/f19l0kw128sbpybv1h43gz3c0000gn/T//cc0cLUco.s 			page 55


 2285 0016 124B     		ldr	r3, .L229
 2286 0018 13F81000 		ldrb	r0, [r3, r0, lsl #1]	@ zero_extendqisi2
 2287              		.loc 1 598 11 view .LVU554
 2288 001c 0009     		lsrs	r0, r0, #4
 2289              	.LVL220:
 2290              	.L219:
 599:Src/draw.c    ****   }
 600:Src/draw.c    ****   else if (line_num == 1)
 601:Src/draw.c    ****   {
 602:Src/draw.c    ****     pixel = (font4x6[index][0]) >> 1;
 603:Src/draw.c    ****   }
 604:Src/draw.c    ****   else if (line_num == 2)
 605:Src/draw.c    ****   {
 606:Src/draw.c    ****     // Split over 2 bytes
 607:Src/draw.c    ****     return (((font4x6[index][0]) & 0x03) << 2) | (((font4x6[index][1]) & 0x02));
 608:Src/draw.c    ****   }
 609:Src/draw.c    ****   else if (line_num == 3)
 610:Src/draw.c    ****   {
 611:Src/draw.c    ****     pixel = (font4x6[index][1]) >> 4;
 612:Src/draw.c    ****   }
 613:Src/draw.c    ****   else if (line_num == 4)
 614:Src/draw.c    ****   {
 615:Src/draw.c    ****     pixel = (font4x6[index][1]) >> 1;
 616:Src/draw.c    ****   }
 617:Src/draw.c    ****   return pixel & 0xE;
 2291              		.loc 1 617 3 is_stmt 1 view .LVU555
 2292              		.loc 1 617 16 is_stmt 0 view .LVU556
 2293 001e 00F00E00 		and	r0, r0, #14
 2294              	.LVL221:
 618:Src/draw.c    **** }
 2295              		.loc 1 618 1 view .LVU557
 2296 0022 7047     		bx	lr
 2297              	.LVL222:
 2298              	.L218:
 600:Src/draw.c    ****   {
 2299              		.loc 1 600 8 is_stmt 1 view .LVU558
 600:Src/draw.c    ****   {
 2300              		.loc 1 600 11 is_stmt 0 view .LVU559
 2301 0024 0129     		cmp	r1, #1
 2302 0026 07D0     		beq	.L225
 604:Src/draw.c    ****   {
 2303              		.loc 1 604 8 is_stmt 1 view .LVU560
 604:Src/draw.c    ****   {
 2304              		.loc 1 604 11 is_stmt 0 view .LVU561
 2305 0028 0229     		cmp	r1, #2
 2306 002a 0AD0     		beq	.L226
 609:Src/draw.c    ****   {
 2307              		.loc 1 609 8 is_stmt 1 view .LVU562
 609:Src/draw.c    ****   {
 2308              		.loc 1 609 11 is_stmt 0 view .LVU563
 2309 002c 0329     		cmp	r1, #3
 2310 002e 12D0     		beq	.L227
 613:Src/draw.c    ****   {
 2311              		.loc 1 613 8 is_stmt 1 view .LVU564
 613:Src/draw.c    ****   {
 2312              		.loc 1 613 11 is_stmt 0 view .LVU565
 2313 0030 0429     		cmp	r1, #4
ARM GAS  /var/folders/hv/f19l0kw128sbpybv1h43gz3c0000gn/T//cc0cLUco.s 			page 56


 2314 0032 12D0     		beq	.L228
 593:Src/draw.c    ****   if ((font4x6[index][1] & 1) == 1)
 2315              		.loc 1 593 17 view .LVU566
 2316 0034 0020     		movs	r0, #0
 2317 0036 F2E7     		b	.L219
 2318              	.L225:
 602:Src/draw.c    ****   }
 2319              		.loc 1 602 5 is_stmt 1 view .LVU567
 602:Src/draw.c    ****   }
 2320              		.loc 1 602 28 is_stmt 0 view .LVU568
 2321 0038 094B     		ldr	r3, .L229
 2322 003a 13F81000 		ldrb	r0, [r3, r0, lsl #1]	@ zero_extendqisi2
 602:Src/draw.c    ****   }
 2323              		.loc 1 602 11 view .LVU569
 2324 003e 4008     		lsrs	r0, r0, #1
 2325              	.LVL223:
 602:Src/draw.c    ****   }
 2326              		.loc 1 602 11 view .LVU570
 2327 0040 EDE7     		b	.L219
 2328              	.LVL224:
 2329              	.L226:
 607:Src/draw.c    ****   }
 2330              		.loc 1 607 5 is_stmt 1 view .LVU571
 607:Src/draw.c    ****   }
 2331              		.loc 1 607 29 is_stmt 0 view .LVU572
 2332 0042 074A     		ldr	r2, .L229
 2333 0044 12F81000 		ldrb	r0, [r2, r0, lsl #1]	@ zero_extendqisi2
 607:Src/draw.c    ****   }
 2334              		.loc 1 607 42 view .LVU573
 2335 0048 8000     		lsls	r0, r0, #2
 2336 004a 00F00C00 		and	r0, r0, #12
 607:Src/draw.c    ****   }
 2337              		.loc 1 607 72 view .LVU574
 2338 004e 03F00203 		and	r3, r3, #2
 607:Src/draw.c    ****   }
 2339              		.loc 1 607 48 view .LVU575
 2340 0052 1843     		orrs	r0, r0, r3
 2341 0054 7047     		bx	lr
 2342              	.L227:
 611:Src/draw.c    ****   }
 2343              		.loc 1 611 5 is_stmt 1 view .LVU576
 611:Src/draw.c    ****   }
 2344              		.loc 1 611 11 is_stmt 0 view .LVU577
 2345 0056 1809     		lsrs	r0, r3, #4
 2346              	.LVL225:
 611:Src/draw.c    ****   }
 2347              		.loc 1 611 11 view .LVU578
 2348 0058 E1E7     		b	.L219
 2349              	.LVL226:
 2350              	.L228:
 615:Src/draw.c    ****   }
 2351              		.loc 1 615 5 is_stmt 1 view .LVU579
 615:Src/draw.c    ****   }
 2352              		.loc 1 615 11 is_stmt 0 view .LVU580
 2353 005a 5808     		lsrs	r0, r3, #1
 2354              	.LVL227:
 615:Src/draw.c    ****   }
ARM GAS  /var/folders/hv/f19l0kw128sbpybv1h43gz3c0000gn/T//cc0cLUco.s 			page 57


 2355              		.loc 1 615 11 view .LVU581
 2356 005c DFE7     		b	.L219
 2357              	.L230:
 2358 005e 00BF     		.align	2
 2359              	.L229:
 2360 0060 00000000 		.word	.LANCHOR5
 2361              		.cfi_endproc
 2362              	.LFE21:
 2364              		.section	.text.drawLetter,"ax",%progbits
 2365              		.align	1
 2366              		.global	drawLetter
 2367              		.syntax unified
 2368              		.thumb
 2369              		.thumb_func
 2370              		.fpu fpv4-sp-d16
 2372              	drawLetter:
 2373              	.LVL228:
 2374              	.LFB22:
 619:Src/draw.c    **** 
 620:Src/draw.c    **** void drawLetter(char letter, uint8_t px, uint8_t py)
 621:Src/draw.c    **** {
 2375              		.loc 1 621 1 is_stmt 1 view -0
 2376              		.cfi_startproc
 2377              		@ args = 0, pretend = 0, frame = 8
 2378              		@ frame_needed = 0, uses_anonymous_args = 0
 2379              		.loc 1 621 1 is_stmt 0 view .LVU583
 2380 0000 2DE9F04F 		push	{r4, r5, r6, r7, r8, r9, r10, fp, lr}
 2381              	.LCFI34:
 2382              		.cfi_def_cfa_offset 36
 2383              		.cfi_offset 4, -36
 2384              		.cfi_offset 5, -32
 2385              		.cfi_offset 6, -28
 2386              		.cfi_offset 7, -24
 2387              		.cfi_offset 8, -20
 2388              		.cfi_offset 9, -16
 2389              		.cfi_offset 10, -12
 2390              		.cfi_offset 11, -8
 2391              		.cfi_offset 14, -4
 2392 0004 83B0     		sub	sp, sp, #12
 2393              	.LCFI35:
 2394              		.cfi_def_cfa_offset 48
 2395 0006 0190     		str	r0, [sp, #4]
 2396 0008 0E46     		mov	r6, r1
 2397 000a 9346     		mov	fp, r2
 622:Src/draw.c    ****   uint8_t fill;
 2398              		.loc 1 622 3 is_stmt 1 view .LVU584
 623:Src/draw.c    ****   for (uint8_t y = py, l = 0; y <= (py + 5); y++, l++)
 2399              		.loc 1 623 3 view .LVU585
 2400              	.LBB72:
 2401              		.loc 1 623 8 view .LVU586
 2402              	.LVL229:
 2403              		.loc 1 623 16 is_stmt 0 view .LVU587
 2404 000c 9046     		mov	r8, r2
 2405              		.loc 1 623 24 view .LVU588
 2406 000e 4FF0000A 		mov	r10, #0
 2407              		.loc 1 623 3 view .LVU589
 2408 0012 21E0     		b	.L232
ARM GAS  /var/folders/hv/f19l0kw128sbpybv1h43gz3c0000gn/T//cc0cLUco.s 			page 58


 2409              	.LVL230:
 2410              	.L240:
 2411              	.LBB73:
 624:Src/draw.c    ****   {
 625:Src/draw.c    ****     if (y > NCOLSL)
 626:Src/draw.c    ****       break;
 627:Src/draw.c    ****     fill = getFontLine(letter, l);
 628:Src/draw.c    ****     for (uint8_t x = px, aX = 3; x <= (px + 3); x++, aX--)
 629:Src/draw.c    ****     {
 630:Src/draw.c    ****       if (fill & (1u << aX))
 631:Src/draw.c    ****       {
 632:Src/draw.c    **** #if COLOR_1BIT
 633:Src/draw.c    ****         BIT_SET(textLayer[DIV_8(x + (y * NCOLS))], REST_8(x + (y * NCOLS)));
 634:Src/draw.c    **** #else
 635:Src/draw.c    ****         setColor(textLayer[x + (y * NCOLS)], textColor);
 2412              		.loc 1 635 9 is_stmt 1 view .LVU590
 2413              		.loc 1 635 35 is_stmt 0 view .LVU591
 2414 0014 09EB4900 		add	r0, r9, r9, lsl #1
 2415 0018 C0EB0010 		rsb	r0, r0, r0, lsl #4
 2416              		.loc 1 635 30 view .LVU592
 2417 001c 1044     		add	r0, r0, r2
 2418              		.loc 1 635 27 view .LVU593
 2419 001e 00EB4000 		add	r0, r0, r0, lsl #1
 2420              		.loc 1 635 9 view .LVU594
 2421 0022 1749     		ldr	r1, .L241
 2422 0024 174B     		ldr	r3, .L241+4
 2423 0026 1844     		add	r0, r0, r3
 2424 0028 FFF7FEFF 		bl	setColor
 2425              	.LVL231:
 2426              	.L235:
 628:Src/draw.c    ****     {
 2427              		.loc 1 628 50 discriminator 2 view .LVU595
 2428 002c 0134     		adds	r4, r4, #1
 2429              	.LVL232:
 628:Src/draw.c    ****     {
 2430              		.loc 1 628 50 discriminator 2 view .LVU596
 2431 002e E4B2     		uxtb	r4, r4
 2432              	.LVL233:
 628:Src/draw.c    ****     {
 2433              		.loc 1 628 56 discriminator 2 view .LVU597
 2434 0030 013D     		subs	r5, r5, #1
 2435              	.LVL234:
 628:Src/draw.c    ****     {
 2436              		.loc 1 628 56 discriminator 2 view .LVU598
 2437 0032 EDB2     		uxtb	r5, r5
 2438              	.LVL235:
 2439              	.L234:
 628:Src/draw.c    ****     {
 2440              		.loc 1 628 36 discriminator 1 view .LVU599
 2441 0034 2246     		mov	r2, r4
 628:Src/draw.c    ****     {
 2442              		.loc 1 628 43 discriminator 1 view .LVU600
 2443 0036 F31C     		adds	r3, r6, #3
 628:Src/draw.c    ****     {
 2444              		.loc 1 628 5 discriminator 1 view .LVU601
 2445 0038 9C42     		cmp	r4, r3
 2446 003a 05DC     		bgt	.L239
ARM GAS  /var/folders/hv/f19l0kw128sbpybv1h43gz3c0000gn/T//cc0cLUco.s 			page 59


 630:Src/draw.c    ****       {
 2447              		.loc 1 630 7 is_stmt 1 view .LVU602
 630:Src/draw.c    ****       {
 2448              		.loc 1 630 11 is_stmt 0 view .LVU603
 2449 003c 27FA05F3 		lsr	r3, r7, r5
 630:Src/draw.c    ****       {
 2450              		.loc 1 630 10 view .LVU604
 2451 0040 13F0010F 		tst	r3, #1
 2452 0044 F2D0     		beq	.L235
 2453 0046 E5E7     		b	.L240
 2454              	.L239:
 2455              	.LBE73:
 623:Src/draw.c    ****   {
 2456              		.loc 1 623 47 discriminator 2 view .LVU605
 2457 0048 08F10108 		add	r8, r8, #1
 2458              	.LVL236:
 623:Src/draw.c    ****   {
 2459              		.loc 1 623 47 discriminator 2 view .LVU606
 2460 004c 5FFA88F8 		uxtb	r8, r8
 2461              	.LVL237:
 623:Src/draw.c    ****   {
 2462              		.loc 1 623 52 discriminator 2 view .LVU607
 2463 0050 0AF1010A 		add	r10, r10, #1
 2464              	.LVL238:
 623:Src/draw.c    ****   {
 2465              		.loc 1 623 52 discriminator 2 view .LVU608
 2466 0054 5FFA8AFA 		uxtb	r10, r10
 2467              	.LVL239:
 2468              	.L232:
 623:Src/draw.c    ****   {
 2469              		.loc 1 623 33 discriminator 1 view .LVU609
 2470 0058 C146     		mov	r9, r8
 623:Src/draw.c    ****   {
 2471              		.loc 1 623 40 discriminator 1 view .LVU610
 2472 005a 0BF10503 		add	r3, fp, #5
 623:Src/draw.c    ****   {
 2473              		.loc 1 623 3 discriminator 1 view .LVU611
 2474 005e 9845     		cmp	r8, r3
 2475 0060 0ADC     		bgt	.L231
 625:Src/draw.c    ****       break;
 2476              		.loc 1 625 5 is_stmt 1 view .LVU612
 625:Src/draw.c    ****       break;
 2477              		.loc 1 625 8 is_stmt 0 view .LVU613
 2478 0062 B8F12C0F 		cmp	r8, #44
 2479 0066 07D8     		bhi	.L231
 627:Src/draw.c    ****     for (uint8_t x = px, aX = 3; x <= (px + 3); x++, aX--)
 2480              		.loc 1 627 5 is_stmt 1 view .LVU614
 627:Src/draw.c    ****     for (uint8_t x = px, aX = 3; x <= (px + 3); x++, aX--)
 2481              		.loc 1 627 12 is_stmt 0 view .LVU615
 2482 0068 5146     		mov	r1, r10
 2483 006a 0198     		ldr	r0, [sp, #4]
 2484 006c FFF7FEFF 		bl	getFontLine
 2485              	.LVL240:
 2486 0070 0746     		mov	r7, r0
 2487              	.LVL241:
 628:Src/draw.c    ****     {
 2488              		.loc 1 628 5 is_stmt 1 view .LVU616
ARM GAS  /var/folders/hv/f19l0kw128sbpybv1h43gz3c0000gn/T//cc0cLUco.s 			page 60


 2489              	.LBB74:
 628:Src/draw.c    ****     {
 2490              		.loc 1 628 10 view .LVU617
 628:Src/draw.c    ****     {
 2491              		.loc 1 628 18 is_stmt 0 view .LVU618
 2492 0072 3446     		mov	r4, r6
 628:Src/draw.c    ****     {
 2493              		.loc 1 628 26 view .LVU619
 2494 0074 0325     		movs	r5, #3
 628:Src/draw.c    ****     {
 2495              		.loc 1 628 5 view .LVU620
 2496 0076 DDE7     		b	.L234
 2497              	.LVL242:
 2498              	.L231:
 628:Src/draw.c    ****     {
 2499              		.loc 1 628 5 view .LVU621
 2500              	.LBE74:
 2501              	.LBE72:
 636:Src/draw.c    **** #endif
 637:Src/draw.c    ****       }
 638:Src/draw.c    ****       // else if (~fill & (1u << aX))
 639:Src/draw.c    ****       // {
 640:Src/draw.c    ****       //   setColor(textLayer[x + (y * NCOLS)], maxColor);
 641:Src/draw.c    ****       // }
 642:Src/draw.c    ****     }
 643:Src/draw.c    ****   }
 644:Src/draw.c    **** }
 2502              		.loc 1 644 1 view .LVU622
 2503 0078 03B0     		add	sp, sp, #12
 2504              	.LCFI36:
 2505              		.cfi_def_cfa_offset 36
 2506              		@ sp needed
 2507 007a BDE8F08F 		pop	{r4, r5, r6, r7, r8, r9, r10, fp, pc}
 2508              	.LVL243:
 2509              	.L242:
 2510              		.loc 1 644 1 view .LVU623
 2511 007e 00BF     		.align	2
 2512              	.L241:
 2513 0080 00000000 		.word	textColor
 2514 0084 00000000 		.word	textLayer
 2515              		.cfi_endproc
 2516              	.LFE22:
 2518              		.section	.text.drawString,"ax",%progbits
 2519              		.align	1
 2520              		.global	drawString
 2521              		.syntax unified
 2522              		.thumb
 2523              		.thumb_func
 2524              		.fpu fpv4-sp-d16
 2526              	drawString:
 2527              	.LVL244:
 2528              	.LFB24:
 645:Src/draw.c    **** 
 646:Src/draw.c    **** void drawCenter(char *frase, uint8_t spacex, uint8_t spacey)
 647:Src/draw.c    **** {
 648:Src/draw.c    ****   uint8_t len = strlen(frase) * (3 + spacex);
 649:Src/draw.c    ****   int8_t px = ((NCOLS - len) / 2);
ARM GAS  /var/folders/hv/f19l0kw128sbpybv1h43gz3c0000gn/T//cc0cLUco.s 			page 61


 650:Src/draw.c    ****   int8_t py = (NCOLS / 2) - 3;
 651:Src/draw.c    ****   px = px < 0 ? 0 : px;
 652:Src/draw.c    ****   drawString(frase, px, py, spacex, spacey);
 653:Src/draw.c    **** }
 654:Src/draw.c    **** 
 655:Src/draw.c    **** void drawString(char *frase, uint8_t px, uint8_t py, uint8_t spacex, uint8_t spacey)
 656:Src/draw.c    **** {
 2529              		.loc 1 656 1 is_stmt 1 view -0
 2530              		.cfi_startproc
 2531              		@ args = 4, pretend = 0, frame = 0
 2532              		@ frame_needed = 0, uses_anonymous_args = 0
 2533              		.loc 1 656 1 is_stmt 0 view .LVU625
 2534 0000 2DE9F84F 		push	{r3, r4, r5, r6, r7, r8, r9, r10, fp, lr}
 2535              	.LCFI37:
 2536              		.cfi_def_cfa_offset 40
 2537              		.cfi_offset 3, -40
 2538              		.cfi_offset 4, -36
 2539              		.cfi_offset 5, -32
 2540              		.cfi_offset 6, -28
 2541              		.cfi_offset 7, -24
 2542              		.cfi_offset 8, -20
 2543              		.cfi_offset 9, -16
 2544              		.cfi_offset 10, -12
 2545              		.cfi_offset 11, -8
 2546              		.cfi_offset 14, -4
 2547 0004 0746     		mov	r7, r0
 2548 0006 8846     		mov	r8, r1
 2549 0008 9346     		mov	fp, r2
 2550 000a 9A46     		mov	r10, r3
 2551 000c 9DF82890 		ldrb	r9, [sp, #40]	@ zero_extendqisi2
 657:Src/draw.c    ****   uint8_t posX, incX = 0, posY, nLine = 0;
 2552              		.loc 1 657 3 is_stmt 1 view .LVU626
 2553              	.LVL245:
 658:Src/draw.c    ****   for (size_t i = 0; i < strlen(frase); i++)
 2554              		.loc 1 658 3 view .LVU627
 2555              	.LBB75:
 2556              		.loc 1 658 8 view .LVU628
 2557              		.loc 1 658 15 is_stmt 0 view .LVU629
 2558 0010 0025     		movs	r5, #0
 2559              	.LBE75:
 657:Src/draw.c    ****   uint8_t posX, incX = 0, posY, nLine = 0;
 2560              		.loc 1 657 33 view .LVU630
 2561 0012 2E46     		mov	r6, r5
 657:Src/draw.c    ****   uint8_t posX, incX = 0, posY, nLine = 0;
 2562              		.loc 1 657 17 view .LVU631
 2563 0014 2C46     		mov	r4, r5
 2564              	.LBB76:
 2565              		.loc 1 658 3 view .LVU632
 2566 0016 0CE0     		b	.L244
 2567              	.LVL246:
 2568              	.L245:
 659:Src/draw.c    ****   {
 660:Src/draw.c    ****     // posX = (char)frase[i] == (char)32 ? (i * 3) + px - 1 : (i * (3 + spacex)) + px;
 661:Src/draw.c    ****     posX = (incX * (3 + spacex)) + px;
 662:Src/draw.c    ****     if (posX + ((3 + spacex)) > NCOLS)
 663:Src/draw.c    ****     {
 664:Src/draw.c    ****       posX = px;
ARM GAS  /var/folders/hv/f19l0kw128sbpybv1h43gz3c0000gn/T//cc0cLUco.s 			page 62


 665:Src/draw.c    ****       nLine++;
 666:Src/draw.c    ****       incX = 0;
 667:Src/draw.c    ****     }
 668:Src/draw.c    ****     posY = nLine * (5 + spacey) + py;
 2569              		.loc 1 668 5 is_stmt 1 discriminator 2 view .LVU633
 2570              		.loc 1 668 33 is_stmt 0 discriminator 2 view .LVU634
 2571 0018 09F10502 		add	r2, r9, #5
 2572 001c 12FB06F2 		smulbb	r2, r2, r6
 2573              		.loc 1 668 10 discriminator 2 view .LVU635
 2574 0020 5BFA82F2 		uxtab	r2, fp, r2
 2575              	.LVL247:
 669:Src/draw.c    ****     drawLetter(frase[i], posX, posY);
 2576              		.loc 1 669 5 is_stmt 1 discriminator 2 view .LVU636
 2577 0024 D2B2     		uxtb	r2, r2
 2578              		.loc 1 669 5 is_stmt 0 discriminator 2 view .LVU637
 2579 0026 785D     		ldrb	r0, [r7, r5]	@ zero_extendqisi2
 2580 0028 FFF7FEFF 		bl	drawLetter
 2581              	.LVL248:
 670:Src/draw.c    ****     // posX = (posI - (nLine * (NCOLS - 3))) + 1;
 671:Src/draw.c    ****     incX++;
 2582              		.loc 1 671 5 is_stmt 1 discriminator 2 view .LVU638
 2583              		.loc 1 671 9 is_stmt 0 discriminator 2 view .LVU639
 2584 002c 0134     		adds	r4, r4, #1
 2585              	.LVL249:
 2586              		.loc 1 671 9 discriminator 2 view .LVU640
 2587 002e E4B2     		uxtb	r4, r4
 2588              	.LVL250:
 658:Src/draw.c    ****   {
 2589              		.loc 1 658 42 discriminator 2 view .LVU641
 2590 0030 0135     		adds	r5, r5, #1
 2591              	.LVL251:
 2592              	.L244:
 658:Src/draw.c    ****   {
 2593              		.loc 1 658 26 discriminator 1 view .LVU642
 2594 0032 3846     		mov	r0, r7
 2595 0034 FFF7FEFF 		bl	strlen
 2596              	.LVL252:
 658:Src/draw.c    ****   {
 2597              		.loc 1 658 3 discriminator 1 view .LVU643
 2598 0038 A842     		cmp	r0, r5
 2599 003a 0ED9     		bls	.L248
 661:Src/draw.c    ****     if (posX + ((3 + spacex)) > NCOLS)
 2600              		.loc 1 661 5 is_stmt 1 view .LVU644
 661:Src/draw.c    ****     if (posX + ((3 + spacex)) > NCOLS)
 2601              		.loc 1 661 34 is_stmt 0 view .LVU645
 2602 003c 0AF10303 		add	r3, r10, #3
 2603 0040 13FB04F1 		smulbb	r1, r3, r4
 661:Src/draw.c    ****     if (posX + ((3 + spacex)) > NCOLS)
 2604              		.loc 1 661 10 view .LVU646
 2605 0044 58FA81F1 		uxtab	r1, r8, r1
 2606 0048 C9B2     		uxtb	r1, r1
 2607              	.LVL253:
 662:Src/draw.c    ****     {
 2608              		.loc 1 662 5 is_stmt 1 view .LVU647
 662:Src/draw.c    ****     {
 2609              		.loc 1 662 14 is_stmt 0 view .LVU648
 2610 004a 0B44     		add	r3, r3, r1
ARM GAS  /var/folders/hv/f19l0kw128sbpybv1h43gz3c0000gn/T//cc0cLUco.s 			page 63


 662:Src/draw.c    ****     {
 2611              		.loc 1 662 8 view .LVU649
 2612 004c 2D2B     		cmp	r3, #45
 2613 004e E3DD     		ble	.L245
 664:Src/draw.c    ****       nLine++;
 2614              		.loc 1 664 7 is_stmt 1 view .LVU650
 2615              	.LVL254:
 665:Src/draw.c    ****       incX = 0;
 2616              		.loc 1 665 7 view .LVU651
 665:Src/draw.c    ****       incX = 0;
 2617              		.loc 1 665 12 is_stmt 0 view .LVU652
 2618 0050 0136     		adds	r6, r6, #1
 2619              	.LVL255:
 665:Src/draw.c    ****       incX = 0;
 2620              		.loc 1 665 12 view .LVU653
 2621 0052 F6B2     		uxtb	r6, r6
 2622              	.LVL256:
 666:Src/draw.c    ****     }
 2623              		.loc 1 666 7 is_stmt 1 view .LVU654
 664:Src/draw.c    ****       nLine++;
 2624              		.loc 1 664 12 is_stmt 0 view .LVU655
 2625 0054 4146     		mov	r1, r8
 666:Src/draw.c    ****     }
 2626              		.loc 1 666 12 view .LVU656
 2627 0056 0024     		movs	r4, #0
 2628 0058 DEE7     		b	.L245
 2629              	.LVL257:
 2630              	.L248:
 666:Src/draw.c    ****     }
 2631              		.loc 1 666 12 view .LVU657
 2632              	.LBE76:
 672:Src/draw.c    ****   }
 673:Src/draw.c    **** }
 2633              		.loc 1 673 1 view .LVU658
 2634 005a BDE8F88F 		pop	{r3, r4, r5, r6, r7, r8, r9, r10, fp, pc}
 2635              		.loc 1 673 1 view .LVU659
 2636              		.cfi_endproc
 2637              	.LFE24:
 2639              		.section	.text.drawCenter,"ax",%progbits
 2640              		.align	1
 2641              		.global	drawCenter
 2642              		.syntax unified
 2643              		.thumb
 2644              		.thumb_func
 2645              		.fpu fpv4-sp-d16
 2647              	drawCenter:
 2648              	.LVL258:
 2649              	.LFB23:
 647:Src/draw.c    ****   uint8_t len = strlen(frase) * (3 + spacex);
 2650              		.loc 1 647 1 is_stmt 1 view -0
 2651              		.cfi_startproc
 2652              		@ args = 0, pretend = 0, frame = 0
 2653              		@ frame_needed = 0, uses_anonymous_args = 0
 647:Src/draw.c    ****   uint8_t len = strlen(frase) * (3 + spacex);
 2654              		.loc 1 647 1 is_stmt 0 view .LVU661
 2655 0000 70B5     		push	{r4, r5, r6, lr}
 2656              	.LCFI38:
ARM GAS  /var/folders/hv/f19l0kw128sbpybv1h43gz3c0000gn/T//cc0cLUco.s 			page 64


 2657              		.cfi_def_cfa_offset 16
 2658              		.cfi_offset 4, -16
 2659              		.cfi_offset 5, -12
 2660              		.cfi_offset 6, -8
 2661              		.cfi_offset 14, -4
 2662 0002 82B0     		sub	sp, sp, #8
 2663              	.LCFI39:
 2664              		.cfi_def_cfa_offset 24
 2665 0004 0546     		mov	r5, r0
 2666 0006 0C46     		mov	r4, r1
 2667 0008 1646     		mov	r6, r2
 648:Src/draw.c    ****   int8_t px = ((NCOLS - len) / 2);
 2668              		.loc 1 648 3 is_stmt 1 view .LVU662
 648:Src/draw.c    ****   int8_t px = ((NCOLS - len) / 2);
 2669              		.loc 1 648 17 is_stmt 0 view .LVU663
 2670 000a FFF7FEFF 		bl	strlen
 2671              	.LVL259:
 648:Src/draw.c    ****   int8_t px = ((NCOLS - len) / 2);
 2672              		.loc 1 648 11 view .LVU664
 2673 000e E11C     		adds	r1, r4, #3
 2674 0010 11FB00F1 		smulbb	r1, r1, r0
 2675 0014 C9B2     		uxtb	r1, r1
 2676              	.LVL260:
 649:Src/draw.c    ****   int8_t py = (NCOLS / 2) - 3;
 2677              		.loc 1 649 3 is_stmt 1 view .LVU665
 649:Src/draw.c    ****   int8_t py = (NCOLS / 2) - 3;
 2678              		.loc 1 649 23 is_stmt 0 view .LVU666
 2679 0016 C1F12D01 		rsb	r1, r1, #45
 2680              	.LVL261:
 649:Src/draw.c    ****   int8_t py = (NCOLS / 2) - 3;
 2681              		.loc 1 649 30 view .LVU667
 2682 001a 01EBD171 		add	r1, r1, r1, lsr #31
 649:Src/draw.c    ****   int8_t py = (NCOLS / 2) - 3;
 2683              		.loc 1 649 10 view .LVU668
 2684 001e 41F34701 		sbfx	r1, r1, #1, #8
 2685              	.LVL262:
 650:Src/draw.c    ****   px = px < 0 ? 0 : px;
 2686              		.loc 1 650 3 is_stmt 1 view .LVU669
 651:Src/draw.c    ****   drawString(frase, px, py, spacex, spacey);
 2687              		.loc 1 651 3 view .LVU670
 651:Src/draw.c    ****   drawString(frase, px, py, spacex, spacey);
 2688              		.loc 1 651 6 is_stmt 0 view .LVU671
 2689 0022 21EAE171 		bic	r1, r1, r1, asr #31
 2690              	.LVL263:
 652:Src/draw.c    **** }
 2691              		.loc 1 652 3 is_stmt 1 view .LVU672
 2692 0026 0096     		str	r6, [sp]
 2693 0028 2346     		mov	r3, r4
 2694 002a 1322     		movs	r2, #19
 2695 002c C9B2     		uxtb	r1, r1
 652:Src/draw.c    **** }
 2696              		.loc 1 652 3 is_stmt 0 view .LVU673
 2697 002e 2846     		mov	r0, r5
 2698              	.LVL264:
 652:Src/draw.c    **** }
 2699              		.loc 1 652 3 view .LVU674
 2700 0030 FFF7FEFF 		bl	drawString
ARM GAS  /var/folders/hv/f19l0kw128sbpybv1h43gz3c0000gn/T//cc0cLUco.s 			page 65


 2701              	.LVL265:
 653:Src/draw.c    **** 
 2702              		.loc 1 653 1 view .LVU675
 2703 0034 02B0     		add	sp, sp, #8
 2704              	.LCFI40:
 2705              		.cfi_def_cfa_offset 16
 2706              		@ sp needed
 2707 0036 70BD     		pop	{r4, r5, r6, pc}
 653:Src/draw.c    **** 
 2708              		.loc 1 653 1 view .LVU676
 2709              		.cfi_endproc
 2710              	.LFE23:
 2712              		.section	.text.checkSequence,"ax",%progbits
 2713              		.align	1
 2714              		.global	checkSequence
 2715              		.syntax unified
 2716              		.thumb
 2717              		.thumb_func
 2718              		.fpu fpv4-sp-d16
 2720              	checkSequence:
 2721              	.LFB19:
 550:Src/draw.c    ****   uint8_t cnt = 0;
 2722              		.loc 1 550 1 is_stmt 1 view -0
 2723              		.cfi_startproc
 2724              		@ args = 0, pretend = 0, frame = 0
 2725              		@ frame_needed = 0, uses_anonymous_args = 0
 2726 0000 F8B5     		push	{r3, r4, r5, r6, r7, lr}
 2727              	.LCFI41:
 2728              		.cfi_def_cfa_offset 24
 2729              		.cfi_offset 3, -24
 2730              		.cfi_offset 4, -20
 2731              		.cfi_offset 5, -16
 2732              		.cfi_offset 6, -12
 2733              		.cfi_offset 7, -8
 2734              		.cfi_offset 14, -4
 551:Src/draw.c    ****   // uint8_t blue[3] = {1, 1, 20};
 2735              		.loc 1 551 3 view .LVU678
 2736              	.LVL266:
 553:Src/draw.c    ****   {
 2737              		.loc 1 553 3 view .LVU679
 2738              	.LBB77:
 553:Src/draw.c    ****   {
 2739              		.loc 1 553 8 view .LVU680
 553:Src/draw.c    ****   {
 2740              		.loc 1 553 16 is_stmt 0 view .LVU681
 2741 0002 0025     		movs	r5, #0
 2742              	.LBE77:
 551:Src/draw.c    ****   // uint8_t blue[3] = {1, 1, 20};
 2743              		.loc 1 551 11 view .LVU682
 2744 0004 2E46     		mov	r6, r5
 2745              	.LBB82:
 553:Src/draw.c    ****   {
 2746              		.loc 1 553 3 view .LVU683
 2747 0006 0CE0     		b	.L252
 2748              	.LVL267:
 2749              	.L260:
 2750              	.LBB78:
ARM GAS  /var/folders/hv/f19l0kw128sbpybv1h43gz3c0000gn/T//cc0cLUco.s 			page 66


 2751              	.LBB79:
 563:Src/draw.c    ****           // drawString(noteSequence[j].word, 1, 24, 1, 0);
 2752              		.loc 1 563 11 is_stmt 1 view .LVU684
 2753 0008 FFF7FEFF 		bl	clearText
 2754              	.LVL268:
 565:Src/draw.c    ****         }
 2755              		.loc 1 565 11 view .LVU685
 565:Src/draw.c    ****         }
 2756              		.loc 1 565 34 is_stmt 0 view .LVU686
 2757 000c 154B     		ldr	r3, .L261
 2758 000e 1868     		ldr	r0, [r3]
 2759 0010 3844     		add	r0, r0, r7
 565:Src/draw.c    ****         }
 2760              		.loc 1 565 11 view .LVU687
 2761 0012 0022     		movs	r2, #0
 2762 0014 0121     		movs	r1, #1
 2763 0016 0330     		adds	r0, r0, #3
 2764 0018 FFF7FEFF 		bl	drawCenter
 2765              	.LVL269:
 2766 001c 1EE0     		b	.L254
 2767              	.L253:
 565:Src/draw.c    ****         }
 2768              		.loc 1 565 11 view .LVU688
 2769              	.LBE79:
 2770              	.LBE78:
 553:Src/draw.c    ****   {
 2771              		.loc 1 553 46 discriminator 2 view .LVU689
 2772 001e 0135     		adds	r5, r5, #1
 2773              	.LVL270:
 553:Src/draw.c    ****   {
 2774              		.loc 1 553 46 discriminator 2 view .LVU690
 2775 0020 EDB2     		uxtb	r5, r5
 2776              	.LVL271:
 2777              	.L252:
 553:Src/draw.c    ****   {
 2778              		.loc 1 553 25 discriminator 1 view .LVU691
 2779 0022 114B     		ldr	r3, .L261+4
 2780 0024 1B78     		ldrb	r3, [r3]	@ zero_extendqisi2
 553:Src/draw.c    ****   {
 2781              		.loc 1 553 3 discriminator 1 view .LVU692
 2782 0026 AB42     		cmp	r3, r5
 2783 0028 1BD9     		bls	.L259
 2784              	.LBB81:
 2785              	.LBB80:
 556:Src/draw.c    ****     {
 2786              		.loc 1 556 18 view .LVU693
 2787 002a 0024     		movs	r4, #0
 2788              	.L256:
 2789              	.LVL272:
 556:Src/draw.c    ****     {
 2790              		.loc 1 556 5 discriminator 1 view .LVU694
 2791 002c 002C     		cmp	r4, #0
 2792 002e F6D1     		bne	.L253
 558:Src/draw.c    ****       {
 2793              		.loc 1 558 7 is_stmt 1 view .LVU695
 558:Src/draw.c    ****       {
 2794              		.loc 1 558 29 is_stmt 0 view .LVU696
ARM GAS  /var/folders/hv/f19l0kw128sbpybv1h43gz3c0000gn/T//cc0cLUco.s 			page 67


 2795 0030 04EB4402 		add	r2, r4, r4, lsl #1
 2796 0034 5300     		lsls	r3, r2, #1
 2797 0036 0D4A     		ldr	r2, .L261+8
 2798 0038 D15C     		ldrb	r1, [r2, r3]	@ zero_extendqisi2
 558:Src/draw.c    ****       {
 2799              		.loc 1 558 52 view .LVU697
 2800 003a 05EB4507 		add	r7, r5, r5, lsl #1
 2801 003e 05EB8707 		add	r7, r5, r7, lsl #2
 2802 0042 084B     		ldr	r3, .L261
 2803 0044 1A68     		ldr	r2, [r3]
 2804 0046 3A44     		add	r2, r2, r7
 558:Src/draw.c    ****       {
 2805              		.loc 1 558 69 view .LVU698
 2806 0048 6342     		rsbs	r3, r4, #0
 558:Src/draw.c    ****       {
 2807              		.loc 1 558 73 view .LVU699
 2808 004a 03EB4303 		add	r3, r3, r3, lsl #1
 2809 004e D35C     		ldrb	r3, [r2, r3]	@ zero_extendqisi2
 558:Src/draw.c    ****       {
 2810              		.loc 1 558 10 view .LVU700
 2811 0050 9942     		cmp	r1, r3
 2812 0052 E4D1     		bne	.L253
 560:Src/draw.c    ****         if (cnt == len)
 2813              		.loc 1 560 9 is_stmt 1 view .LVU701
 560:Src/draw.c    ****         if (cnt == len)
 2814              		.loc 1 560 12 is_stmt 0 view .LVU702
 2815 0054 0136     		adds	r6, r6, #1
 2816              	.LVL273:
 560:Src/draw.c    ****         if (cnt == len)
 2817              		.loc 1 560 12 view .LVU703
 2818 0056 F6B2     		uxtb	r6, r6
 2819              	.LVL274:
 561:Src/draw.c    ****         {
 2820              		.loc 1 561 9 is_stmt 1 view .LVU704
 561:Src/draw.c    ****         {
 2821              		.loc 1 561 12 is_stmt 0 view .LVU705
 2822 0058 012E     		cmp	r6, #1
 2823 005a D5D0     		beq	.L260
 2824              	.L254:
 556:Src/draw.c    ****     {
 2825              		.loc 1 556 35 discriminator 2 view .LVU706
 2826 005c 0134     		adds	r4, r4, #1
 2827              	.LVL275:
 556:Src/draw.c    ****     {
 2828              		.loc 1 556 35 discriminator 2 view .LVU707
 2829 005e E4B2     		uxtb	r4, r4
 2830              	.LVL276:
 556:Src/draw.c    ****     {
 2831              		.loc 1 556 35 discriminator 2 view .LVU708
 2832 0060 E4E7     		b	.L256
 2833              	.LVL277:
 2834              	.L259:
 556:Src/draw.c    ****     {
 2835              		.loc 1 556 35 discriminator 2 view .LVU709
 2836              	.LBE80:
 2837              	.LBE81:
 2838              	.LBE82:
ARM GAS  /var/folders/hv/f19l0kw128sbpybv1h43gz3c0000gn/T//cc0cLUco.s 			page 68


 572:Src/draw.c    **** 
 2839              		.loc 1 572 1 view .LVU710
 2840 0062 F8BD     		pop	{r3, r4, r5, r6, r7, pc}
 2841              	.LVL278:
 2842              	.L262:
 572:Src/draw.c    **** 
 2843              		.loc 1 572 1 view .LVU711
 2844              		.align	2
 2845              	.L261:
 2846 0064 00000000 		.word	noteSequence
 2847 0068 00000000 		.word	noteSequenceSize
 2848 006c 00000000 		.word	noteBuffer
 2849              		.cfi_endproc
 2850              	.LFE19:
 2852              		.section	.text.drawNote,"ax",%progbits
 2853              		.align	1
 2854              		.global	drawNote
 2855              		.syntax unified
 2856              		.thumb
 2857              		.thumb_func
 2858              		.fpu fpv4-sp-d16
 2860              	drawNote:
 2861              	.LFB20:
 575:Src/draw.c    ****   // uint8_t red[3] = {20, 1, 1};
 2862              		.loc 1 575 1 is_stmt 1 view -0
 2863              		.cfi_startproc
 2864              		@ args = 0, pretend = 0, frame = 0
 2865              		@ frame_needed = 0, uses_anonymous_args = 0
 2866 0000 08B5     		push	{r3, lr}
 2867              	.LCFI42:
 2868              		.cfi_def_cfa_offset 8
 2869              		.cfi_offset 3, -8
 2870              		.cfi_offset 14, -4
 580:Src/draw.c    **** 
 2871              		.loc 1 580 3 view .LVU713
 2872 0002 FFF7FEFF 		bl	checkSequence
 2873              	.LVL279:
 586:Src/draw.c    **** 
 2874              		.loc 1 586 1 is_stmt 0 view .LVU714
 2875 0006 08BD     		pop	{r3, pc}
 2876              		.cfi_endproc
 2877              	.LFE20:
 2879              		.section	.text.drawStringArray,"ax",%progbits
 2880              		.align	1
 2881              		.global	drawStringArray
 2882              		.syntax unified
 2883              		.thumb
 2884              		.thumb_func
 2885              		.fpu fpv4-sp-d16
 2887              	drawStringArray:
 2888              	.LVL280:
 2889              	.LFB25:
 674:Src/draw.c    **** 
 675:Src/draw.c    **** void drawStringArray(uint8_t px, uint8_t py, uint8_t spacex, uint8_t spacey)
 676:Src/draw.c    **** {
 2890              		.loc 1 676 1 is_stmt 1 view -0
 2891              		.cfi_startproc
ARM GAS  /var/folders/hv/f19l0kw128sbpybv1h43gz3c0000gn/T//cc0cLUco.s 			page 69


 2892              		@ args = 0, pretend = 0, frame = 8
 2893              		@ frame_needed = 0, uses_anonymous_args = 0
 2894              		.loc 1 676 1 is_stmt 0 view .LVU716
 2895 0000 2DE9F04F 		push	{r4, r5, r6, r7, r8, r9, r10, fp, lr}
 2896              	.LCFI43:
 2897              		.cfi_def_cfa_offset 36
 2898              		.cfi_offset 4, -36
 2899              		.cfi_offset 5, -32
 2900              		.cfi_offset 6, -28
 2901              		.cfi_offset 7, -24
 2902              		.cfi_offset 8, -20
 2903              		.cfi_offset 9, -16
 2904              		.cfi_offset 10, -12
 2905              		.cfi_offset 11, -8
 2906              		.cfi_offset 14, -4
 2907 0004 83B0     		sub	sp, sp, #12
 2908              	.LCFI44:
 2909              		.cfi_def_cfa_offset 48
 2910 0006 8246     		mov	r10, r0
 2911 0008 8B46     		mov	fp, r1
 2912 000a 0092     		str	r2, [sp]
 2913 000c 0193     		str	r3, [sp, #4]
 677:Src/draw.c    ****   uint8_t posX, incX = 0, posY, nLine = 0;
 2914              		.loc 1 677 3 is_stmt 1 view .LVU717
 2915              	.LVL281:
 678:Src/draw.c    ****   char temp;
 2916              		.loc 1 678 3 view .LVU718
 679:Src/draw.c    ****   for (uint8_t j = 0; j < ARRAY_LEN(noteBuffer); j++)
 2917              		.loc 1 679 3 view .LVU719
 2918              	.LBB83:
 2919              		.loc 1 679 8 view .LVU720
 2920              		.loc 1 679 16 is_stmt 0 view .LVU721
 2921 000e 0027     		movs	r7, #0
 2922              	.LBE83:
 677:Src/draw.c    ****   uint8_t posX, incX = 0, posY, nLine = 0;
 2923              		.loc 1 677 33 view .LVU722
 2924 0010 B846     		mov	r8, r7
 677:Src/draw.c    ****   uint8_t posX, incX = 0, posY, nLine = 0;
 2925              		.loc 1 677 17 view .LVU723
 2926 0012 B946     		mov	r9, r7
 2927              	.LBB86:
 2928              		.loc 1 679 3 view .LVU724
 2929 0014 2CE0     		b	.L266
 2930              	.LVL282:
 2931              	.L268:
 2932              	.LBB84:
 680:Src/draw.c    ****   {
 681:Src/draw.c    ****     setTextColor(noteBuffer[j].color);
 682:Src/draw.c    ****     for (uint8_t i = 0; i < 3; i++)
 683:Src/draw.c    ****     {
 684:Src/draw.c    ****       posX = incX * (3 + spacex) + px;
 685:Src/draw.c    ****       if (posX + ((3 + spacex)) > NCOLS - 2)
 686:Src/draw.c    ****       {
 687:Src/draw.c    ****         posX = px;
 688:Src/draw.c    ****         nLine++;
 689:Src/draw.c    ****         incX = 0;
 690:Src/draw.c    ****       }
ARM GAS  /var/folders/hv/f19l0kw128sbpybv1h43gz3c0000gn/T//cc0cLUco.s 			page 70


 691:Src/draw.c    ****       posY = nLine * (5 + spacey) + py;
 2933              		.loc 1 691 7 is_stmt 1 view .LVU725
 2934              		.loc 1 691 35 is_stmt 0 view .LVU726
 2935 0016 019B     		ldr	r3, [sp, #4]
 2936 0018 5C1D     		adds	r4, r3, #5
 2937 001a 14FB08F4 		smulbb	r4, r4, r8
 2938              		.loc 1 691 12 view .LVU727
 2939 001e 5BFA84F4 		uxtab	r4, fp, r4
 2940 0022 E4B2     		uxtb	r4, r4
 2941              	.LVL283:
 692:Src/draw.c    ****       temp = getNoteBuffer(j, i);
 2942              		.loc 1 692 7 is_stmt 1 view .LVU728
 2943              		.loc 1 692 14 is_stmt 0 view .LVU729
 2944 0024 3146     		mov	r1, r6
 2945 0026 3846     		mov	r0, r7
 2946 0028 FFF7FEFF 		bl	getNoteBuffer
 2947              	.LVL284:
 693:Src/draw.c    ****       if (temp)
 2948              		.loc 1 693 7 is_stmt 1 view .LVU730
 2949              		.loc 1 693 10 is_stmt 0 view .LVU731
 2950 002c A8B9     		cbnz	r0, .L273
 2951              	.LVL285:
 2952              	.L269:
 682:Src/draw.c    ****     {
 2953              		.loc 1 682 33 discriminator 2 view .LVU732
 2954 002e 0136     		adds	r6, r6, #1
 2955              	.LVL286:
 682:Src/draw.c    ****     {
 2956              		.loc 1 682 33 discriminator 2 view .LVU733
 2957 0030 F6B2     		uxtb	r6, r6
 2958              	.LVL287:
 2959              	.L267:
 682:Src/draw.c    ****     {
 2960              		.loc 1 682 5 discriminator 1 view .LVU734
 2961 0032 022E     		cmp	r6, #2
 2962 0034 1AD8     		bhi	.L274
 684:Src/draw.c    ****       if (posX + ((3 + spacex)) > NCOLS - 2)
 2963              		.loc 1 684 7 is_stmt 1 view .LVU735
 684:Src/draw.c    ****       if (posX + ((3 + spacex)) > NCOLS - 2)
 2964              		.loc 1 684 34 is_stmt 0 view .LVU736
 2965 0036 009B     		ldr	r3, [sp]
 2966 0038 0333     		adds	r3, r3, #3
 2967 003a 13FB09F5 		smulbb	r5, r3, r9
 684:Src/draw.c    ****       if (posX + ((3 + spacex)) > NCOLS - 2)
 2968              		.loc 1 684 12 view .LVU737
 2969 003e 5AFA85F5 		uxtab	r5, r10, r5
 2970 0042 EDB2     		uxtb	r5, r5
 2971              	.LVL288:
 685:Src/draw.c    ****       {
 2972              		.loc 1 685 7 is_stmt 1 view .LVU738
 685:Src/draw.c    ****       {
 2973              		.loc 1 685 16 is_stmt 0 view .LVU739
 2974 0044 2B44     		add	r3, r3, r5
 685:Src/draw.c    ****       {
 2975              		.loc 1 685 10 view .LVU740
 2976 0046 2B2B     		cmp	r3, #43
 2977 0048 E5DD     		ble	.L268
ARM GAS  /var/folders/hv/f19l0kw128sbpybv1h43gz3c0000gn/T//cc0cLUco.s 			page 71


 687:Src/draw.c    ****         nLine++;
 2978              		.loc 1 687 9 is_stmt 1 view .LVU741
 2979              	.LVL289:
 688:Src/draw.c    ****         incX = 0;
 2980              		.loc 1 688 9 view .LVU742
 688:Src/draw.c    ****         incX = 0;
 2981              		.loc 1 688 14 is_stmt 0 view .LVU743
 2982 004a 08F10108 		add	r8, r8, #1
 2983              	.LVL290:
 688:Src/draw.c    ****         incX = 0;
 2984              		.loc 1 688 14 view .LVU744
 2985 004e 5FFA88F8 		uxtb	r8, r8
 2986              	.LVL291:
 689:Src/draw.c    ****       }
 2987              		.loc 1 689 9 is_stmt 1 view .LVU745
 687:Src/draw.c    ****         nLine++;
 2988              		.loc 1 687 14 is_stmt 0 view .LVU746
 2989 0052 5546     		mov	r5, r10
 689:Src/draw.c    ****       }
 2990              		.loc 1 689 14 view .LVU747
 2991 0054 4FF00009 		mov	r9, #0
 2992 0058 DDE7     		b	.L268
 2993              	.LVL292:
 2994              	.L273:
 694:Src/draw.c    ****       {
 695:Src/draw.c    ****         drawLetter(temp, posX, posY);
 2995              		.loc 1 695 9 is_stmt 1 view .LVU748
 2996 005a 2246     		mov	r2, r4
 2997 005c 2946     		mov	r1, r5
 2998 005e FFF7FEFF 		bl	drawLetter
 2999              	.LVL293:
 696:Src/draw.c    ****         incX++;
 3000              		.loc 1 696 9 view .LVU749
 3001              		.loc 1 696 13 is_stmt 0 view .LVU750
 3002 0062 09F10109 		add	r9, r9, #1
 3003              	.LVL294:
 3004              		.loc 1 696 13 view .LVU751
 3005 0066 5FFA89F9 		uxtb	r9, r9
 3006              	.LVL295:
 3007              		.loc 1 696 13 view .LVU752
 3008 006a E0E7     		b	.L269
 3009              	.LVL296:
 3010              	.L274:
 3011              		.loc 1 696 13 view .LVU753
 3012              	.LBE84:
 679:Src/draw.c    ****   {
 3013              		.loc 1 679 51 discriminator 2 view .LVU754
 3014 006c 0137     		adds	r7, r7, #1
 3015              	.LVL297:
 679:Src/draw.c    ****   {
 3016              		.loc 1 679 51 discriminator 2 view .LVU755
 3017 006e FFB2     		uxtb	r7, r7
 3018              	.LVL298:
 3019              	.L266:
 679:Src/draw.c    ****   {
 3020              		.loc 1 679 3 discriminator 1 view .LVU756
 3021 0070 092F     		cmp	r7, #9
ARM GAS  /var/folders/hv/f19l0kw128sbpybv1h43gz3c0000gn/T//cc0cLUco.s 			page 72


 3022 0072 09D8     		bhi	.L275
 681:Src/draw.c    ****     for (uint8_t i = 0; i < 3; i++)
 3023              		.loc 1 681 5 is_stmt 1 view .LVU757
 681:Src/draw.c    ****     for (uint8_t i = 0; i < 3; i++)
 3024              		.loc 1 681 31 is_stmt 0 view .LVU758
 3025 0074 07EB4703 		add	r3, r7, r7, lsl #1
 3026 0078 5800     		lsls	r0, r3, #1
 3027 007a 054B     		ldr	r3, .L276
 3028 007c 1844     		add	r0, r0, r3
 681:Src/draw.c    ****     for (uint8_t i = 0; i < 3; i++)
 3029              		.loc 1 681 5 view .LVU759
 3030 007e 0330     		adds	r0, r0, #3
 3031 0080 FFF7FEFF 		bl	setTextColor
 3032              	.LVL299:
 682:Src/draw.c    ****     {
 3033              		.loc 1 682 5 is_stmt 1 view .LVU760
 3034              	.LBB85:
 682:Src/draw.c    ****     {
 3035              		.loc 1 682 10 view .LVU761
 682:Src/draw.c    ****     {
 3036              		.loc 1 682 18 is_stmt 0 view .LVU762
 3037 0084 0026     		movs	r6, #0
 682:Src/draw.c    ****     {
 3038              		.loc 1 682 5 view .LVU763
 3039 0086 D4E7     		b	.L267
 3040              	.LVL300:
 3041              	.L275:
 682:Src/draw.c    ****     {
 3042              		.loc 1 682 5 view .LVU764
 3043              	.LBE85:
 3044              	.LBE86:
 697:Src/draw.c    ****       }
 698:Src/draw.c    ****     }
 699:Src/draw.c    ****   }
 700:Src/draw.c    **** }
 3045              		.loc 1 700 1 view .LVU765
 3046 0088 03B0     		add	sp, sp, #12
 3047              	.LCFI45:
 3048              		.cfi_def_cfa_offset 36
 3049              		@ sp needed
 3050 008a BDE8F08F 		pop	{r4, r5, r6, r7, r8, r9, r10, fp, pc}
 3051              	.LVL301:
 3052              	.L277:
 3053              		.loc 1 700 1 view .LVU766
 3054 008e 00BF     		.align	2
 3055              	.L276:
 3056 0090 00000000 		.word	noteBuffer
 3057              		.cfi_endproc
 3058              	.LFE25:
 3060              		.comm	callback_function,4,4
 3061              		.global	MODE_TEXT
 3062              		.global	MODE_BACK
 3063              		.global	MAX_BRIGHT
 3064              		.global	MAX_DIV
 3065              		.global	orientation
 3066              		.global	font4x6
 3067              		.comm	arrColor,4,4
ARM GAS  /var/folders/hv/f19l0kw128sbpybv1h43gz3c0000gn/T//cc0cLUco.s 			page 73


 3068              		.global	colorBW
 3069              		.global	colorOriginal
 3070              		.global	maxColor
 3071              		.global	minColor
 3072              		.comm	drawtext_function,4,4
 3073              		.comm	drawshape_function,4,4
 3074              		.comm	WS2812_IO_framedata,8640,4
 3075              		.comm	noteBuffer,60,4
 3076              		.comm	noteSequence,4,4
 3077              		.comm	noteSequenceOET,78,4
 3078              		.comm	noteSequenceSize,1,1
 3079              		.comm	noteSequenceWTECS,65,4
 3080              		.comm	note,3,4
 3081              		.comm	textColor,3,4
 3082              		.comm	backColor,3,4
 3083              		.comm	textLayer,6075,4
 3084              		.comm	backLayer,6075,4
 3085              		.section	.bss.minColor,"aw",%nobits
 3086              		.align	2
 3087              		.set	.LANCHOR0,. + 0
 3090              	minColor:
 3091 0000 000000   		.space	3
 3092              		.section	.bss.orientation,"aw",%nobits
 3093              		.set	.LANCHOR3,. + 0
 3096              	orientation:
 3097 0000 00       		.space	1
 3098              		.section	.data.MAX_BRIGHT,"aw"
 3099              		.align	2
 3102              	MAX_BRIGHT:
 3103 0000 CDCCCC3D 		.word	1036831949
 3104              		.section	.data.MAX_DIV,"aw"
 3105              		.set	.LANCHOR4,. + 0
 3108              	MAX_DIV:
 3109 0000 03       		.byte	3
 3110              		.section	.data.MODE_BACK,"aw"
 3111              		.set	.LANCHOR1,. + 0
 3114              	MODE_BACK:
 3115 0000 01       		.byte	1
 3116              		.section	.data.MODE_TEXT,"aw"
 3117              		.set	.LANCHOR2,. + 0
 3120              	MODE_TEXT:
 3121 0000 01       		.byte	1
 3122              		.section	.data.colorBW,"aw"
 3123              		.align	2
 3126              	colorBW:
 3127 0000 4E       		.byte	78
 3128 0001 4E       		.byte	78
 3129 0002 4E       		.byte	78
 3130 0003 74       		.byte	116
 3131 0004 63       		.byte	99
 3132 0005 5E       		.byte	94
 3133 0006 65       		.byte	101
 3134 0007 69       		.byte	105
 3135 0008 69       		.byte	105
 3136 0009 48       		.byte	72
 3137 000a 48       		.byte	72
 3138 000b 24       		.byte	36
ARM GAS  /var/folders/hv/f19l0kw128sbpybv1h43gz3c0000gn/T//cc0cLUco.s 			page 74


 3139 000c 2A       		.byte	42
 3140 000d 2B       		.byte	43
 3141 000e 2C       		.byte	44
 3142 000f 58       		.byte	88
 3143 0010 4F       		.byte	79
 3144 0011 4D       		.byte	77
 3145 0012 32       		.byte	50
 3146 0013 35       		.byte	53
 3147 0014 35       		.byte	53
 3148 0015 24       		.byte	36
 3149 0016 24       		.byte	36
 3150 0017 12       		.byte	18
 3151 0018 75       		.byte	117
 3152 0019 75       		.byte	117
 3153 001a 75       		.byte	117
 3154 001b AE       		.byte	-82
 3155 001c 94       		.byte	-108
 3156 001d 8D       		.byte	-115
 3157 001e 97       		.byte	-105
 3158 001f 9E       		.byte	-98
 3159 0020 9E       		.byte	-98
 3160 0021 6C       		.byte	108
 3161 0022 6C       		.byte	108
 3162 0023 36       		.byte	54
 3163              		.section	.data.colorOriginal,"aw"
 3164              		.align	2
 3167              	colorOriginal:
 3168 0000 7B       		.byte	123
 3169 0001 00       		.byte	0
 3170 0002 00       		.byte	0
 3171 0003 7B       		.byte	123
 3172 0004 5A       		.byte	90
 3173 0005 00       		.byte	0
 3174 0006 7B       		.byte	123
 3175 0007 7B       		.byte	123
 3176 0008 00       		.byte	0
 3177 0009 7B       		.byte	123
 3178 000a 6D       		.byte	109
 3179 000b 00       		.byte	0
 3180 000c 00       		.byte	0
 3181 000d 7B       		.byte	123
 3182 000e 6A       		.byte	106
 3183 000f 5A       		.byte	90
 3184 0010 00       		.byte	0
 3185 0011 7B       		.byte	123
 3186 0012 7B       		.byte	123
 3187 0013 00       		.byte	0
 3188 0014 5A       		.byte	90
 3189 0015 7B       		.byte	123
 3190 0016 00       		.byte	0
 3191 0017 7B       		.byte	123
 3192 0018 00       		.byte	0
 3193 0019 00       		.byte	0
 3194 001a 70       		.byte	112
 3195 001b 62       		.byte	98
 3196 001c 62       		.byte	98
 3197 001d 62       		.byte	98
ARM GAS  /var/folders/hv/f19l0kw128sbpybv1h43gz3c0000gn/T//cc0cLUco.s 			page 75


 3198 001e 85       		.byte	-123
 3199 001f 85       		.byte	-123
 3200 0020 52       		.byte	82
 3201 0021 85       		.byte	-123
 3202 0022 62       		.byte	98
 3203 0023 52       		.byte	82
 3204              		.section	.data.maxColor,"aw"
 3205              		.align	2
 3208              	maxColor:
 3209 0000 FF       		.byte	-1
 3210 0001 FF       		.byte	-1
 3211 0002 FF       		.byte	-1
 3212              		.section	.rodata.font4x6,"a"
 3213              		.align	2
 3214              		.set	.LANCHOR5,. + 0
 3217              	font4x6:
 3218 0000 00       		.byte	0
 3219 0001 00       		.byte	0
 3220 0002 49       		.byte	73
 3221 0003 08       		.byte	8
 3222 0004 B4       		.byte	-76
 3223 0005 00       		.byte	0
 3224 0006 BE       		.byte	-66
 3225 0007 F6       		.byte	-10
 3226 0008 7B       		.byte	123
 3227 0009 7A       		.byte	122
 3228 000a A5       		.byte	-91
 3229 000b 94       		.byte	-108
 3230 000c 55       		.byte	85
 3231 000d B8       		.byte	-72
 3232 000e 48       		.byte	72
 3233 000f 00       		.byte	0
 3234 0010 29       		.byte	41
 3235 0011 44       		.byte	68
 3236 0012 44       		.byte	68
 3237 0013 2A       		.byte	42
 3238 0014 15       		.byte	21
 3239 0015 A0       		.byte	-96
 3240 0016 0B       		.byte	11
 3241 0017 42       		.byte	66
 3242 0018 00       		.byte	0
 3243 0019 50       		.byte	80
 3244 001a 03       		.byte	3
 3245 001b 02       		.byte	2
 3246 001c 00       		.byte	0
 3247 001d 08       		.byte	8
 3248 001e 25       		.byte	37
 3249 001f 90       		.byte	-112
 3250 0020 76       		.byte	118
 3251 0021 BA       		.byte	-70
 3252 0022 59       		.byte	89
 3253 0023 5C       		.byte	92
 3254 0024 C5       		.byte	-59
 3255 0025 9E       		.byte	-98
 3256 0026 C5       		.byte	-59
 3257 0027 38       		.byte	56
 3258 0028 92       		.byte	-110
ARM GAS  /var/folders/hv/f19l0kw128sbpybv1h43gz3c0000gn/T//cc0cLUco.s 			page 76


 3259 0029 E6       		.byte	-26
 3260 002a F3       		.byte	-13
 3261 002b 3A       		.byte	58
 3262 002c 73       		.byte	115
 3263 002d BA       		.byte	-70
 3264 002e E5       		.byte	-27
 3265 002f 90       		.byte	-112
 3266 0030 77       		.byte	119
 3267 0031 BA       		.byte	-70
 3268 0032 77       		.byte	119
 3269 0033 3A       		.byte	58
 3270 0034 08       		.byte	8
 3271 0035 40       		.byte	64
 3272 0036 08       		.byte	8
 3273 0037 50       		.byte	80
 3274 0038 2A       		.byte	42
 3275 0039 44       		.byte	68
 3276 003a 1C       		.byte	28
 3277 003b E0       		.byte	-32
 3278 003c 88       		.byte	-120
 3279 003d 52       		.byte	82
 3280 003e E5       		.byte	-27
 3281 003f 08       		.byte	8
 3282 0040 56       		.byte	86
 3283 0041 8E       		.byte	-114
 3284 0042 77       		.byte	119
 3285 0043 B6       		.byte	-74
 3286 0044 77       		.byte	119
 3287 0045 B8       		.byte	-72
 3288 0046 72       		.byte	114
 3289 0047 8C       		.byte	-116
 3290 0048 D6       		.byte	-42
 3291 0049 BA       		.byte	-70
 3292 004a 73       		.byte	115
 3293 004b 9E       		.byte	-98
 3294 004c 73       		.byte	115
 3295 004d 92       		.byte	-110
 3296 004e 72       		.byte	114
 3297 004f AE       		.byte	-82
 3298 0050 B7       		.byte	-73
 3299 0051 B6       		.byte	-74
 3300 0052 E9       		.byte	-23
 3301 0053 5C       		.byte	92
 3302 0054 64       		.byte	100
 3303 0055 AA       		.byte	-86
 3304 0056 B7       		.byte	-73
 3305 0057 B4       		.byte	-76
 3306 0058 92       		.byte	-110
 3307 0059 9C       		.byte	-100
 3308 005a BE       		.byte	-66
 3309 005b B6       		.byte	-74
 3310 005c D6       		.byte	-42
 3311 005d B6       		.byte	-74
 3312 005e 56       		.byte	86
 3313 005f AA       		.byte	-86
 3314 0060 D7       		.byte	-41
 3315 0061 92       		.byte	-110
ARM GAS  /var/folders/hv/f19l0kw128sbpybv1h43gz3c0000gn/T//cc0cLUco.s 			page 77


 3316 0062 76       		.byte	118
 3317 0063 EE       		.byte	-18
 3318 0064 77       		.byte	119
 3319 0065 B4       		.byte	-76
 3320 0066 71       		.byte	113
 3321 0067 38       		.byte	56
 3322 0068 E9       		.byte	-23
 3323 0069 48       		.byte	72
 3324 006a B6       		.byte	-74
 3325 006b AE       		.byte	-82
 3326 006c B6       		.byte	-74
 3327 006d AA       		.byte	-86
 3328 006e B6       		.byte	-74
 3329 006f F6       		.byte	-10
 3330 0070 B5       		.byte	-75
 3331 0071 B4       		.byte	-76
 3332 0072 B5       		.byte	-75
 3333 0073 48       		.byte	72
 3334 0074 E5       		.byte	-27
 3335 0075 9C       		.byte	-100
 3336 0076 69       		.byte	105
 3337 0077 4C       		.byte	76
 3338 0078 91       		.byte	-111
 3339 0079 24       		.byte	36
 3340 007a 64       		.byte	100
 3341 007b 2E       		.byte	46
 3342 007c 54       		.byte	84
 3343 007d 00       		.byte	0
 3344 007e 00       		.byte	0
 3345 007f 1C       		.byte	28
 3346 0080 44       		.byte	68
 3347 0081 00       		.byte	0
 3348 0082 0E       		.byte	14
 3349 0083 AE       		.byte	-82
 3350 0084 9A       		.byte	-102
 3351 0085 BA       		.byte	-70
 3352 0086 0E       		.byte	14
 3353 0087 8C       		.byte	-116
 3354 0088 2E       		.byte	46
 3355 0089 AE       		.byte	-82
 3356 008a 0E       		.byte	14
 3357 008b CE       		.byte	-50
 3358 008c 56       		.byte	86
 3359 008d D0       		.byte	-48
 3360 008e 55       		.byte	85
 3361 008f 3B       		.byte	59
 3362 0090 93       		.byte	-109
 3363 0091 B4       		.byte	-76
 3364 0092 41       		.byte	65
 3365 0093 44       		.byte	68
 3366 0094 41       		.byte	65
 3367 0095 51       		.byte	81
 3368 0096 97       		.byte	-105
 3369 0097 B4       		.byte	-76
 3370 0098 49       		.byte	73
 3371 0099 44       		.byte	68
 3372 009a 17       		.byte	23
ARM GAS  /var/folders/hv/f19l0kw128sbpybv1h43gz3c0000gn/T//cc0cLUco.s 			page 78


 3373 009b B6       		.byte	-74
 3374 009c 1A       		.byte	26
 3375 009d B6       		.byte	-74
 3376 009e 0A       		.byte	10
 3377 009f AA       		.byte	-86
 3378 00a0 D6       		.byte	-42
 3379 00a1 D3       		.byte	-45
 3380 00a2 76       		.byte	118
 3381 00a3 67       		.byte	103
 3382 00a4 17       		.byte	23
 3383 00a5 90       		.byte	-112
 3384 00a6 0F       		.byte	15
 3385 00a7 38       		.byte	56
 3386 00a8 9A       		.byte	-102
 3387 00a9 8C       		.byte	-116
 3388 00aa 16       		.byte	22
 3389 00ab AE       		.byte	-82
 3390 00ac 16       		.byte	22
 3391 00ad BA       		.byte	-70
 3392 00ae 16       		.byte	22
 3393 00af F6       		.byte	-10
 3394 00b0 15       		.byte	21
 3395 00b1 B4       		.byte	-76
 3396 00b2 B5       		.byte	-75
 3397 00b3 2B       		.byte	43
 3398 00b4 1C       		.byte	28
 3399 00b5 5E       		.byte	94
 3400 00b6 6B       		.byte	107
 3401 00b7 4C       		.byte	76
 3402 00b8 49       		.byte	73
 3403 00b9 48       		.byte	72
 3404 00ba C9       		.byte	-55
 3405 00bb 5A       		.byte	90
 3406 00bc 54       		.byte	84
 3407 00bd 00       		.byte	0
 3408 00be 56       		.byte	86
 3409 00bf E2       		.byte	-30
 3410              		.text
 3411              	.Letext0:
 3412              		.file 2 "/Users/luissousa/opt/gcc-arm-none-eabi-8-2018-q4-major/arm-none-eabi/include/machine/_def
 3413              		.file 3 "/Users/luissousa/opt/gcc-arm-none-eabi-8-2018-q4-major/arm-none-eabi/include/sys/_stdint.
 3414              		.file 4 "/Users/luissousa/opt/gcc-arm-none-eabi-8-2018-q4-major/lib/gcc/arm-none-eabi/8.2.1/includ
 3415              		.file 5 "/Users/luissousa/opt/gcc-arm-none-eabi-8-2018-q4-major/arm-none-eabi/include/sys/lock.h"
 3416              		.file 6 "/Users/luissousa/opt/gcc-arm-none-eabi-8-2018-q4-major/arm-none-eabi/include/sys/_types.h
 3417              		.file 7 "/Users/luissousa/opt/gcc-arm-none-eabi-8-2018-q4-major/arm-none-eabi/include/sys/reent.h"
 3418              		.file 8 "Inc/definitions.h"
 3419              		.file 9 "Inc/notes.h"
 3420              		.file 10 "Inc/ws2812.h"
 3421              		.file 11 "Inc/draw.h"
 3422              		.file 12 "/Users/luissousa/opt/gcc-arm-none-eabi-8-2018-q4-major/arm-none-eabi/include/string.h"
ARM GAS  /var/folders/hv/f19l0kw128sbpybv1h43gz3c0000gn/T//cc0cLUco.s 			page 79

