ARM GAS  /var/folders/hv/f19l0kw128sbpybv1h43gz3c0000gn/T//ccU1gGxV.s 			page 1


   1              		.cpu cortex-m4
   2              		.eabi_attribute 27, 1
   3              		.eabi_attribute 28, 1
   4              		.eabi_attribute 20, 1
   5              		.eabi_attribute 21, 1
   6              		.eabi_attribute 23, 3
   7              		.eabi_attribute 24, 1
   8              		.eabi_attribute 25, 1
   9              		.eabi_attribute 26, 1
  10              		.eabi_attribute 30, 1
  11              		.eabi_attribute 34, 1
  12              		.eabi_attribute 18, 4
  13              		.file	"draw.c"
  14              		.text
  15              	.Ltext0:
  16              		.cfi_sections	.debug_frame
  17              		.section	.text.fillFramebuffer,"ax",%progbits
  18              		.align	1
  19              		.global	fillFramebuffer
  20              		.arch armv7e-m
  21              		.syntax unified
  22              		.thumb
  23              		.thumb_func
  24              		.fpu fpv4-sp-d16
  26              	fillFramebuffer:
  27              	.LFB1:
  28              		.file 1 "Src/draw.c"
   1:Src/draw.c    **** #include "stdint.h"
   2:Src/draw.c    **** #include "string.h"
   3:Src/draw.c    **** #include "definitions.h"
   4:Src/draw.c    **** #include "notes.h"
   5:Src/draw.c    **** #include "ws2812.h"
   6:Src/draw.c    **** #include "draw.h"
   7:Src/draw.c    **** 
   8:Src/draw.c    **** drawshape_type drawshape_function;
   9:Src/draw.c    **** drawshape_type drawtext_function;
  10:Src/draw.c    **** 
  11:Src/draw.c    **** uint8_t minColor[3] = {0, 0, 0};
  12:Src/draw.c    **** uint8_t maxColor[3] = {255, 255, 255};
  13:Src/draw.c    **** 
  14:Src/draw.c    **** // uint8_t colorOriginal[12][3] = {
  15:Src/draw.c    **** //     {50, 0, 0},   //red ~~
  16:Src/draw.c    **** //     {50, 25, 0},  //orange ~~
  17:Src/draw.c    **** //     {50, 50, 0},  //amarelo ~~
  18:Src/draw.c    **** //     {50, 38, 0},  //castanho ~~
  19:Src/draw.c    **** //     {0, 50, 36},  //azul turquesa ~~
  20:Src/draw.c    **** //     {25, 0, 50},  //cor de rosa ~~
  21:Src/draw.c    **** //     {50, 0, 25},  //rosa choque ~~
  22:Src/draw.c    **** //     {50, 0, 50},  //violeta escuro ~~
  23:Src/draw.c    **** //     {0, 0, 40},   //azul escuro
  24:Src/draw.c    **** //     {30, 30, 30}, //cinzento
  25:Src/draw.c    **** //     {60, 60, 20}, //branca
  26:Src/draw.c    **** //     {60, 30, 20}}; //red magenta
  27:Src/draw.c    **** 
  28:Src/draw.c    **** uint8_t colorOriginal[12][3] = {
  29:Src/draw.c    ****     {123, 0, 0},    //red ~~
  30:Src/draw.c    ****     {123, 90, 0},   //orange ~~
ARM GAS  /var/folders/hv/f19l0kw128sbpybv1h43gz3c0000gn/T//ccU1gGxV.s 			page 2


  31:Src/draw.c    ****     {123, 123, 0},  //amarelo ~~
  32:Src/draw.c    ****     {123, 109, 0},  //castanho ~~
  33:Src/draw.c    ****     {0, 123, 106},  //azul turquesa ~~
  34:Src/draw.c    ****     {90, 0, 123},   //cor de rosa ~~
  35:Src/draw.c    ****     {123, 0, 90},   //rosa choque ~~
  36:Src/draw.c    ****     {123, 0, 123},  //violeta escuro ~~
  37:Src/draw.c    ****     {0, 0, 112},    //azul escuro
  38:Src/draw.c    ****     {98, 98, 98},   //cinzento
  39:Src/draw.c    ****     {133, 133, 82}, //branca
  40:Src/draw.c    ****     {133, 98, 82}}; //red magenta
  41:Src/draw.c    **** 
  42:Src/draw.c    **** // uint8_t colorBW[12][3] = {
  43:Src/draw.c    **** //     {51, 51, 51},    //red ~~
  44:Src/draw.c    **** //     {62, 62, 62},    //orange ~~
  45:Src/draw.c    **** //     {74, 74, 74},    //amarelo ~~
  46:Src/draw.c    **** //     {85, 85, 85},    //castanho ~~
  47:Src/draw.c    **** //     {96, 96, 96},    //azul turquesa ~~
  48:Src/draw.c    **** //     {108, 108, 108}, //cor de rosa ~~
  49:Src/draw.c    **** //     {119, 119, 119}, //rosa choque ~~
  50:Src/draw.c    **** //     {130, 130, 130}, //violeta escuro ~~
  51:Src/draw.c    **** //     {142, 142, 142}, //azul escuro
  52:Src/draw.c    **** //     {153, 153, 153}, //cinzento
  53:Src/draw.c    **** //     {164, 164, 164}, //branca
  54:Src/draw.c    **** //     {176, 176, 176}}; //red magenta
  55:Src/draw.c    **** 
  56:Src/draw.c    **** uint8_t colorBW[12][3] = {
  57:Src/draw.c    ****     {78, 78, 78},    //red ~~
  58:Src/draw.c    ****     {116, 99, 94},   //orange ~~
  59:Src/draw.c    ****     {101, 105, 105}, //amarelo ~~
  60:Src/draw.c    ****     {72, 72, 36},    //castanho ~~
  61:Src/draw.c    ****     {39, 39, 39},    //azul turquesa ~~
  62:Src/draw.c    ****     {58, 49, 47},    //cor de rosa ~~
  63:Src/draw.c    ****     {50, 53, 53},    //rosa choque ~~
  64:Src/draw.c    ****     {36, 36, 18},    //violeta escuro ~~
  65:Src/draw.c    ****     {117, 117, 117}, //azul escuro
  66:Src/draw.c    ****     {174, 148, 141}, //cinzento
  67:Src/draw.c    ****     {151, 158, 158}, //branca
  68:Src/draw.c    ****     {108, 108, 54}}; //red magenta
  69:Src/draw.c    **** 
  70:Src/draw.c    **** uint8_t (*arrColor)[3];
  71:Src/draw.c    **** 
  72:Src/draw.c    **** const uint8_t font4x6[96][2] = {
  73:Src/draw.c    ****     {0x00, 0x00}, /*SPACE*/
  74:Src/draw.c    ****     {0x49, 0x08}, /*'!'*/
  75:Src/draw.c    ****     {0xb4, 0x00}, /*'"'*/
  76:Src/draw.c    ****     {0xbe, 0xf6}, /*'#'*/
  77:Src/draw.c    ****     {0x7b, 0x7a}, /*'$'*/
  78:Src/draw.c    ****     {0xa5, 0x94}, /*'%'*/
  79:Src/draw.c    ****     {0x55, 0xb8}, /*'&'*/
  80:Src/draw.c    ****     {0x48, 0x00}, /*'''*/
  81:Src/draw.c    ****     {0x29, 0x44}, /*'('*/
  82:Src/draw.c    ****     {0x44, 0x2a}, /*')'*/
  83:Src/draw.c    ****     {0x15, 0xa0}, /*'*'*/
  84:Src/draw.c    ****     {0x0b, 0x42}, /*'+'*/
  85:Src/draw.c    ****     {0x00, 0x50}, /*','*/
  86:Src/draw.c    ****     {0x03, 0x02}, /*'-'*/
  87:Src/draw.c    ****     {0x00, 0x08}, /*'.'*/
ARM GAS  /var/folders/hv/f19l0kw128sbpybv1h43gz3c0000gn/T//ccU1gGxV.s 			page 3


  88:Src/draw.c    ****     {0x25, 0x90}, /*'/'*/
  89:Src/draw.c    ****     {0x76, 0xba}, /*'0'*/
  90:Src/draw.c    ****     {0x59, 0x5c}, /*'1'*/
  91:Src/draw.c    ****     {0xc5, 0x9e}, /*'2'*/
  92:Src/draw.c    ****     {0xc5, 0x38}, /*'3'*/
  93:Src/draw.c    ****     {0x92, 0xe6}, /*'4'*/
  94:Src/draw.c    ****     {0xf3, 0x3a}, /*'5'*/
  95:Src/draw.c    ****     {0x73, 0xba}, /*'6'*/
  96:Src/draw.c    ****     {0xe5, 0x90}, /*'7'*/
  97:Src/draw.c    ****     {0x77, 0xba}, /*'8'*/
  98:Src/draw.c    ****     {0x77, 0x3a}, /*'9'*/
  99:Src/draw.c    ****     {0x08, 0x40}, /*':'*/
 100:Src/draw.c    ****     {0x08, 0x50}, /*';'*/
 101:Src/draw.c    ****     {0x2a, 0x44}, /*'<'*/
 102:Src/draw.c    ****     {0x1c, 0xe0}, /*'='*/
 103:Src/draw.c    ****     {0x88, 0x52}, /*'>'*/
 104:Src/draw.c    ****     {0xe5, 0x08}, /*'?'*/
 105:Src/draw.c    ****     {0x56, 0x8e}, /*'@'*/
 106:Src/draw.c    ****     {0x77, 0xb6}, /*'A'*/
 107:Src/draw.c    ****     {0x77, 0xb8}, /*'B'*/
 108:Src/draw.c    ****     {0x72, 0x8c}, /*'C'*/
 109:Src/draw.c    ****     {0xd6, 0xba}, /*'D'*/
 110:Src/draw.c    ****     {0x73, 0x9e}, /*'E'*/
 111:Src/draw.c    ****     {0x73, 0x92}, /*'F'*/
 112:Src/draw.c    ****     {0x72, 0xae}, /*'G'*/
 113:Src/draw.c    ****     {0xb7, 0xb6}, /*'H'*/
 114:Src/draw.c    ****     {0xe9, 0x5c}, /*'I'*/
 115:Src/draw.c    ****     {0x64, 0xaa}, /*'J'*/
 116:Src/draw.c    ****     {0xb7, 0xb4}, /*'K'*/
 117:Src/draw.c    ****     {0x92, 0x9c}, /*'L'*/
 118:Src/draw.c    ****     {0xbe, 0xb6}, /*'M'*/
 119:Src/draw.c    ****     {0xd6, 0xb6}, /*'N'*/
 120:Src/draw.c    ****     {0x56, 0xaa}, /*'O'*/
 121:Src/draw.c    ****     {0xd7, 0x92}, /*'P'*/
 122:Src/draw.c    ****     {0x76, 0xee}, /*'Q'*/
 123:Src/draw.c    ****     {0x77, 0xb4}, /*'R'*/
 124:Src/draw.c    ****     {0x71, 0x38}, /*'S'*/
 125:Src/draw.c    ****     {0xe9, 0x48}, /*'T'*/
 126:Src/draw.c    ****     {0xb6, 0xae}, /*'U'*/
 127:Src/draw.c    ****     {0xb6, 0xaa}, /*'V'*/
 128:Src/draw.c    ****     {0xb6, 0xf6}, /*'W'*/
 129:Src/draw.c    ****     {0xb5, 0xb4}, /*'X'*/
 130:Src/draw.c    ****     {0xb5, 0x48}, /*'Y'*/
 131:Src/draw.c    ****     {0xe5, 0x9c}, /*'Z'*/
 132:Src/draw.c    ****     {0x69, 0x4c}, /*'['*/
 133:Src/draw.c    ****     {0x91, 0x24}, /*'\'*/
 134:Src/draw.c    ****     {0x64, 0x2e}, /*']'*/
 135:Src/draw.c    ****     {0x54, 0x00}, /*'^'*/
 136:Src/draw.c    ****     {0x00, 0x1c}, /*'_'*/
 137:Src/draw.c    ****     {0x44, 0x00}, /*'`'*/
 138:Src/draw.c    ****     {0x0e, 0xae}, /*'a'*/
 139:Src/draw.c    ****     {0x9a, 0xba}, /*'b'*/
 140:Src/draw.c    ****     {0x0e, 0x8c}, /*'c'*/
 141:Src/draw.c    ****     {0x2e, 0xae}, /*'d'*/
 142:Src/draw.c    ****     {0x0e, 0xce}, /*'e'*/
 143:Src/draw.c    ****     {0x56, 0xd0}, /*'f'*/
 144:Src/draw.c    ****     {0x55, 0x3B}, /*'g'*/
ARM GAS  /var/folders/hv/f19l0kw128sbpybv1h43gz3c0000gn/T//ccU1gGxV.s 			page 4


 145:Src/draw.c    ****     {0x93, 0xb4}, /*'h'*/
 146:Src/draw.c    ****     {0x41, 0x44}, /*'i'*/
 147:Src/draw.c    ****     {0x41, 0x51}, /*'j'*/
 148:Src/draw.c    ****     {0x97, 0xb4}, /*'k'*/
 149:Src/draw.c    ****     {0x49, 0x44}, /*'l'*/
 150:Src/draw.c    ****     {0x17, 0xb6}, /*'m'*/
 151:Src/draw.c    ****     {0x1a, 0xb6}, /*'n'*/
 152:Src/draw.c    ****     {0x0a, 0xaa}, /*'o'*/
 153:Src/draw.c    ****     {0xd6, 0xd3}, /*'p'*/
 154:Src/draw.c    ****     {0x76, 0x67}, /*'q'*/
 155:Src/draw.c    ****     {0x17, 0x90}, /*'r'*/
 156:Src/draw.c    ****     {0x0f, 0x38}, /*'s'*/
 157:Src/draw.c    ****     {0x9a, 0x8c}, /*'t'*/
 158:Src/draw.c    ****     {0x16, 0xae}, /*'u'*/
 159:Src/draw.c    ****     {0x16, 0xba}, /*'v'*/
 160:Src/draw.c    ****     {0x16, 0xf6}, /*'w'*/
 161:Src/draw.c    ****     {0x15, 0xb4}, /*'x'*/
 162:Src/draw.c    ****     {0xb5, 0x2b}, /*'y'*/
 163:Src/draw.c    ****     {0x1c, 0x5e}, /*'z'*/
 164:Src/draw.c    ****     {0x6b, 0x4c}, /*'{'*/
 165:Src/draw.c    ****     {0x49, 0x48}, /*'|'*/
 166:Src/draw.c    ****     {0xc9, 0x5a}, /*'}'*/
 167:Src/draw.c    ****     {0x54, 0x00}, /*'~'*/
 168:Src/draw.c    ****     {0x56, 0xe2}  /*''*/
 169:Src/draw.c    **** };
 170:Src/draw.c    **** 
 171:Src/draw.c    **** uint8_t orientation = 0;
 172:Src/draw.c    **** uint8_t MAX_DIV = 3;
 173:Src/draw.c    **** float MAX_BRIGHT = 0.1;
 174:Src/draw.c    **** uint8_t MODE_BACK = 1;
 175:Src/draw.c    **** uint8_t MODE_TEXT = 0;
 176:Src/draw.c    **** callback_type callback_function;
 177:Src/draw.c    **** 
 178:Src/draw.c    **** static inline uint8_t callback(int8_t x, int8_t y, float layer)
 179:Src/draw.c    **** {
 180:Src/draw.c    ****   if (callback_function)
 181:Src/draw.c    ****   {
 182:Src/draw.c    ****     return (*callback_function)(x, y, layer);
 183:Src/draw.c    ****   }
 184:Src/draw.c    ****   return 0;
 185:Src/draw.c    **** }
 186:Src/draw.c    **** 
 187:Src/draw.c    **** void fillFramebuffer(void)
 188:Src/draw.c    **** {
  29              		.loc 1 188 1 view -0
  30              		.cfi_startproc
  31              		@ args = 0, pretend = 0, frame = 8
  32              		@ frame_needed = 0, uses_anonymous_args = 0
  33 0000 2DE9F043 		push	{r4, r5, r6, r7, r8, r9, lr}
  34              	.LCFI0:
  35              		.cfi_def_cfa_offset 28
  36              		.cfi_offset 4, -28
  37              		.cfi_offset 5, -24
  38              		.cfi_offset 6, -20
  39              		.cfi_offset 7, -16
  40              		.cfi_offset 8, -12
  41              		.cfi_offset 9, -8
ARM GAS  /var/folders/hv/f19l0kw128sbpybv1h43gz3c0000gn/T//ccU1gGxV.s 			page 5


  42              		.cfi_offset 14, -4
  43 0004 85B0     		sub	sp, sp, #20
  44              	.LCFI1:
  45              		.cfi_def_cfa_offset 48
 189:Src/draw.c    ****   uint8_t mod, tempPoint[3], invI, invJ, invX;
  46              		.loc 1 189 3 view .LVU1
 190:Src/draw.c    ****   uint16_t coords, tmp = 0;
  47              		.loc 1 190 3 view .LVU2
  48              	.LVL0:
 191:Src/draw.c    **** #if REVERSE_ORIENTATION
 192:Src/draw.c    ****   for (uint8_t x = 0; x < NCOLS; x++)
 193:Src/draw.c    ****   {
 194:Src/draw.c    ****     for (uint8_t i = 0; i < NCHANNELS; i++)
 195:Src/draw.c    ****     {
 196:Src/draw.c    ****       for (uint8_t j = 0; j < NLINESCH; j++)
 197:Src/draw.c    ****       {
 198:Src/draw.c    ****         mod = j % 2;
 199:Src/draw.c    ****         if ((j + (i * NLINESCH)) > NCOLSL)
 200:Src/draw.c    ****           break;
 201:Src/draw.c    ****         coords = j + (i * NLINESCH) + (x * NCOLS);
 202:Src/draw.c    **** 
 203:Src/draw.c    **** #if MIRROR_X
 204:Src/draw.c    ****         invX = mod ? NCOLSL - x : x;
 205:Src/draw.c    **** #if MIRROR_Y
 206:Src/draw.c    ****         invI = i;
 207:Src/draw.c    ****         invJ = j;
 208:Src/draw.c    **** #else
 209:Src/draw.c    ****         invI = NCHANNELS - 1 - i;
 210:Src/draw.c    ****         invJ = NLINESCH - 1 - j;
 211:Src/draw.c    **** #endif
 212:Src/draw.c    **** #else
 213:Src/draw.c    ****         invX = mod ? x : NCOLSL - x;
 214:Src/draw.c    **** #if MIRROR_Y
 215:Src/draw.c    ****         invI = NCHANNELS - 1 - i;
 216:Src/draw.c    ****         invJ = NLINESCH - 1 - j;
 217:Src/draw.c    **** #else
 218:Src/draw.c    ****         invI = i;
 219:Src/draw.c    ****         invJ = j;
 220:Src/draw.c    **** #endif
 221:Src/draw.c    **** #endif
 222:Src/draw.c    **** #else
 223:Src/draw.c    ****   for (uint8_t i = 0; i < NCHANNELS; i++)
  49              		.loc 1 223 3 view .LVU3
  50              	.LBB17:
  51              		.loc 1 223 8 view .LVU4
  52              		.loc 1 223 16 is_stmt 0 view .LVU5
  53 0006 0025     		movs	r5, #0
  54              		.loc 1 223 3 view .LVU6
  55 0008 56E0     		b	.L2
  56              	.LVL1:
  57              	.L12:
  58              	.LBB18:
  59              	.LBB19:
 224:Src/draw.c    ****   {
 225:Src/draw.c    ****     for (uint8_t j = 0; j < NLINESCH; j++)
 226:Src/draw.c    ****     {
 227:Src/draw.c    ****       mod = j % 2;
ARM GAS  /var/folders/hv/f19l0kw128sbpybv1h43gz3c0000gn/T//ccU1gGxV.s 			page 6


 228:Src/draw.c    ****       for (uint8_t x = 0; x < NCOLS; x++)
 229:Src/draw.c    ****       {
 230:Src/draw.c    ****         if ((x + (j * NCOLS) + (i * NLEDSCH)) > NLEDSL)
 231:Src/draw.c    ****           break;
 232:Src/draw.c    ****         coords = x + (j * NCOLS) + (i * NLEDSCH);
 233:Src/draw.c    **** 
 234:Src/draw.c    **** #if MIRROR_X
 235:Src/draw.c    ****         invX = mod ? x : NCOLSL - x;
  60              		.loc 1 235 14 view .LVU7
  61 000a A146     		mov	r9, r4
  62 000c 33E0     		b	.L5
  63              	.LVL2:
  64              	.L15:
 236:Src/draw.c    **** #else
 237:Src/draw.c    ****         invX = mod ? NCOLSL - x : x;
 238:Src/draw.c    **** #endif
 239:Src/draw.c    **** #if MIRROR_Y
 240:Src/draw.c    ****         invI = NCHANNELS - 1 - i;
 241:Src/draw.c    ****         invJ = NLINESCH - 1 - j;
 242:Src/draw.c    **** #else
 243:Src/draw.c    ****         invI = i;
 244:Src/draw.c    ****         invJ = j;
 245:Src/draw.c    **** #endif
 246:Src/draw.c    **** #endif
 247:Src/draw.c    **** #if COLOR_1BIT
 248:Src/draw.c    ****         tmp = BIT_CHECK(textLayer[DIV_8(coords)], REST_8(coords));
 249:Src/draw.c    ****         if (tmp)
 250:Src/draw.c    ****           setColorFB(tempPoint, textColor);
 251:Src/draw.c    **** #else
 252:Src/draw.c    ****         tmp = textLayer[coords][0] + textLayer[coords][1] + textLayer[coords][2];
 253:Src/draw.c    ****         if (tmp == 765) //255+255+255
 254:Src/draw.c    ****           setColorFadeFB(tempPoint, backLayer[coords]);
  65              		.loc 1 254 11 is_stmt 1 view .LVU8
  66              		.loc 1 254 46 is_stmt 0 view .LVU9
  67 000e 01EB4101 		add	r1, r1, r1, lsl #1
  68              	.LVL3:
  69              		.loc 1 254 11 view .LVU10
  70 0012 2D4B     		ldr	r3, .L18
  71              	.LVL4:
  72              		.loc 1 254 11 view .LVU11
  73 0014 1944     		add	r1, r1, r3
  74 0016 03A8     		add	r0, sp, #12
  75              	.LVL5:
  76              		.loc 1 254 11 view .LVU12
  77 0018 FFF7FEFF 		bl	setColorFadeFB
  78              	.LVL6:
  79              		.loc 1 254 11 view .LVU13
  80 001c 06E0     		b	.L7
  81              	.LVL7:
  82              	.L8:
 255:Src/draw.c    ****         else if (tmp)
 256:Src/draw.c    ****           setColorFB(tempPoint, textLayer[coords]);
 257:Src/draw.c    **** #endif
 258:Src/draw.c    ****         else
 259:Src/draw.c    ****           setColorFB(tempPoint, backLayer[coords]);
  83              		.loc 1 259 11 is_stmt 1 view .LVU14
  84              		.loc 1 259 42 is_stmt 0 view .LVU15
ARM GAS  /var/folders/hv/f19l0kw128sbpybv1h43gz3c0000gn/T//ccU1gGxV.s 			page 7


  85 001e 01EB4101 		add	r1, r1, r1, lsl #1
  86              	.LVL8:
  87              		.loc 1 259 11 view .LVU16
  88 0022 294B     		ldr	r3, .L18
  89              	.LVL9:
  90              		.loc 1 259 11 view .LVU17
  91 0024 1944     		add	r1, r1, r3
  92 0026 03A8     		add	r0, sp, #12
  93              	.LVL10:
  94              		.loc 1 259 11 view .LVU18
  95 0028 FFF7FEFF 		bl	setColorFB
  96              	.LVL11:
  97              	.L7:
 260:Src/draw.c    **** 
 261:Src/draw.c    ****         WS2812_framedata_setPixel(invI, invX + (invJ * NCOLS), tempPoint[0], tempPoint[1], tempPoin
  98              		.loc 1 261 9 is_stmt 1 discriminator 2 view .LVU19
  99 002c 09EB0611 		add	r1, r9, r6, lsl #4
 100 0030 9DF80E30 		ldrb	r3, [sp, #14]	@ zero_extendqisi2
 101 0034 0093     		str	r3, [sp]
 102 0036 9DF80D30 		ldrb	r3, [sp, #13]	@ zero_extendqisi2
 103 003a 9DF80C20 		ldrb	r2, [sp, #12]	@ zero_extendqisi2
 104 003e 89B2     		uxth	r1, r1
 105 0040 2846     		mov	r0, r5
 106 0042 FFF7FEFF 		bl	WS2812_framedata_setPixel
 107              	.LVL12:
 228:Src/draw.c    ****       {
 108              		.loc 1 228 39 is_stmt 0 discriminator 2 view .LVU20
 109 0046 0134     		adds	r4, r4, #1
 110              	.LVL13:
 228:Src/draw.c    ****       {
 111              		.loc 1 228 39 discriminator 2 view .LVU21
 112 0048 E4B2     		uxtb	r4, r4
 113              	.LVL14:
 114              	.L3:
 228:Src/draw.c    ****       {
 115              		.loc 1 228 7 discriminator 1 view .LVU22
 116 004a 0F2C     		cmp	r4, #15
 117 004c 2AD8     		bhi	.L4
 230:Src/draw.c    ****           break;
 118              		.loc 1 230 9 is_stmt 1 view .LVU23
 230:Src/draw.c    ****           break;
 119              		.loc 1 230 16 is_stmt 0 view .LVU24
 120 004e 04EB0713 		add	r3, r4, r7, lsl #4
 230:Src/draw.c    ****           break;
 121              		.loc 1 230 30 view .LVU25
 122 0052 03EB4513 		add	r3, r3, r5, lsl #5
 230:Src/draw.c    ****           break;
 123              		.loc 1 230 12 view .LVU26
 124 0056 FF2B     		cmp	r3, #255
 125 0058 24DC     		bgt	.L4
 232:Src/draw.c    **** 
 126              		.loc 1 232 9 is_stmt 1 view .LVU27
 232:Src/draw.c    **** 
 127              		.loc 1 232 34 is_stmt 0 view .LVU28
 128 005a BEB2     		uxth	r6, r7
 129 005c 06EB4501 		add	r1, r6, r5, lsl #1
 130 0060 0901     		lsls	r1, r1, #4
ARM GAS  /var/folders/hv/f19l0kw128sbpybv1h43gz3c0000gn/T//ccU1gGxV.s 			page 8


 131 0062 89B2     		uxth	r1, r1
 232:Src/draw.c    **** 
 132              		.loc 1 232 16 view .LVU29
 133 0064 2144     		add	r1, r1, r4
 134 0066 89B2     		uxth	r1, r1
 135              	.LVL15:
 235:Src/draw.c    **** #else
 136              		.loc 1 235 9 is_stmt 1 view .LVU30
 235:Src/draw.c    **** #else
 137              		.loc 1 235 14 is_stmt 0 view .LVU31
 138 0068 B8F1000F 		cmp	r8, #0
 139 006c CDD1     		bne	.L12
 235:Src/draw.c    **** #else
 140              		.loc 1 235 14 discriminator 1 view .LVU32
 141 006e C4F10F09 		rsb	r9, r4, #15
 142 0072 5FFA89F9 		uxtb	r9, r9
 143              	.L5:
 144              	.LVL16:
 243:Src/draw.c    ****         invJ = j;
 145              		.loc 1 243 9 is_stmt 1 discriminator 4 view .LVU33
 244:Src/draw.c    **** #endif
 146              		.loc 1 244 9 discriminator 4 view .LVU34
 252:Src/draw.c    ****         if (tmp == 765) //255+255+255
 147              		.loc 1 252 9 discriminator 4 view .LVU35
 252:Src/draw.c    ****         if (tmp == 765) //255+255+255
 148              		.loc 1 252 32 is_stmt 0 discriminator 4 view .LVU36
 149 0076 1548     		ldr	r0, .L18+4
 150 0078 01EB4103 		add	r3, r1, r1, lsl #1
 151 007c C218     		adds	r2, r0, r3
 152 007e C35C     		ldrb	r3, [r0, r3]	@ zero_extendqisi2
 252:Src/draw.c    ****         if (tmp == 765) //255+255+255
 153              		.loc 1 252 55 discriminator 4 view .LVU37
 154 0080 5078     		ldrb	r0, [r2, #1]	@ zero_extendqisi2
 252:Src/draw.c    ****         if (tmp == 765) //255+255+255
 155              		.loc 1 252 36 discriminator 4 view .LVU38
 156 0082 0344     		add	r3, r3, r0
 252:Src/draw.c    ****         if (tmp == 765) //255+255+255
 157              		.loc 1 252 78 discriminator 4 view .LVU39
 158 0084 9278     		ldrb	r2, [r2, #2]	@ zero_extendqisi2
 252:Src/draw.c    ****         if (tmp == 765) //255+255+255
 159              		.loc 1 252 13 discriminator 4 view .LVU40
 160 0086 1344     		add	r3, r3, r2
 161              	.LVL17:
 253:Src/draw.c    ****           setColorFadeFB(tempPoint, backLayer[coords]);
 162              		.loc 1 253 9 is_stmt 1 discriminator 4 view .LVU41
 253:Src/draw.c    ****           setColorFadeFB(tempPoint, backLayer[coords]);
 163              		.loc 1 253 12 is_stmt 0 discriminator 4 view .LVU42
 164 0088 40F2FD22 		movw	r2, #765
 165 008c 9342     		cmp	r3, r2
 166 008e BED0     		beq	.L15
 255:Src/draw.c    ****           setColorFB(tempPoint, textLayer[coords]);
 167              		.loc 1 255 14 is_stmt 1 view .LVU43
 255:Src/draw.c    ****           setColorFB(tempPoint, textLayer[coords]);
 168              		.loc 1 255 17 is_stmt 0 view .LVU44
 169 0090 002B     		cmp	r3, #0
 170 0092 C4D0     		beq	.L8
 256:Src/draw.c    **** #endif
ARM GAS  /var/folders/hv/f19l0kw128sbpybv1h43gz3c0000gn/T//ccU1gGxV.s 			page 9


 171              		.loc 1 256 11 is_stmt 1 view .LVU45
 256:Src/draw.c    **** #endif
 172              		.loc 1 256 42 is_stmt 0 view .LVU46
 173 0094 01EB4101 		add	r1, r1, r1, lsl #1
 174              	.LVL18:
 256:Src/draw.c    **** #endif
 175              		.loc 1 256 11 view .LVU47
 176 0098 0C4B     		ldr	r3, .L18+4
 177              	.LVL19:
 256:Src/draw.c    **** #endif
 178              		.loc 1 256 11 view .LVU48
 179 009a 1944     		add	r1, r1, r3
 180              	.LVL20:
 256:Src/draw.c    **** #endif
 181              		.loc 1 256 11 view .LVU49
 182 009c 03A8     		add	r0, sp, #12
 183              	.LVL21:
 256:Src/draw.c    **** #endif
 184              		.loc 1 256 11 view .LVU50
 185 009e FFF7FEFF 		bl	setColorFB
 186              	.LVL22:
 256:Src/draw.c    **** #endif
 187              		.loc 1 256 11 view .LVU51
 188 00a2 C3E7     		b	.L7
 189              	.LVL23:
 190              	.L4:
 256:Src/draw.c    **** #endif
 191              		.loc 1 256 11 view .LVU52
 192              	.LBE19:
 225:Src/draw.c    ****     {
 193              		.loc 1 225 40 discriminator 2 view .LVU53
 194 00a4 0137     		adds	r7, r7, #1
 195              	.LVL24:
 225:Src/draw.c    ****     {
 196              		.loc 1 225 40 discriminator 2 view .LVU54
 197 00a6 FFB2     		uxtb	r7, r7
 198              	.LVL25:
 199              	.L11:
 225:Src/draw.c    ****     {
 200              		.loc 1 225 5 discriminator 1 view .LVU55
 201 00a8 012F     		cmp	r7, #1
 202 00aa 03D8     		bhi	.L16
 227:Src/draw.c    ****       for (uint8_t x = 0; x < NCOLS; x++)
 203              		.loc 1 227 7 is_stmt 1 view .LVU56
 227:Src/draw.c    ****       for (uint8_t x = 0; x < NCOLS; x++)
 204              		.loc 1 227 11 is_stmt 0 view .LVU57
 205 00ac 07F00108 		and	r8, r7, #1
 206              	.LVL26:
 228:Src/draw.c    ****       {
 207              		.loc 1 228 7 is_stmt 1 view .LVU58
 208              	.LBB20:
 228:Src/draw.c    ****       {
 209              		.loc 1 228 12 view .LVU59
 228:Src/draw.c    ****       {
 210              		.loc 1 228 20 is_stmt 0 view .LVU60
 211 00b0 0024     		movs	r4, #0
 228:Src/draw.c    ****       {
ARM GAS  /var/folders/hv/f19l0kw128sbpybv1h43gz3c0000gn/T//ccU1gGxV.s 			page 10


 212              		.loc 1 228 7 view .LVU61
 213 00b2 CAE7     		b	.L3
 214              	.LVL27:
 215              	.L16:
 228:Src/draw.c    ****       {
 216              		.loc 1 228 7 view .LVU62
 217              	.LBE20:
 218              	.LBE18:
 223:Src/draw.c    ****   {
 219              		.loc 1 223 39 discriminator 2 view .LVU63
 220 00b4 0135     		adds	r5, r5, #1
 221              	.LVL28:
 223:Src/draw.c    ****   {
 222              		.loc 1 223 39 discriminator 2 view .LVU64
 223 00b6 EDB2     		uxtb	r5, r5
 224              	.LVL29:
 225              	.L2:
 223:Src/draw.c    ****   {
 226              		.loc 1 223 3 discriminator 1 view .LVU65
 227 00b8 072D     		cmp	r5, #7
 228 00ba 01D8     		bhi	.L17
 229              	.LBB21:
 225:Src/draw.c    ****     {
 230              		.loc 1 225 18 view .LVU66
 231 00bc 0027     		movs	r7, #0
 232 00be F3E7     		b	.L11
 233              	.L17:
 234              	.LBE21:
 235              	.LBE17:
 262:Src/draw.c    ****       }
 263:Src/draw.c    ****     }
 264:Src/draw.c    ****   }
 265:Src/draw.c    **** }
 236              		.loc 1 265 1 view .LVU67
 237 00c0 05B0     		add	sp, sp, #20
 238              	.LCFI2:
 239              		.cfi_def_cfa_offset 28
 240              		@ sp needed
 241 00c2 BDE8F083 		pop	{r4, r5, r6, r7, r8, r9, pc}
 242              	.LVL30:
 243              	.L19:
 244              		.loc 1 265 1 view .LVU68
 245 00c6 00BF     		.align	2
 246              	.L18:
 247 00c8 00000000 		.word	backLayer
 248 00cc 00000000 		.word	textLayer
 249              		.cfi_endproc
 250              	.LFE1:
 252              		.section	.text.clearBack,"ax",%progbits
 253              		.align	1
 254              		.global	clearBack
 255              		.syntax unified
 256              		.thumb
 257              		.thumb_func
 258              		.fpu fpv4-sp-d16
 260              	clearBack:
 261              	.LFB2:
ARM GAS  /var/folders/hv/f19l0kw128sbpybv1h43gz3c0000gn/T//ccU1gGxV.s 			page 11


 266:Src/draw.c    **** 
 267:Src/draw.c    **** void clearBack(void)
 268:Src/draw.c    **** {
 262              		.loc 1 268 1 is_stmt 1 view -0
 263              		.cfi_startproc
 264              		@ args = 0, pretend = 0, frame = 0
 265              		@ frame_needed = 0, uses_anonymous_args = 0
 266 0000 38B5     		push	{r3, r4, r5, lr}
 267              	.LCFI3:
 268              		.cfi_def_cfa_offset 16
 269              		.cfi_offset 3, -16
 270              		.cfi_offset 4, -12
 271              		.cfi_offset 5, -8
 272              		.cfi_offset 14, -4
 269:Src/draw.c    ****   for (uint8_t y = 0; y < NCOLS; y++)
 273              		.loc 1 269 3 view .LVU70
 274              	.LBB22:
 275              		.loc 1 269 8 view .LVU71
 276              	.LVL31:
 277              		.loc 1 269 16 is_stmt 0 view .LVU72
 278 0002 0025     		movs	r5, #0
 279              		.loc 1 269 3 view .LVU73
 280 0004 01E0     		b	.L21
 281              	.LVL32:
 282              	.L27:
 283              		.loc 1 269 35 discriminator 2 view .LVU74
 284 0006 0135     		adds	r5, r5, #1
 285              	.LVL33:
 286              		.loc 1 269 35 discriminator 2 view .LVU75
 287 0008 EDB2     		uxtb	r5, r5
 288              	.LVL34:
 289              	.L21:
 290              		.loc 1 269 3 discriminator 1 view .LVU76
 291 000a 0F2D     		cmp	r5, #15
 292 000c 0ED8     		bhi	.L26
 293              	.LBB23:
 270:Src/draw.c    ****   {
 271:Src/draw.c    ****     for (uint8_t x = 0; x < NCOLS; x++)
 294              		.loc 1 271 18 view .LVU77
 295 000e 0024     		movs	r4, #0
 296              	.L23:
 297              	.LVL35:
 298              		.loc 1 271 5 discriminator 1 view .LVU78
 299 0010 0F2C     		cmp	r4, #15
 300 0012 F8D8     		bhi	.L27
 272:Src/draw.c    ****     {
 273:Src/draw.c    ****       setColor(backLayer[x + (y * NCOLS)], minColor);
 301              		.loc 1 273 7 is_stmt 1 discriminator 3 view .LVU79
 302              		.loc 1 273 28 is_stmt 0 discriminator 3 view .LVU80
 303 0014 04EB0510 		add	r0, r4, r5, lsl #4
 304              		.loc 1 273 25 discriminator 3 view .LVU81
 305 0018 00EB4000 		add	r0, r0, r0, lsl #1
 306              		.loc 1 273 7 discriminator 3 view .LVU82
 307 001c 0449     		ldr	r1, .L28
 308 001e 054B     		ldr	r3, .L28+4
 309 0020 1844     		add	r0, r0, r3
 310 0022 FFF7FEFF 		bl	setColor
ARM GAS  /var/folders/hv/f19l0kw128sbpybv1h43gz3c0000gn/T//ccU1gGxV.s 			page 12


 311              	.LVL36:
 271:Src/draw.c    ****     {
 312              		.loc 1 271 37 discriminator 3 view .LVU83
 313 0026 0134     		adds	r4, r4, #1
 314              	.LVL37:
 271:Src/draw.c    ****     {
 315              		.loc 1 271 37 discriminator 3 view .LVU84
 316 0028 E4B2     		uxtb	r4, r4
 317              	.LVL38:
 271:Src/draw.c    ****     {
 318              		.loc 1 271 37 discriminator 3 view .LVU85
 319 002a F1E7     		b	.L23
 320              	.LVL39:
 321              	.L26:
 271:Src/draw.c    ****     {
 322              		.loc 1 271 37 discriminator 3 view .LVU86
 323              	.LBE23:
 324              	.LBE22:
 274:Src/draw.c    ****     }
 275:Src/draw.c    ****   }
 276:Src/draw.c    **** }
 325              		.loc 1 276 1 view .LVU87
 326 002c 38BD     		pop	{r3, r4, r5, pc}
 327              	.LVL40:
 328              	.L29:
 329              		.loc 1 276 1 view .LVU88
 330 002e 00BF     		.align	2
 331              	.L28:
 332 0030 00000000 		.word	.LANCHOR0
 333 0034 00000000 		.word	backLayer
 334              		.cfi_endproc
 335              	.LFE2:
 337              		.section	.text.clearText,"ax",%progbits
 338              		.align	1
 339              		.global	clearText
 340              		.syntax unified
 341              		.thumb
 342              		.thumb_func
 343              		.fpu fpv4-sp-d16
 345              	clearText:
 346              	.LFB3:
 277:Src/draw.c    **** 
 278:Src/draw.c    **** void clearText(void)
 279:Src/draw.c    **** {
 347              		.loc 1 279 1 is_stmt 1 view -0
 348              		.cfi_startproc
 349              		@ args = 0, pretend = 0, frame = 0
 350              		@ frame_needed = 0, uses_anonymous_args = 0
 351 0000 38B5     		push	{r3, r4, r5, lr}
 352              	.LCFI4:
 353              		.cfi_def_cfa_offset 16
 354              		.cfi_offset 3, -16
 355              		.cfi_offset 4, -12
 356              		.cfi_offset 5, -8
 357              		.cfi_offset 14, -4
 280:Src/draw.c    **** #if COLOR_1BIT
 281:Src/draw.c    ****   for (uint8_t i = 0; i < NLEDSBIT; i++)
ARM GAS  /var/folders/hv/f19l0kw128sbpybv1h43gz3c0000gn/T//ccU1gGxV.s 			page 13


 282:Src/draw.c    ****   {
 283:Src/draw.c    ****     textLayer[i] = 0;
 284:Src/draw.c    ****   }
 285:Src/draw.c    **** #else
 286:Src/draw.c    ****   for (uint8_t y = 0; y < NCOLS; y++)
 358              		.loc 1 286 3 view .LVU90
 359              	.LBB24:
 360              		.loc 1 286 8 view .LVU91
 361              	.LVL41:
 362              		.loc 1 286 16 is_stmt 0 view .LVU92
 363 0002 0025     		movs	r5, #0
 364              		.loc 1 286 3 view .LVU93
 365 0004 01E0     		b	.L31
 366              	.LVL42:
 367              	.L37:
 368              		.loc 1 286 35 discriminator 2 view .LVU94
 369 0006 0135     		adds	r5, r5, #1
 370              	.LVL43:
 371              		.loc 1 286 35 discriminator 2 view .LVU95
 372 0008 EDB2     		uxtb	r5, r5
 373              	.LVL44:
 374              	.L31:
 375              		.loc 1 286 3 discriminator 1 view .LVU96
 376 000a 0F2D     		cmp	r5, #15
 377 000c 0ED8     		bhi	.L36
 378              	.LBB25:
 287:Src/draw.c    ****   {
 288:Src/draw.c    ****     for (uint8_t x = 0; x < NCOLS; x++)
 379              		.loc 1 288 18 view .LVU97
 380 000e 0024     		movs	r4, #0
 381              	.L33:
 382              	.LVL45:
 383              		.loc 1 288 5 discriminator 1 view .LVU98
 384 0010 0F2C     		cmp	r4, #15
 385 0012 F8D8     		bhi	.L37
 289:Src/draw.c    ****     {
 290:Src/draw.c    ****       setColor(textLayer[x + (y * NCOLS)], minColor);
 386              		.loc 1 290 7 is_stmt 1 discriminator 3 view .LVU99
 387              		.loc 1 290 28 is_stmt 0 discriminator 3 view .LVU100
 388 0014 04EB0510 		add	r0, r4, r5, lsl #4
 389              		.loc 1 290 25 discriminator 3 view .LVU101
 390 0018 00EB4000 		add	r0, r0, r0, lsl #1
 391              		.loc 1 290 7 discriminator 3 view .LVU102
 392 001c 0449     		ldr	r1, .L38
 393 001e 054B     		ldr	r3, .L38+4
 394 0020 1844     		add	r0, r0, r3
 395 0022 FFF7FEFF 		bl	setColor
 396              	.LVL46:
 288:Src/draw.c    ****     {
 397              		.loc 1 288 37 discriminator 3 view .LVU103
 398 0026 0134     		adds	r4, r4, #1
 399              	.LVL47:
 288:Src/draw.c    ****     {
 400              		.loc 1 288 37 discriminator 3 view .LVU104
 401 0028 E4B2     		uxtb	r4, r4
 402              	.LVL48:
 288:Src/draw.c    ****     {
ARM GAS  /var/folders/hv/f19l0kw128sbpybv1h43gz3c0000gn/T//ccU1gGxV.s 			page 14


 403              		.loc 1 288 37 discriminator 3 view .LVU105
 404 002a F1E7     		b	.L33
 405              	.LVL49:
 406              	.L36:
 288:Src/draw.c    ****     {
 407              		.loc 1 288 37 discriminator 3 view .LVU106
 408              	.LBE25:
 409              	.LBE24:
 291:Src/draw.c    ****     }
 292:Src/draw.c    ****   }
 293:Src/draw.c    **** #endif
 294:Src/draw.c    **** }
 410              		.loc 1 294 1 view .LVU107
 411 002c 38BD     		pop	{r3, r4, r5, pc}
 412              	.LVL50:
 413              	.L39:
 414              		.loc 1 294 1 view .LVU108
 415 002e 00BF     		.align	2
 416              	.L38:
 417 0030 00000000 		.word	.LANCHOR0
 418 0034 00000000 		.word	textLayer
 419              		.cfi_endproc
 420              	.LFE3:
 422              		.section	.text.clearFramebuffer,"ax",%progbits
 423              		.align	1
 424              		.global	clearFramebuffer
 425              		.syntax unified
 426              		.thumb
 427              		.thumb_func
 428              		.fpu fpv4-sp-d16
 430              	clearFramebuffer:
 431              	.LFB4:
 295:Src/draw.c    **** 
 296:Src/draw.c    **** void clearFramebuffer(void)
 297:Src/draw.c    **** {
 432              		.loc 1 297 1 is_stmt 1 view -0
 433              		.cfi_startproc
 434              		@ args = 0, pretend = 0, frame = 0
 435              		@ frame_needed = 0, uses_anonymous_args = 0
 436 0000 70B5     		push	{r4, r5, r6, lr}
 437              	.LCFI5:
 438              		.cfi_def_cfa_offset 16
 439              		.cfi_offset 4, -16
 440              		.cfi_offset 5, -12
 441              		.cfi_offset 6, -8
 442              		.cfi_offset 14, -4
 443 0002 82B0     		sub	sp, sp, #8
 444              	.LCFI6:
 445              		.cfi_def_cfa_offset 24
 298:Src/draw.c    ****   for (uint8_t i = 0; i < NCHANNELS; i++)
 446              		.loc 1 298 3 view .LVU110
 447              	.LBB26:
 448              		.loc 1 298 8 view .LVU111
 449              	.LVL51:
 450              		.loc 1 298 16 is_stmt 0 view .LVU112
 451 0004 0026     		movs	r6, #0
 452              		.loc 1 298 3 view .LVU113
ARM GAS  /var/folders/hv/f19l0kw128sbpybv1h43gz3c0000gn/T//ccU1gGxV.s 			page 15


 453 0006 1CE0     		b	.L41
 454              	.LVL52:
 455              	.L42:
 456              	.LBB27:
 299:Src/draw.c    ****   {
 300:Src/draw.c    ****     for (uint8_t j = 0; j < NLINESCH; j++)
 457              		.loc 1 300 40 discriminator 2 view .LVU114
 458 0008 0135     		adds	r5, r5, #1
 459              	.LVL53:
 460              		.loc 1 300 40 discriminator 2 view .LVU115
 461 000a EDB2     		uxtb	r5, r5
 462              	.LVL54:
 463              	.L45:
 464              		.loc 1 300 5 discriminator 1 view .LVU116
 465 000c 012D     		cmp	r5, #1
 466 000e 16D8     		bhi	.L49
 467              	.LBB28:
 301:Src/draw.c    ****     {
 302:Src/draw.c    ****       for (uint16_t x = 0; x < NCOLS; x++)
 468              		.loc 1 302 21 view .LVU117
 469 0010 0024     		movs	r4, #0
 470              	.L44:
 471              	.LVL55:
 472              		.loc 1 302 7 discriminator 1 view .LVU118
 473 0012 0F2C     		cmp	r4, #15
 474 0014 F8D8     		bhi	.L42
 303:Src/draw.c    ****       {
 304:Src/draw.c    ****         if ((x + (j * NCOLS) + (i * NLEDSCH)) > NLEDSL)
 475              		.loc 1 304 9 is_stmt 1 view .LVU119
 476              		.loc 1 304 16 is_stmt 0 view .LVU120
 477 0016 04EB0513 		add	r3, r4, r5, lsl #4
 478              		.loc 1 304 30 view .LVU121
 479 001a 03EB4613 		add	r3, r3, r6, lsl #5
 480              		.loc 1 304 12 view .LVU122
 481 001e FF2B     		cmp	r3, #255
 482 0020 F2DC     		bgt	.L42
 305:Src/draw.c    ****           break;
 306:Src/draw.c    ****         WS2812_framedata_setPixel(i, x + (j * NCOLS), minColor[0], minColor[1], minColor[2]);
 483              		.loc 1 306 9 is_stmt 1 discriminator 2 view .LVU123
 484 0022 0B4A     		ldr	r2, .L51
 485 0024 04EB0511 		add	r1, r4, r5, lsl #4
 486 0028 9378     		ldrb	r3, [r2, #2]	@ zero_extendqisi2
 487 002a 0093     		str	r3, [sp]
 488 002c 5378     		ldrb	r3, [r2, #1]	@ zero_extendqisi2
 489 002e 1278     		ldrb	r2, [r2]	@ zero_extendqisi2
 490 0030 89B2     		uxth	r1, r1
 491 0032 3046     		mov	r0, r6
 492 0034 FFF7FEFF 		bl	WS2812_framedata_setPixel
 493              	.LVL56:
 302:Src/draw.c    ****       {
 494              		.loc 1 302 40 is_stmt 0 discriminator 2 view .LVU124
 495 0038 0134     		adds	r4, r4, #1
 496              	.LVL57:
 302:Src/draw.c    ****       {
 497              		.loc 1 302 40 discriminator 2 view .LVU125
 498 003a A4B2     		uxth	r4, r4
 499              	.LVL58:
ARM GAS  /var/folders/hv/f19l0kw128sbpybv1h43gz3c0000gn/T//ccU1gGxV.s 			page 16


 302:Src/draw.c    ****       {
 500              		.loc 1 302 40 discriminator 2 view .LVU126
 501 003c E9E7     		b	.L44
 502              	.LVL59:
 503              	.L49:
 302:Src/draw.c    ****       {
 504              		.loc 1 302 40 discriminator 2 view .LVU127
 505              	.LBE28:
 506              	.LBE27:
 298:Src/draw.c    ****   {
 507              		.loc 1 298 39 discriminator 2 view .LVU128
 508 003e 0136     		adds	r6, r6, #1
 509              	.LVL60:
 298:Src/draw.c    ****   {
 510              		.loc 1 298 39 discriminator 2 view .LVU129
 511 0040 F6B2     		uxtb	r6, r6
 512              	.LVL61:
 513              	.L41:
 298:Src/draw.c    ****   {
 514              		.loc 1 298 3 discriminator 1 view .LVU130
 515 0042 072E     		cmp	r6, #7
 516 0044 01D8     		bhi	.L50
 517              	.LBB29:
 300:Src/draw.c    ****     {
 518              		.loc 1 300 18 view .LVU131
 519 0046 0025     		movs	r5, #0
 520 0048 E0E7     		b	.L45
 521              	.L50:
 522              	.LBE29:
 523              	.LBE26:
 307:Src/draw.c    ****       }
 308:Src/draw.c    ****     }
 309:Src/draw.c    ****   }
 310:Src/draw.c    **** }
 524              		.loc 1 310 1 view .LVU132
 525 004a 02B0     		add	sp, sp, #8
 526              	.LCFI7:
 527              		.cfi_def_cfa_offset 16
 528              		@ sp needed
 529 004c 70BD     		pop	{r4, r5, r6, pc}
 530              	.LVL62:
 531              	.L52:
 532              		.loc 1 310 1 view .LVU133
 533 004e 00BF     		.align	2
 534              	.L51:
 535 0050 00000000 		.word	.LANCHOR0
 536              		.cfi_endproc
 537              	.LFE4:
 539              		.section	.text.drawShape,"ax",%progbits
 540              		.align	1
 541              		.global	drawShape
 542              		.syntax unified
 543              		.thumb
 544              		.thumb_func
 545              		.fpu fpv4-sp-d16
 547              	drawShape:
 548              	.LFB5:
ARM GAS  /var/folders/hv/f19l0kw128sbpybv1h43gz3c0000gn/T//ccU1gGxV.s 			page 17


 311:Src/draw.c    **** 
 312:Src/draw.c    **** // void move(int8_t newX, int8_t newY)
 313:Src/draw.c    **** // {
 314:Src/draw.c    **** //   uint8_t tempVector[NLEDS][3];
 315:Src/draw.c    **** //   uint8_t tempX, tempY;
 316:Src/draw.c    **** //   for (int y = 0; y < NCOLS; y++)
 317:Src/draw.c    **** //   {
 318:Src/draw.c    **** //     for (int x = 0; x < NCOLS; x++)
 319:Src/draw.c    **** //     {
 320:Src/draw.c    **** //       for (int z = 0; z < 3; z++)
 321:Src/draw.c    **** //       {
 322:Src/draw.c    **** //         tempVector[x + (y * NCOLS)][z] = backLayer[x + (y * NCOLS)][z];
 323:Src/draw.c    **** //       }
 324:Src/draw.c    **** //     }
 325:Src/draw.c    **** //   }
 326:Src/draw.c    **** 
 327:Src/draw.c    **** //   for (int y = 0; y < NCOLS; y++)
 328:Src/draw.c    **** //   {
 329:Src/draw.c    **** //     if ((y - newY) < 0)
 330:Src/draw.c    **** //     {
 331:Src/draw.c    **** //       tempY = NCOLS - (-y + newY);
 332:Src/draw.c    **** //     }
 333:Src/draw.c    **** //     else if ((y - newY) >= NCOLS)
 334:Src/draw.c    **** //     {
 335:Src/draw.c    **** //       tempY = (y - newY) - NCOLS;
 336:Src/draw.c    **** //     }
 337:Src/draw.c    **** //     else
 338:Src/draw.c    **** //       tempY = y - newY;
 339:Src/draw.c    **** 
 340:Src/draw.c    **** //     for (int x = 0; x < NCOLS; x++)
 341:Src/draw.c    **** //     {
 342:Src/draw.c    **** //       if ((x - newX) < 0)
 343:Src/draw.c    **** //       {
 344:Src/draw.c    **** //         tempX = NCOLS - (-x + newX);
 345:Src/draw.c    **** //       }
 346:Src/draw.c    **** //       else if ((x - newX) >= NCOLS)
 347:Src/draw.c    **** //       {
 348:Src/draw.c    **** //         tempX = (x - newX) - NCOLS;
 349:Src/draw.c    **** //       }
 350:Src/draw.c    **** //       else
 351:Src/draw.c    **** //         tempX = x - newX;
 352:Src/draw.c    **** 
 353:Src/draw.c    **** //       for (int z = 0; z < 3; z++)
 354:Src/draw.c    **** //       {
 355:Src/draw.c    **** //         backLayer[x + (y * NCOLS)][z] = tempVector[tempX + (tempY * NCOLS)][z];
 356:Src/draw.c    **** //       }
 357:Src/draw.c    **** //     }
 358:Src/draw.c    **** //   }
 359:Src/draw.c    **** // }
 360:Src/draw.c    **** 
 361:Src/draw.c    **** void drawShape(void)
 362:Src/draw.c    **** {
 549              		.loc 1 362 1 is_stmt 1 view -0
 550              		.cfi_startproc
 551              		@ args = 0, pretend = 0, frame = 0
 552              		@ frame_needed = 0, uses_anonymous_args = 0
 553 0000 08B5     		push	{r3, lr}
ARM GAS  /var/folders/hv/f19l0kw128sbpybv1h43gz3c0000gn/T//ccU1gGxV.s 			page 18


 554              	.LCFI8:
 555              		.cfi_def_cfa_offset 8
 556              		.cfi_offset 3, -8
 557              		.cfi_offset 14, -4
 363:Src/draw.c    ****   if (drawshape_function && MODE_BACK)
 558              		.loc 1 363 3 view .LVU135
 559              		.loc 1 363 7 is_stmt 0 view .LVU136
 560 0002 044B     		ldr	r3, .L56
 561 0004 1B68     		ldr	r3, [r3]
 562              		.loc 1 363 6 view .LVU137
 563 0006 1BB1     		cbz	r3, .L53
 564              		.loc 1 363 26 discriminator 1 view .LVU138
 565 0008 034A     		ldr	r2, .L56+4
 566 000a 1278     		ldrb	r2, [r2]	@ zero_extendqisi2
 567 000c 02B1     		cbz	r2, .L53
 364:Src/draw.c    ****   {
 365:Src/draw.c    ****     (*drawshape_function)();
 568              		.loc 1 365 5 is_stmt 1 view .LVU139
 569              		.loc 1 365 6 is_stmt 0 view .LVU140
 570 000e 9847     		blx	r3
 571              	.LVL63:
 572              	.L53:
 366:Src/draw.c    ****   }
 367:Src/draw.c    **** }
 573              		.loc 1 367 1 view .LVU141
 574 0010 08BD     		pop	{r3, pc}
 575              	.L57:
 576 0012 00BF     		.align	2
 577              	.L56:
 578 0014 00000000 		.word	drawshape_function
 579 0018 00000000 		.word	.LANCHOR1
 580              		.cfi_endproc
 581              	.LFE5:
 583              		.section	.text.drawText,"ax",%progbits
 584              		.align	1
 585              		.global	drawText
 586              		.syntax unified
 587              		.thumb
 588              		.thumb_func
 589              		.fpu fpv4-sp-d16
 591              	drawText:
 592              	.LFB6:
 368:Src/draw.c    **** 
 369:Src/draw.c    **** void drawText(void)
 370:Src/draw.c    **** {
 593              		.loc 1 370 1 is_stmt 1 view -0
 594              		.cfi_startproc
 595              		@ args = 0, pretend = 0, frame = 0
 596              		@ frame_needed = 0, uses_anonymous_args = 0
 597 0000 08B5     		push	{r3, lr}
 598              	.LCFI9:
 599              		.cfi_def_cfa_offset 8
 600              		.cfi_offset 3, -8
 601              		.cfi_offset 14, -4
 371:Src/draw.c    ****   if (drawtext_function && MODE_TEXT)
 602              		.loc 1 371 3 view .LVU143
 603              		.loc 1 371 7 is_stmt 0 view .LVU144
ARM GAS  /var/folders/hv/f19l0kw128sbpybv1h43gz3c0000gn/T//ccU1gGxV.s 			page 19


 604 0002 044B     		ldr	r3, .L61
 605 0004 1B68     		ldr	r3, [r3]
 606              		.loc 1 371 6 view .LVU145
 607 0006 1BB1     		cbz	r3, .L58
 608              		.loc 1 371 25 discriminator 1 view .LVU146
 609 0008 034A     		ldr	r2, .L61+4
 610 000a 1278     		ldrb	r2, [r2]	@ zero_extendqisi2
 611 000c 02B1     		cbz	r2, .L58
 372:Src/draw.c    ****   {
 373:Src/draw.c    ****     (*drawtext_function)();
 612              		.loc 1 373 5 is_stmt 1 view .LVU147
 613              		.loc 1 373 6 is_stmt 0 view .LVU148
 614 000e 9847     		blx	r3
 615              	.LVL64:
 616              	.L58:
 374:Src/draw.c    ****   }
 375:Src/draw.c    **** }
 617              		.loc 1 375 1 view .LVU149
 618 0010 08BD     		pop	{r3, pc}
 619              	.L62:
 620 0012 00BF     		.align	2
 621              	.L61:
 622 0014 00000000 		.word	drawtext_function
 623 0018 00000000 		.word	.LANCHOR2
 624              		.cfi_endproc
 625              	.LFE6:
 627              		.section	.text.drawShapeNote,"ax",%progbits
 628              		.align	1
 629              		.global	drawShapeNote
 630              		.syntax unified
 631              		.thumb
 632              		.thumb_func
 633              		.fpu fpv4-sp-d16
 635              	drawShapeNote:
 636              	.LFB7:
 376:Src/draw.c    **** 
 377:Src/draw.c    **** void drawShapeNote()
 378:Src/draw.c    **** {
 637              		.loc 1 378 1 is_stmt 1 view -0
 638              		.cfi_startproc
 639              		@ args = 0, pretend = 0, frame = 0
 640              		@ frame_needed = 0, uses_anonymous_args = 0
 641 0000 2DE9F843 		push	{r3, r4, r5, r6, r7, r8, r9, lr}
 642              	.LCFI10:
 643              		.cfi_def_cfa_offset 32
 644              		.cfi_offset 3, -32
 645              		.cfi_offset 4, -28
 646              		.cfi_offset 5, -24
 647              		.cfi_offset 6, -20
 648              		.cfi_offset 7, -16
 649              		.cfi_offset 8, -12
 650              		.cfi_offset 9, -8
 651              		.cfi_offset 14, -4
 379:Src/draw.c    ****   uint8_t rz = NCOLS / 2;
 652              		.loc 1 379 3 view .LVU151
 653              	.LVL65:
 380:Src/draw.c    ****   uint16_t coords = 0;
ARM GAS  /var/folders/hv/f19l0kw128sbpybv1h43gz3c0000gn/T//ccU1gGxV.s 			page 20


 654              		.loc 1 380 3 view .LVU152
 381:Src/draw.c    ****   uint8_t invI;
 655              		.loc 1 381 3 view .LVU153
 382:Src/draw.c    ****   for (int8_t y = -rz; y <= rz; y++)
 656              		.loc 1 382 3 view .LVU154
 657              	.LBB30:
 658              		.loc 1 382 8 view .LVU155
 659              		.loc 1 382 15 is_stmt 0 view .LVU156
 660 0004 6FF00708 		mvn	r8, #7
 661              		.loc 1 382 3 view .LVU157
 662 0008 55E0     		b	.L64
 663              	.LVL66:
 664              	.L68:
 665              	.LBB31:
 666              	.LBB32:
 667              	.LBB33:
 383:Src/draw.c    ****   {
 384:Src/draw.c    ****     for (int8_t x = -rz; x <= rz; x++)
 385:Src/draw.c    ****     {
 386:Src/draw.c    ****       coords = (x + rz) + ((y + rz) * NCOLS);
 387:Src/draw.c    ****       invI = orientation ? MAX_DIV - 1 : 0;
 388:Src/draw.c    ****       for (int8_t i = 0; i < MAX_DIV - 1; i++)
 389:Src/draw.c    ****       {
 390:Src/draw.c    ****         float layer = ((float)(i + 1) / MAX_DIV);
 391:Src/draw.c    ****         if (callback(x, y, layer))
 392:Src/draw.c    ****         {
 393:Src/draw.c    ****           invI = orientation ? i : MAX_DIV - 1 - i;
 668              		.loc 1 393 16 discriminator 2 view .LVU158
 669 000a E6B2     		uxtb	r6, r4
 670              	.LVL67:
 671              		.loc 1 393 16 discriminator 2 view .LVU159
 672 000c 24E0     		b	.L69
 673              	.LVL68:
 674              	.L67:
 675              		.loc 1 393 16 discriminator 2 view .LVU160
 676              	.LBE33:
 388:Src/draw.c    ****       {
 677              		.loc 1 388 44 discriminator 2 view .LVU161
 678 000e 0134     		adds	r4, r4, #1
 679              	.LVL69:
 388:Src/draw.c    ****       {
 680              		.loc 1 388 44 discriminator 2 view .LVU162
 681 0010 64B2     		sxtb	r4, r4
 682              	.LVL70:
 683              	.L66:
 388:Src/draw.c    ****       {
 684              		.loc 1 388 38 discriminator 1 view .LVU163
 685 0012 2D4B     		ldr	r3, .L79
 686 0014 1B78     		ldrb	r3, [r3]	@ zero_extendqisi2
 687 0016 5A1E     		subs	r2, r3, #1
 388:Src/draw.c    ****       {
 688              		.loc 1 388 7 discriminator 1 view .LVU164
 689 0018 9442     		cmp	r4, r2
 690 001a 1DDA     		bge	.L69
 691              	.LBB36:
 390:Src/draw.c    ****         if (callback(x, y, layer))
 692              		.loc 1 390 9 is_stmt 1 view .LVU165
ARM GAS  /var/folders/hv/f19l0kw128sbpybv1h43gz3c0000gn/T//ccU1gGxV.s 			page 21


 390:Src/draw.c    ****         if (callback(x, y, layer))
 693              		.loc 1 390 34 is_stmt 0 view .LVU166
 694 001c 621C     		adds	r2, r4, #1
 695 001e 07EE102A 		vmov	s14, r2	@ int
 390:Src/draw.c    ****         if (callback(x, y, layer))
 696              		.loc 1 390 24 view .LVU167
 697 0022 B8EEC77A 		vcvt.f32.s32	s14, s14
 390:Src/draw.c    ****         if (callback(x, y, layer))
 698              		.loc 1 390 39 view .LVU168
 699 0026 07EE903A 		vmov	s15, r3	@ int
 700 002a F8EEE77A 		vcvt.f32.s32	s15, s15
 390:Src/draw.c    ****         if (callback(x, y, layer))
 701              		.loc 1 390 15 view .LVU169
 702 002e 87EE270A 		vdiv.f32	s0, s14, s15
 703              	.LVL71:
 391:Src/draw.c    ****         {
 704              		.loc 1 391 9 is_stmt 1 view .LVU170
 705              	.LBB34:
 706              	.LBI34:
 178:Src/draw.c    **** {
 707              		.loc 1 178 23 view .LVU171
 708              	.LBB35:
 180:Src/draw.c    ****   {
 709              		.loc 1 180 3 view .LVU172
 180:Src/draw.c    ****   {
 710              		.loc 1 180 7 is_stmt 0 view .LVU173
 711 0032 264B     		ldr	r3, .L79+4
 712 0034 1B68     		ldr	r3, [r3]
 180:Src/draw.c    ****   {
 713              		.loc 1 180 6 view .LVU174
 714 0036 002B     		cmp	r3, #0
 715 0038 E9D0     		beq	.L67
 182:Src/draw.c    ****   }
 716              		.loc 1 182 5 is_stmt 1 view .LVU175
 182:Src/draw.c    ****   }
 717              		.loc 1 182 13 is_stmt 0 view .LVU176
 718 003a 4146     		mov	r1, r8
 719 003c 2846     		mov	r0, r5
 720 003e 9847     		blx	r3
 721              	.LVL72:
 182:Src/draw.c    ****   }
 722              		.loc 1 182 13 view .LVU177
 723              	.LBE35:
 724              	.LBE34:
 391:Src/draw.c    ****         {
 725              		.loc 1 391 12 view .LVU178
 726 0040 0028     		cmp	r0, #0
 727 0042 E4D0     		beq	.L67
 728              		.loc 1 393 11 is_stmt 1 view .LVU179
 729              		.loc 1 393 30 is_stmt 0 view .LVU180
 730 0044 224B     		ldr	r3, .L79+8
 731 0046 1B78     		ldrb	r3, [r3]	@ zero_extendqisi2
 732              		.loc 1 393 16 view .LVU181
 733 0048 002B     		cmp	r3, #0
 734 004a DED1     		bne	.L68
 735              		.loc 1 393 48 discriminator 1 view .LVU182
 736 004c 1E4B     		ldr	r3, .L79
ARM GAS  /var/folders/hv/f19l0kw128sbpybv1h43gz3c0000gn/T//ccU1gGxV.s 			page 22


 737 004e 1E78     		ldrb	r6, [r3]	@ zero_extendqisi2
 738              	.LVL73:
 739              		.loc 1 393 48 discriminator 1 view .LVU183
 740 0050 361B     		subs	r6, r6, r4
 741 0052 F6B2     		uxtb	r6, r6
 742              		.loc 1 393 16 discriminator 1 view .LVU184
 743 0054 013E     		subs	r6, r6, #1
 744 0056 F6B2     		uxtb	r6, r6
 745              	.L69:
 746              	.LVL74:
 747              		.loc 1 393 16 discriminator 1 view .LVU185
 748              	.LBE36:
 749              	.LBE32:
 394:Src/draw.c    ****           break;
 395:Src/draw.c    ****         }
 396:Src/draw.c    ****       }
 397:Src/draw.c    ****       setColor(backLayer[coords], noteBuffer[invI].color);
 750              		.loc 1 397 7 is_stmt 1 view .LVU186
 751              		.loc 1 397 25 is_stmt 0 view .LVU187
 752 0058 07EB4707 		add	r7, r7, r7, lsl #1
 753              	.LVL75:
 754              		.loc 1 397 51 view .LVU188
 755 005c 06EB4606 		add	r6, r6, r6, lsl #1
 756              	.LVL76:
 757              		.loc 1 397 51 view .LVU189
 758 0060 7100     		lsls	r1, r6, #1
 759 0062 1C4B     		ldr	r3, .L79+12
 760 0064 1944     		add	r1, r1, r3
 761              		.loc 1 397 7 view .LVU190
 762 0066 0331     		adds	r1, r1, #3
 763 0068 1B48     		ldr	r0, .L79+16
 764 006a 3844     		add	r0, r0, r7
 765 006c FFF7FEFF 		bl	setColor
 766              	.LVL77:
 398:Src/draw.c    ****       for (uint8_t z = 0, invz = 2; z < 3; z++, invz--)
 767              		.loc 1 398 7 is_stmt 1 view .LVU191
 768              	.LBB37:
 769              		.loc 1 398 12 view .LVU192
 770              		.loc 1 398 20 is_stmt 0 view .LVU193
 771 0070 0023     		movs	r3, #0
 772              		.loc 1 398 7 view .LVU194
 773 0072 04E0     		b	.L71
 774              	.LVL78:
 775              	.L72:
 399:Src/draw.c    ****       {
 400:Src/draw.c    ****         textColor[z] = 150;
 776              		.loc 1 400 9 is_stmt 1 discriminator 3 view .LVU195
 777              		.loc 1 400 22 is_stmt 0 discriminator 3 view .LVU196
 778 0074 194A     		ldr	r2, .L79+20
 779 0076 9621     		movs	r1, #150
 780 0078 D154     		strb	r1, [r2, r3]
 398:Src/draw.c    ****       for (uint8_t z = 0, invz = 2; z < 3; z++, invz--)
 781              		.loc 1 398 45 discriminator 3 view .LVU197
 782 007a 0133     		adds	r3, r3, #1
 783              	.LVL79:
 398:Src/draw.c    ****       for (uint8_t z = 0, invz = 2; z < 3; z++, invz--)
 784              		.loc 1 398 45 discriminator 3 view .LVU198
ARM GAS  /var/folders/hv/f19l0kw128sbpybv1h43gz3c0000gn/T//ccU1gGxV.s 			page 23


 785 007c DBB2     		uxtb	r3, r3
 786              	.LVL80:
 787              	.L71:
 398:Src/draw.c    ****       for (uint8_t z = 0, invz = 2; z < 3; z++, invz--)
 788              		.loc 1 398 7 discriminator 1 view .LVU199
 789 007e 022B     		cmp	r3, #2
 790 0080 F8D9     		bls	.L72
 791              	.LBE37:
 384:Src/draw.c    ****     {
 792              		.loc 1 384 36 discriminator 2 view .LVU200
 793 0082 0135     		adds	r5, r5, #1
 794              	.LVL81:
 384:Src/draw.c    ****     {
 795              		.loc 1 384 36 discriminator 2 view .LVU201
 796 0084 6DB2     		sxtb	r5, r5
 797              	.LVL82:
 798              	.L74:
 384:Src/draw.c    ****     {
 799              		.loc 1 384 5 discriminator 1 view .LVU202
 800 0086 082D     		cmp	r5, #8
 801 0088 11DC     		bgt	.L77
 386:Src/draw.c    ****       invI = orientation ? MAX_DIV - 1 : 0;
 802              		.loc 1 386 7 is_stmt 1 view .LVU203
 386:Src/draw.c    ****       invI = orientation ? MAX_DIV - 1 : 0;
 803              		.loc 1 386 19 is_stmt 0 view .LVU204
 804 008a 05F10807 		add	r7, r5, #8
 386:Src/draw.c    ****       invI = orientation ? MAX_DIV - 1 : 0;
 805              		.loc 1 386 31 view .LVU205
 806 008e 09F10800 		add	r0, r9, #8
 386:Src/draw.c    ****       invI = orientation ? MAX_DIV - 1 : 0;
 807              		.loc 1 386 25 view .LVU206
 808 0092 0001     		lsls	r0, r0, #4
 809 0094 80B2     		uxth	r0, r0
 386:Src/draw.c    ****       invI = orientation ? MAX_DIV - 1 : 0;
 810              		.loc 1 386 14 view .LVU207
 811 0096 10FA87F7 		uxtah	r7, r0, r7
 812 009a BFB2     		uxth	r7, r7
 813              	.LVL83:
 387:Src/draw.c    ****       for (int8_t i = 0; i < MAX_DIV - 1; i++)
 814              		.loc 1 387 7 is_stmt 1 view .LVU208
 387:Src/draw.c    ****       for (int8_t i = 0; i < MAX_DIV - 1; i++)
 815              		.loc 1 387 26 is_stmt 0 view .LVU209
 816 009c 0C4B     		ldr	r3, .L79+8
 817 009e 1E78     		ldrb	r6, [r3]	@ zero_extendqisi2
 387:Src/draw.c    ****       for (int8_t i = 0; i < MAX_DIV - 1; i++)
 818              		.loc 1 387 12 view .LVU210
 819 00a0 1EB1     		cbz	r6, .L65
 387:Src/draw.c    ****       for (int8_t i = 0; i < MAX_DIV - 1; i++)
 820              		.loc 1 387 36 discriminator 1 view .LVU211
 821 00a2 094B     		ldr	r3, .L79
 822 00a4 1E78     		ldrb	r6, [r3]	@ zero_extendqisi2
 387:Src/draw.c    ****       for (int8_t i = 0; i < MAX_DIV - 1; i++)
 823              		.loc 1 387 12 discriminator 1 view .LVU212
 824 00a6 013E     		subs	r6, r6, #1
 825 00a8 F6B2     		uxtb	r6, r6
 826              	.L65:
 827              	.LVL84:
ARM GAS  /var/folders/hv/f19l0kw128sbpybv1h43gz3c0000gn/T//ccU1gGxV.s 			page 24


 388:Src/draw.c    ****       {
 828              		.loc 1 388 7 is_stmt 1 discriminator 4 view .LVU213
 829              	.LBB38:
 388:Src/draw.c    ****       {
 830              		.loc 1 388 12 discriminator 4 view .LVU214
 388:Src/draw.c    ****       {
 831              		.loc 1 388 19 is_stmt 0 discriminator 4 view .LVU215
 832 00aa 0024     		movs	r4, #0
 388:Src/draw.c    ****       {
 833              		.loc 1 388 7 discriminator 4 view .LVU216
 834 00ac B1E7     		b	.L66
 835              	.LVL85:
 836              	.L77:
 388:Src/draw.c    ****       {
 837              		.loc 1 388 7 discriminator 4 view .LVU217
 838              	.LBE38:
 839              	.LBE31:
 382:Src/draw.c    ****   {
 840              		.loc 1 382 34 discriminator 2 view .LVU218
 841 00ae 08F10108 		add	r8, r8, #1
 842              	.LVL86:
 382:Src/draw.c    ****   {
 843              		.loc 1 382 34 discriminator 2 view .LVU219
 844 00b2 4FFA88F8 		sxtb	r8, r8
 845              	.LVL87:
 846              	.L64:
 382:Src/draw.c    ****   {
 847              		.loc 1 382 26 discriminator 1 view .LVU220
 848 00b6 C146     		mov	r9, r8
 382:Src/draw.c    ****   {
 849              		.loc 1 382 3 discriminator 1 view .LVU221
 850 00b8 B8F1080F 		cmp	r8, #8
 851 00bc 02DC     		bgt	.L78
 852              	.LBB39:
 384:Src/draw.c    ****     {
 853              		.loc 1 384 17 view .LVU222
 854 00be 6FF00705 		mvn	r5, #7
 855 00c2 E0E7     		b	.L74
 856              	.L78:
 857              	.LBE39:
 858              	.LBE30:
 401:Src/draw.c    ****       }
 402:Src/draw.c    ****     }
 403:Src/draw.c    ****   }
 404:Src/draw.c    **** }
 859              		.loc 1 404 1 view .LVU223
 860 00c4 BDE8F883 		pop	{r3, r4, r5, r6, r7, r8, r9, pc}
 861              	.LVL88:
 862              	.L80:
 863              		.loc 1 404 1 view .LVU224
 864              		.align	2
 865              	.L79:
 866 00c8 00000000 		.word	.LANCHOR4
 867 00cc 00000000 		.word	callback_function
 868 00d0 00000000 		.word	.LANCHOR3
 869 00d4 00000000 		.word	noteBuffer
 870 00d8 00000000 		.word	backLayer
ARM GAS  /var/folders/hv/f19l0kw128sbpybv1h43gz3c0000gn/T//ccU1gGxV.s 			page 25


 871 00dc 00000000 		.word	textColor
 872              		.cfi_endproc
 873              	.LFE7:
 875              		.section	.text.drawShapeNoteGrad,"ax",%progbits
 876              		.align	1
 877              		.global	drawShapeNoteGrad
 878              		.syntax unified
 879              		.thumb
 880              		.thumb_func
 881              		.fpu fpv4-sp-d16
 883              	drawShapeNoteGrad:
 884              	.LFB9:
 405:Src/draw.c    **** 
 406:Src/draw.c    **** void drawShapeNoteTemp()
 407:Src/draw.c    **** {
 408:Src/draw.c    ****   uint8_t rz = NCOLS / 2;
 409:Src/draw.c    ****   uint16_t coords = 0;
 410:Src/draw.c    ****   uint8_t invI;
 411:Src/draw.c    ****   for (int8_t y = -rz; y <= rz; y++)
 412:Src/draw.c    ****   {
 413:Src/draw.c    ****     for (int8_t x = -rz; x <= rz; x++)
 414:Src/draw.c    ****     {
 415:Src/draw.c    ****       coords = (x + rz) + ((y + rz) * NCOLS);
 416:Src/draw.c    ****       invI = orientation ? MAX_DIV - 1 : 0;
 417:Src/draw.c    ****       for (int8_t i = 0; i < MAX_DIV - 1; i++)
 418:Src/draw.c    ****       {
 419:Src/draw.c    ****         float layer = ((float)(i + 1) / MAX_DIV);
 420:Src/draw.c    ****         if (circle(x, y, layer))
 421:Src/draw.c    ****         {
 422:Src/draw.c    ****           invI = orientation ? i : MAX_DIV - 1 - i;
 423:Src/draw.c    ****           break;
 424:Src/draw.c    ****         }
 425:Src/draw.c    ****       }
 426:Src/draw.c    ****       setColor(backLayer[coords], noteBuffer[invI].color);
 427:Src/draw.c    ****       for (uint8_t z = 0, invz = 2; z < 3; z++, invz--)
 428:Src/draw.c    ****       {
 429:Src/draw.c    ****         textColor[z] = 150;
 430:Src/draw.c    ****       }
 431:Src/draw.c    ****     }
 432:Src/draw.c    ****   }
 433:Src/draw.c    **** }
 434:Src/draw.c    **** 
 435:Src/draw.c    **** void drawShapeNoteGrad()
 436:Src/draw.c    **** {
 885              		.loc 1 436 1 is_stmt 1 view -0
 886              		.cfi_startproc
 887              		@ args = 0, pretend = 0, frame = 8
 888              		@ frame_needed = 0, uses_anonymous_args = 0
 889 0000 2DE9F047 		push	{r4, r5, r6, r7, r8, r9, r10, lr}
 890              	.LCFI11:
 891              		.cfi_def_cfa_offset 32
 892              		.cfi_offset 4, -32
 893              		.cfi_offset 5, -28
 894              		.cfi_offset 6, -24
 895              		.cfi_offset 7, -20
 896              		.cfi_offset 8, -16
 897              		.cfi_offset 9, -12
ARM GAS  /var/folders/hv/f19l0kw128sbpybv1h43gz3c0000gn/T//ccU1gGxV.s 			page 26


 898              		.cfi_offset 10, -8
 899              		.cfi_offset 14, -4
 900 0004 82B0     		sub	sp, sp, #8
 901              	.LCFI12:
 902              		.cfi_def_cfa_offset 40
 437:Src/draw.c    ****   uint8_t rz = NCOLS / 2;
 903              		.loc 1 437 3 view .LVU226
 904              	.LVL89:
 438:Src/draw.c    ****   uint16_t coords = 0;
 905              		.loc 1 438 3 view .LVU227
 439:Src/draw.c    ****   uint8_t invO = orientation ? 0 : 1;
 906              		.loc 1 439 3 view .LVU228
 907              		.loc 1 439 34 is_stmt 0 view .LVU229
 908 0006 414B     		ldr	r3, .L98
 909 0008 1C78     		ldrb	r4, [r3]	@ zero_extendqisi2
 910 000a B4FA84F8 		clz	r8, r4
 911 000e 4FEA5818 		lsr	r8, r8, #5
 912              	.LVL90:
 440:Src/draw.c    ****   int8_t diff[3];
 913              		.loc 1 440 3 is_stmt 1 view .LVU230
 441:Src/draw.c    ****   for (uint8_t j = 0; j < 3; j++)
 914              		.loc 1 441 3 view .LVU231
 915              	.LBB40:
 916              		.loc 1 441 8 view .LVU232
 917              		.loc 1 441 16 is_stmt 0 view .LVU233
 918 0012 0023     		movs	r3, #0
 919              		.loc 1 441 3 view .LVU234
 920 0014 18E0     		b	.L82
 921              	.LVL91:
 922              	.L83:
 442:Src/draw.c    ****   {
 443:Src/draw.c    ****     diff[j] = (noteBuffer[orientation].color[j] - noteBuffer[invO].color[j]) / MAX_DIV;
 923              		.loc 1 443 5 is_stmt 1 discriminator 3 view .LVU235
 924              		.loc 1 443 45 is_stmt 0 discriminator 3 view .LVU236
 925 0016 3E4A     		ldr	r2, .L98+4
 926 0018 04EB4400 		add	r0, r4, r4, lsl #1
 927 001c 4100     		lsls	r1, r0, #1
 928 001e 1144     		add	r1, r1, r2
 929 0020 1944     		add	r1, r1, r3
 930 0022 C978     		ldrb	r1, [r1, #3]	@ zero_extendqisi2
 931              		.loc 1 443 73 discriminator 3 view .LVU237
 932 0024 4FEA4800 		lsl	r0, r8, #1
 933 0028 4044     		add	r0, r0, r8
 934 002a 4500     		lsls	r5, r0, #1
 935 002c 2A44     		add	r2, r2, r5
 936 002e 1A44     		add	r2, r2, r3
 937 0030 D278     		ldrb	r2, [r2, #3]	@ zero_extendqisi2
 938              		.loc 1 443 49 discriminator 3 view .LVU238
 939 0032 8A1A     		subs	r2, r1, r2
 940              		.loc 1 443 78 discriminator 3 view .LVU239
 941 0034 3749     		ldr	r1, .L98+8
 942 0036 0978     		ldrb	r1, [r1]	@ zero_extendqisi2
 943 0038 92FBF1F2 		sdiv	r2, r2, r1
 944              		.loc 1 443 13 discriminator 3 view .LVU240
 945 003c 02A9     		add	r1, sp, #8
 946 003e 1944     		add	r1, r1, r3
 947 0040 01F8042C 		strb	r2, [r1, #-4]
ARM GAS  /var/folders/hv/f19l0kw128sbpybv1h43gz3c0000gn/T//ccU1gGxV.s 			page 27


 441:Src/draw.c    ****   for (uint8_t j = 0; j < 3; j++)
 948              		.loc 1 441 31 discriminator 3 view .LVU241
 949 0044 0133     		adds	r3, r3, #1
 950              	.LVL92:
 441:Src/draw.c    ****   for (uint8_t j = 0; j < 3; j++)
 951              		.loc 1 441 31 discriminator 3 view .LVU242
 952 0046 DBB2     		uxtb	r3, r3
 953              	.LVL93:
 954              	.L82:
 441:Src/draw.c    ****   for (uint8_t j = 0; j < 3; j++)
 955              		.loc 1 441 3 discriminator 1 view .LVU243
 956 0048 022B     		cmp	r3, #2
 957 004a E4D9     		bls	.L83
 958              	.LBE40:
 959              	.LBB41:
 444:Src/draw.c    ****   }
 445:Src/draw.c    **** 
 446:Src/draw.c    ****   for (int8_t y = -rz; y <= rz; y++)
 960              		.loc 1 446 15 view .LVU244
 961 004c 6FF00707 		mvn	r7, #7
 962 0050 53E0     		b	.L84
 963              	.LVL94:
 964              	.L86:
 965              	.LBB42:
 966              	.LBB43:
 447:Src/draw.c    ****   {
 448:Src/draw.c    ****     for (int8_t x = -rz; x <= rz; x++)
 449:Src/draw.c    ****     {
 450:Src/draw.c    ****       coords = (x + rz) + ((y + rz) * NCOLS);
 451:Src/draw.c    ****       setColor(backLayer[coords], noteBuffer[orientation].color);
 452:Src/draw.c    ****       for (int8_t i = 0; i < MAX_DIV - 1; i++)
 967              		.loc 1 452 44 discriminator 2 view .LVU245
 968 0052 0134     		adds	r4, r4, #1
 969              	.LVL95:
 970              		.loc 1 452 44 discriminator 2 view .LVU246
 971 0054 64B2     		sxtb	r4, r4
 972              	.LVL96:
 973              	.L85:
 974              		.loc 1 452 38 discriminator 1 view .LVU247
 975 0056 2F4B     		ldr	r3, .L98+8
 976 0058 1B78     		ldrb	r3, [r3]	@ zero_extendqisi2
 977 005a 5A1E     		subs	r2, r3, #1
 978              		.loc 1 452 7 discriminator 1 view .LVU248
 979 005c 9442     		cmp	r4, r2
 980 005e 2DDA     		bge	.L89
 981              	.LBB44:
 453:Src/draw.c    ****       {
 454:Src/draw.c    ****         float layer = ((float)(i + 1) / MAX_DIV);
 982              		.loc 1 454 9 is_stmt 1 view .LVU249
 983              		.loc 1 454 34 is_stmt 0 view .LVU250
 984 0060 04F1010A 		add	r10, r4, #1
 985              		.loc 1 454 24 view .LVU251
 986 0064 07EE90AA 		vmov	s15, r10	@ int
 987 0068 B8EEE77A 		vcvt.f32.s32	s14, s15
 988              		.loc 1 454 39 view .LVU252
 989 006c 07EE903A 		vmov	s15, r3	@ int
 990 0070 F8EEE77A 		vcvt.f32.s32	s15, s15
ARM GAS  /var/folders/hv/f19l0kw128sbpybv1h43gz3c0000gn/T//ccU1gGxV.s 			page 28


 991              		.loc 1 454 15 view .LVU253
 992 0074 87EE270A 		vdiv.f32	s0, s14, s15
 993              	.LVL97:
 455:Src/draw.c    ****         if (callback(x, y, layer))
 994              		.loc 1 455 9 is_stmt 1 view .LVU254
 995              	.LBB45:
 996              	.LBI45:
 178:Src/draw.c    **** {
 997              		.loc 1 178 23 view .LVU255
 998              	.LBB46:
 180:Src/draw.c    ****   {
 999              		.loc 1 180 3 view .LVU256
 180:Src/draw.c    ****   {
 1000              		.loc 1 180 7 is_stmt 0 view .LVU257
 1001 0078 274B     		ldr	r3, .L98+12
 1002 007a 1B68     		ldr	r3, [r3]
 180:Src/draw.c    ****   {
 1003              		.loc 1 180 6 view .LVU258
 1004 007c 002B     		cmp	r3, #0
 1005 007e E8D0     		beq	.L86
 182:Src/draw.c    ****   }
 1006              		.loc 1 182 5 is_stmt 1 view .LVU259
 182:Src/draw.c    ****   }
 1007              		.loc 1 182 13 is_stmt 0 view .LVU260
 1008 0080 3946     		mov	r1, r7
 1009 0082 2846     		mov	r0, r5
 1010 0084 9847     		blx	r3
 1011              	.LVL98:
 182:Src/draw.c    ****   }
 1012              		.loc 1 182 13 view .LVU261
 1013              	.LBE46:
 1014              	.LBE45:
 1015              		.loc 1 455 12 view .LVU262
 1016 0086 0028     		cmp	r0, #0
 1017 0088 E3D0     		beq	.L86
 1018              	.LBB47:
 456:Src/draw.c    ****         {
 457:Src/draw.c    ****           for (uint8_t j = 0; j < 3; j++)
 1019              		.loc 1 457 24 view .LVU263
 1020 008a 0023     		movs	r3, #0
 1021              	.L87:
 1022              	.LVL99:
 1023              		.loc 1 457 11 discriminator 1 view .LVU264
 1024 008c 022B     		cmp	r3, #2
 1025 008e 15D8     		bhi	.L89
 458:Src/draw.c    ****           {
 459:Src/draw.c    ****             backLayer[coords][j] = noteBuffer[invO].color[j] + ((i + 1) * diff[j]);
 1026              		.loc 1 459 13 is_stmt 1 discriminator 3 view .LVU265
 1027              		.loc 1 459 58 is_stmt 0 discriminator 3 view .LVU266
 1028 0090 4FEA4801 		lsl	r1, r8, #1
 1029 0094 4144     		add	r1, r1, r8
 1030 0096 4800     		lsls	r0, r1, #1
 1031 0098 1D4A     		ldr	r2, .L98+4
 1032 009a 0244     		add	r2, r2, r0
 1033 009c 1A44     		add	r2, r2, r3
 1034 009e D278     		ldrb	r2, [r2, #3]	@ zero_extendqisi2
 1035              		.loc 1 459 79 discriminator 3 view .LVU267
ARM GAS  /var/folders/hv/f19l0kw128sbpybv1h43gz3c0000gn/T//ccU1gGxV.s 			page 29


 1036 00a0 02A9     		add	r1, sp, #8
 1037 00a2 1944     		add	r1, r1, r3
 1038 00a4 11F9041C 		ldrsb	r1, [r1, #-4]
 1039              		.loc 1 459 62 discriminator 3 view .LVU268
 1040 00a8 0AFB0121 		mla	r1, r10, r1, r2
 1041              		.loc 1 459 34 discriminator 3 view .LVU269
 1042 00ac 06EB4600 		add	r0, r6, r6, lsl #1
 1043 00b0 1A4A     		ldr	r2, .L98+16
 1044 00b2 0244     		add	r2, r2, r0
 1045 00b4 D154     		strb	r1, [r2, r3]
 457:Src/draw.c    ****           {
 1046              		.loc 1 457 39 discriminator 3 view .LVU270
 1047 00b6 0133     		adds	r3, r3, #1
 1048              	.LVL100:
 457:Src/draw.c    ****           {
 1049              		.loc 1 457 39 discriminator 3 view .LVU271
 1050 00b8 DBB2     		uxtb	r3, r3
 1051              	.LVL101:
 457:Src/draw.c    ****           {
 1052              		.loc 1 457 39 discriminator 3 view .LVU272
 1053 00ba E7E7     		b	.L87
 1054              	.LVL102:
 1055              	.L89:
 457:Src/draw.c    ****           {
 1056              		.loc 1 457 39 discriminator 3 view .LVU273
 1057              	.LBE47:
 1058              	.LBE44:
 1059              	.LBE43:
 448:Src/draw.c    ****     {
 1060              		.loc 1 448 36 discriminator 2 view .LVU274
 1061 00bc 0135     		adds	r5, r5, #1
 1062              	.LVL103:
 448:Src/draw.c    ****     {
 1063              		.loc 1 448 36 discriminator 2 view .LVU275
 1064 00be 6DB2     		sxtb	r5, r5
 1065              	.LVL104:
 1066              	.L92:
 448:Src/draw.c    ****     {
 1067              		.loc 1 448 5 discriminator 1 view .LVU276
 1068 00c0 082D     		cmp	r5, #8
 1069 00c2 18DC     		bgt	.L96
 450:Src/draw.c    ****       setColor(backLayer[coords], noteBuffer[orientation].color);
 1070              		.loc 1 450 7 is_stmt 1 view .LVU277
 450:Src/draw.c    ****       setColor(backLayer[coords], noteBuffer[orientation].color);
 1071              		.loc 1 450 19 is_stmt 0 view .LVU278
 1072 00c4 05F10806 		add	r6, r5, #8
 450:Src/draw.c    ****       setColor(backLayer[coords], noteBuffer[orientation].color);
 1073              		.loc 1 450 31 view .LVU279
 1074 00c8 09F10803 		add	r3, r9, #8
 450:Src/draw.c    ****       setColor(backLayer[coords], noteBuffer[orientation].color);
 1075              		.loc 1 450 25 view .LVU280
 1076 00cc 1B01     		lsls	r3, r3, #4
 1077 00ce 9BB2     		uxth	r3, r3
 450:Src/draw.c    ****       setColor(backLayer[coords], noteBuffer[orientation].color);
 1078              		.loc 1 450 14 view .LVU281
 1079 00d0 13FA86F6 		uxtah	r6, r3, r6
 1080 00d4 B6B2     		uxth	r6, r6
ARM GAS  /var/folders/hv/f19l0kw128sbpybv1h43gz3c0000gn/T//ccU1gGxV.s 			page 30


 451:Src/draw.c    ****       for (int8_t i = 0; i < MAX_DIV - 1; i++)
 1081              		.loc 1 451 7 is_stmt 1 view .LVU282
 451:Src/draw.c    ****       for (int8_t i = 0; i < MAX_DIV - 1; i++)
 1082              		.loc 1 451 25 is_stmt 0 view .LVU283
 1083 00d6 06EB4602 		add	r2, r6, r6, lsl #1
 451:Src/draw.c    ****       for (int8_t i = 0; i < MAX_DIV - 1; i++)
 1084              		.loc 1 451 58 view .LVU284
 1085 00da 0C4B     		ldr	r3, .L98
 1086 00dc 1B78     		ldrb	r3, [r3]	@ zero_extendqisi2
 1087 00de 03EB4303 		add	r3, r3, r3, lsl #1
 1088 00e2 5900     		lsls	r1, r3, #1
 1089 00e4 0A4B     		ldr	r3, .L98+4
 1090 00e6 1944     		add	r1, r1, r3
 451:Src/draw.c    ****       for (int8_t i = 0; i < MAX_DIV - 1; i++)
 1091              		.loc 1 451 7 view .LVU285
 1092 00e8 0331     		adds	r1, r1, #3
 1093 00ea 0C48     		ldr	r0, .L98+16
 1094 00ec 1044     		add	r0, r0, r2
 1095 00ee FFF7FEFF 		bl	setColor
 1096              	.LVL105:
 452:Src/draw.c    ****       {
 1097              		.loc 1 452 7 is_stmt 1 view .LVU286
 1098              	.LBB48:
 452:Src/draw.c    ****       {
 1099              		.loc 1 452 12 view .LVU287
 452:Src/draw.c    ****       {
 1100              		.loc 1 452 19 is_stmt 0 view .LVU288
 1101 00f2 0024     		movs	r4, #0
 452:Src/draw.c    ****       {
 1102              		.loc 1 452 7 view .LVU289
 1103 00f4 AFE7     		b	.L85
 1104              	.LVL106:
 1105              	.L96:
 452:Src/draw.c    ****       {
 1106              		.loc 1 452 7 view .LVU290
 1107              	.LBE48:
 1108              	.LBE42:
 446:Src/draw.c    ****   {
 1109              		.loc 1 446 34 discriminator 2 view .LVU291
 1110 00f6 0137     		adds	r7, r7, #1
 1111              	.LVL107:
 446:Src/draw.c    ****   {
 1112              		.loc 1 446 34 discriminator 2 view .LVU292
 1113 00f8 7FB2     		sxtb	r7, r7
 1114              	.LVL108:
 1115              	.L84:
 446:Src/draw.c    ****   {
 1116              		.loc 1 446 26 discriminator 1 view .LVU293
 1117 00fa B946     		mov	r9, r7
 446:Src/draw.c    ****   {
 1118              		.loc 1 446 3 discriminator 1 view .LVU294
 1119 00fc 082F     		cmp	r7, #8
 1120 00fe 02DC     		bgt	.L97
 1121              	.LBB49:
 448:Src/draw.c    ****     {
 1122              		.loc 1 448 17 view .LVU295
 1123 0100 6FF00705 		mvn	r5, #7
ARM GAS  /var/folders/hv/f19l0kw128sbpybv1h43gz3c0000gn/T//ccU1gGxV.s 			page 31


 1124 0104 DCE7     		b	.L92
 1125              	.L97:
 1126              	.LBE49:
 1127              	.LBE41:
 460:Src/draw.c    ****           }
 461:Src/draw.c    ****           break;
 462:Src/draw.c    ****         }
 463:Src/draw.c    ****       }
 464:Src/draw.c    ****     }
 465:Src/draw.c    ****   }
 466:Src/draw.c    **** }
 1128              		.loc 1 466 1 view .LVU296
 1129 0106 02B0     		add	sp, sp, #8
 1130              	.LCFI13:
 1131              		.cfi_def_cfa_offset 32
 1132              		@ sp needed
 1133 0108 BDE8F087 		pop	{r4, r5, r6, r7, r8, r9, r10, pc}
 1134              	.LVL109:
 1135              	.L99:
 1136              		.loc 1 466 1 view .LVU297
 1137              		.align	2
 1138              	.L98:
 1139 010c 00000000 		.word	.LANCHOR3
 1140 0110 00000000 		.word	noteBuffer
 1141 0114 00000000 		.word	.LANCHOR4
 1142 0118 00000000 		.word	callback_function
 1143 011c 00000000 		.word	backLayer
 1144              		.cfi_endproc
 1145              	.LFE9:
 1147              		.section	.text.circle,"ax",%progbits
 1148              		.align	1
 1149              		.global	circle
 1150              		.syntax unified
 1151              		.thumb
 1152              		.thumb_func
 1153              		.fpu fpv4-sp-d16
 1155              	circle:
 1156              	.LVL110:
 1157              	.LFB10:
 467:Src/draw.c    **** uint8_t circle(int8_t x, int8_t y, float layer)
 468:Src/draw.c    **** {
 1158              		.loc 1 468 1 is_stmt 1 view -0
 1159              		.cfi_startproc
 1160              		@ args = 0, pretend = 0, frame = 0
 1161              		@ frame_needed = 0, uses_anonymous_args = 0
 1162              		@ link register save eliminated.
 469:Src/draw.c    ****   float z = ((float)NCOLS / 2);
 1163              		.loc 1 469 3 view .LVU299
 470:Src/draw.c    ****   return ((x * x) + (y * y) <= (z * z) * layer);
 1164              		.loc 1 470 3 view .LVU300
 1165              		.loc 1 470 24 is_stmt 0 view .LVU301
 1166 0000 01FB01F1 		mul	r1, r1, r1
 1167              	.LVL111:
 1168              		.loc 1 470 19 view .LVU302
 1169 0004 00FB0010 		mla	r0, r0, r0, r1
 1170              	.LVL112:
 1171              		.loc 1 470 40 view .LVU303
ARM GAS  /var/folders/hv/f19l0kw128sbpybv1h43gz3c0000gn/T//ccU1gGxV.s 			page 32


 1172 0008 DFED077A 		vldr.32	s15, .L101
 1173 000c 20EE270A 		vmul.f32	s0, s0, s15
 1174              	.LVL113:
 1175              		.loc 1 470 29 view .LVU304
 1176 0010 07EE900A 		vmov	s15, r0	@ int
 1177 0014 F8EEE77A 		vcvt.f32.s32	s15, s15
 1178 0018 F4EEC07A 		vcmpe.f32	s15, s0
 1179 001c F1EE10FA 		vmrs	APSR_nzcv, FPSCR
 471:Src/draw.c    **** }
 1180              		.loc 1 471 1 view .LVU305
 1181 0020 94BF     		ite	ls
 1182 0022 0120     		movls	r0, #1
 1183 0024 0020     		movhi	r0, #0
 1184 0026 7047     		bx	lr
 1185              	.L102:
 1186              		.align	2
 1187              	.L101:
 1188 0028 00008042 		.word	1115684864
 1189              		.cfi_endproc
 1190              	.LFE10:
 1192              		.section	.text.drawShapeNoteTemp,"ax",%progbits
 1193              		.align	1
 1194              		.global	drawShapeNoteTemp
 1195              		.syntax unified
 1196              		.thumb
 1197              		.thumb_func
 1198              		.fpu fpv4-sp-d16
 1200              	drawShapeNoteTemp:
 1201              	.LFB8:
 407:Src/draw.c    ****   uint8_t rz = NCOLS / 2;
 1202              		.loc 1 407 1 is_stmt 1 view -0
 1203              		.cfi_startproc
 1204              		@ args = 0, pretend = 0, frame = 0
 1205              		@ frame_needed = 0, uses_anonymous_args = 0
 1206 0000 2DE9F84F 		push	{r3, r4, r5, r6, r7, r8, r9, r10, fp, lr}
 1207              	.LCFI14:
 1208              		.cfi_def_cfa_offset 40
 1209              		.cfi_offset 3, -40
 1210              		.cfi_offset 4, -36
 1211              		.cfi_offset 5, -32
 1212              		.cfi_offset 6, -28
 1213              		.cfi_offset 7, -24
 1214              		.cfi_offset 8, -20
 1215              		.cfi_offset 9, -16
 1216              		.cfi_offset 10, -12
 1217              		.cfi_offset 11, -8
 1218              		.cfi_offset 14, -4
 408:Src/draw.c    ****   uint16_t coords = 0;
 1219              		.loc 1 408 3 view .LVU307
 1220              	.LVL114:
 409:Src/draw.c    ****   uint8_t invI;
 1221              		.loc 1 409 3 view .LVU308
 410:Src/draw.c    ****   for (int8_t y = -rz; y <= rz; y++)
 1222              		.loc 1 410 3 view .LVU309
 411:Src/draw.c    ****   {
 1223              		.loc 1 411 3 view .LVU310
 1224              	.LBB50:
ARM GAS  /var/folders/hv/f19l0kw128sbpybv1h43gz3c0000gn/T//ccU1gGxV.s 			page 33


 411:Src/draw.c    ****   {
 1225              		.loc 1 411 8 view .LVU311
 411:Src/draw.c    ****   {
 1226              		.loc 1 411 15 is_stmt 0 view .LVU312
 1227 0004 6FF00708 		mvn	r8, #7
 411:Src/draw.c    ****   {
 1228              		.loc 1 411 3 view .LVU313
 1229 0008 5DE0     		b	.L104
 1230              	.LVL115:
 1231              	.L115:
 1232              	.LBB51:
 416:Src/draw.c    ****       for (int8_t i = 0; i < MAX_DIV - 1; i++)
 1233              		.loc 1 416 12 view .LVU314
 1234 000a D146     		mov	r9, r10
 1235 000c 3DE0     		b	.L105
 1236              	.LVL116:
 1237              	.L119:
 1238              	.LBB52:
 1239              	.LBB53:
 422:Src/draw.c    ****           break;
 1240              		.loc 1 422 11 is_stmt 1 view .LVU315
 422:Src/draw.c    ****           break;
 1241              		.loc 1 422 16 is_stmt 0 view .LVU316
 1242 000e BAF1000F 		cmp	r10, #0
 1243 0012 16D1     		bne	.L108
 422:Src/draw.c    ****           break;
 1244              		.loc 1 422 48 discriminator 1 view .LVU317
 1245 0014 A5EB0409 		sub	r9, r5, r4
 1246              	.LVL117:
 422:Src/draw.c    ****           break;
 1247              		.loc 1 422 48 discriminator 1 view .LVU318
 1248 0018 5FFA89F9 		uxtb	r9, r9
 422:Src/draw.c    ****           break;
 1249              		.loc 1 422 16 discriminator 1 view .LVU319
 1250 001c 09F1FF39 		add	r9, r9, #-1
 1251 0020 5FFA89F9 		uxtb	r9, r9
 1252              	.LVL118:
 1253              	.L109:
 422:Src/draw.c    ****           break;
 1254              		.loc 1 422 16 discriminator 1 view .LVU320
 1255              	.LBE53:
 1256              	.LBE52:
 426:Src/draw.c    ****       for (uint8_t z = 0, invz = 2; z < 3; z++, invz--)
 1257              		.loc 1 426 7 is_stmt 1 view .LVU321
 426:Src/draw.c    ****       for (uint8_t z = 0, invz = 2; z < 3; z++, invz--)
 1258              		.loc 1 426 25 is_stmt 0 view .LVU322
 1259 0024 07EB4707 		add	r7, r7, r7, lsl #1
 1260              	.LVL119:
 426:Src/draw.c    ****       for (uint8_t z = 0, invz = 2; z < 3; z++, invz--)
 1261              		.loc 1 426 51 view .LVU323
 1262 0028 09EB4909 		add	r9, r9, r9, lsl #1
 1263              	.LVL120:
 426:Src/draw.c    ****       for (uint8_t z = 0, invz = 2; z < 3; z++, invz--)
 1264              		.loc 1 426 51 view .LVU324
 1265 002c 4FEA4901 		lsl	r1, r9, #1
 1266 0030 294B     		ldr	r3, .L121
 1267 0032 1944     		add	r1, r1, r3
ARM GAS  /var/folders/hv/f19l0kw128sbpybv1h43gz3c0000gn/T//ccU1gGxV.s 			page 34


 426:Src/draw.c    ****       for (uint8_t z = 0, invz = 2; z < 3; z++, invz--)
 1268              		.loc 1 426 7 view .LVU325
 1269 0034 0331     		adds	r1, r1, #3
 1270 0036 2948     		ldr	r0, .L121+4
 1271 0038 3844     		add	r0, r0, r7
 1272 003a FFF7FEFF 		bl	setColor
 1273              	.LVL121:
 427:Src/draw.c    ****       {
 1274              		.loc 1 427 7 is_stmt 1 view .LVU326
 1275              	.LBB56:
 427:Src/draw.c    ****       {
 1276              		.loc 1 427 12 view .LVU327
 427:Src/draw.c    ****       {
 1277              		.loc 1 427 20 is_stmt 0 view .LVU328
 1278 003e 0023     		movs	r3, #0
 427:Src/draw.c    ****       {
 1279              		.loc 1 427 7 view .LVU329
 1280 0040 07E0     		b	.L111
 1281              	.LVL122:
 1282              	.L108:
 427:Src/draw.c    ****       {
 1283              		.loc 1 427 7 view .LVU330
 1284              	.LBE56:
 1285              	.LBB57:
 1286              	.LBB54:
 422:Src/draw.c    ****           break;
 1287              		.loc 1 422 16 discriminator 2 view .LVU331
 1288 0042 5FFA84F9 		uxtb	r9, r4
 1289              	.LVL123:
 422:Src/draw.c    ****           break;
 1290              		.loc 1 422 16 discriminator 2 view .LVU332
 1291 0046 EDE7     		b	.L109
 1292              	.LVL124:
 1293              	.L112:
 422:Src/draw.c    ****           break;
 1294              		.loc 1 422 16 discriminator 2 view .LVU333
 1295              	.LBE54:
 1296              	.LBE57:
 1297              	.LBB58:
 429:Src/draw.c    ****       }
 1298              		.loc 1 429 9 is_stmt 1 discriminator 3 view .LVU334
 429:Src/draw.c    ****       }
 1299              		.loc 1 429 22 is_stmt 0 discriminator 3 view .LVU335
 1300 0048 254A     		ldr	r2, .L121+8
 1301 004a 9621     		movs	r1, #150
 1302 004c D154     		strb	r1, [r2, r3]
 427:Src/draw.c    ****       {
 1303              		.loc 1 427 45 discriminator 3 view .LVU336
 1304 004e 0133     		adds	r3, r3, #1
 1305              	.LVL125:
 427:Src/draw.c    ****       {
 1306              		.loc 1 427 45 discriminator 3 view .LVU337
 1307 0050 DBB2     		uxtb	r3, r3
 1308              	.LVL126:
 1309              	.L111:
 427:Src/draw.c    ****       {
 1310              		.loc 1 427 7 discriminator 1 view .LVU338
ARM GAS  /var/folders/hv/f19l0kw128sbpybv1h43gz3c0000gn/T//ccU1gGxV.s 			page 35


 1311 0052 022B     		cmp	r3, #2
 1312 0054 F8D9     		bls	.L112
 1313              	.LBE58:
 413:Src/draw.c    ****     {
 1314              		.loc 1 413 36 discriminator 2 view .LVU339
 1315 0056 0136     		adds	r6, r6, #1
 1316              	.LVL127:
 413:Src/draw.c    ****     {
 1317              		.loc 1 413 36 discriminator 2 view .LVU340
 1318 0058 76B2     		sxtb	r6, r6
 1319              	.LVL128:
 1320              	.L114:
 413:Src/draw.c    ****     {
 1321              		.loc 1 413 5 discriminator 1 view .LVU341
 1322 005a 082E     		cmp	r6, #8
 1323 005c 2FDC     		bgt	.L118
 415:Src/draw.c    ****       invI = orientation ? MAX_DIV - 1 : 0;
 1324              		.loc 1 415 7 is_stmt 1 view .LVU342
 415:Src/draw.c    ****       invI = orientation ? MAX_DIV - 1 : 0;
 1325              		.loc 1 415 19 is_stmt 0 view .LVU343
 1326 005e 06F10807 		add	r7, r6, #8
 415:Src/draw.c    ****       invI = orientation ? MAX_DIV - 1 : 0;
 1327              		.loc 1 415 31 view .LVU344
 1328 0062 0BF10800 		add	r0, fp, #8
 415:Src/draw.c    ****       invI = orientation ? MAX_DIV - 1 : 0;
 1329              		.loc 1 415 25 view .LVU345
 1330 0066 0001     		lsls	r0, r0, #4
 1331 0068 80B2     		uxth	r0, r0
 415:Src/draw.c    ****       invI = orientation ? MAX_DIV - 1 : 0;
 1332              		.loc 1 415 14 view .LVU346
 1333 006a 10FA87F7 		uxtah	r7, r0, r7
 1334 006e BFB2     		uxth	r7, r7
 1335              	.LVL129:
 416:Src/draw.c    ****       for (int8_t i = 0; i < MAX_DIV - 1; i++)
 1336              		.loc 1 416 7 is_stmt 1 view .LVU347
 416:Src/draw.c    ****       for (int8_t i = 0; i < MAX_DIV - 1; i++)
 1337              		.loc 1 416 26 is_stmt 0 view .LVU348
 1338 0070 1C4B     		ldr	r3, .L121+12
 1339 0072 93F800A0 		ldrb	r10, [r3]	@ zero_extendqisi2
 416:Src/draw.c    ****       for (int8_t i = 0; i < MAX_DIV - 1; i++)
 1340              		.loc 1 416 12 view .LVU349
 1341 0076 BAF1000F 		cmp	r10, #0
 1342 007a C6D0     		beq	.L115
 416:Src/draw.c    ****       for (int8_t i = 0; i < MAX_DIV - 1; i++)
 1343              		.loc 1 416 36 discriminator 1 view .LVU350
 1344 007c 1A4B     		ldr	r3, .L121+16
 1345 007e 93F80090 		ldrb	r9, [r3]	@ zero_extendqisi2
 416:Src/draw.c    ****       for (int8_t i = 0; i < MAX_DIV - 1; i++)
 1346              		.loc 1 416 12 discriminator 1 view .LVU351
 1347 0082 09F1FF39 		add	r9, r9, #-1
 1348 0086 5FFA89F9 		uxtb	r9, r9
 1349              	.L105:
 1350              	.LVL130:
 417:Src/draw.c    ****       {
 1351              		.loc 1 417 7 is_stmt 1 discriminator 4 view .LVU352
 1352              	.LBB59:
 417:Src/draw.c    ****       {
ARM GAS  /var/folders/hv/f19l0kw128sbpybv1h43gz3c0000gn/T//ccU1gGxV.s 			page 36


 1353              		.loc 1 417 12 discriminator 4 view .LVU353
 417:Src/draw.c    ****       {
 1354              		.loc 1 417 19 is_stmt 0 discriminator 4 view .LVU354
 1355 008a 0024     		movs	r4, #0
 1356              	.LVL131:
 1357              	.L106:
 417:Src/draw.c    ****       {
 1358              		.loc 1 417 38 discriminator 1 view .LVU355
 1359 008c 164B     		ldr	r3, .L121+16
 1360 008e 1D78     		ldrb	r5, [r3]	@ zero_extendqisi2
 1361 0090 6B1E     		subs	r3, r5, #1
 417:Src/draw.c    ****       {
 1362              		.loc 1 417 7 discriminator 1 view .LVU356
 1363 0092 9C42     		cmp	r4, r3
 1364 0094 C6DA     		bge	.L109
 1365              	.LBB55:
 419:Src/draw.c    ****         if (circle(x, y, layer))
 1366              		.loc 1 419 9 is_stmt 1 view .LVU357
 419:Src/draw.c    ****         if (circle(x, y, layer))
 1367              		.loc 1 419 34 is_stmt 0 view .LVU358
 1368 0096 631C     		adds	r3, r4, #1
 1369 0098 00EE103A 		vmov	s0, r3	@ int
 419:Src/draw.c    ****         if (circle(x, y, layer))
 1370              		.loc 1 419 24 view .LVU359
 1371 009c B8EEC00A 		vcvt.f32.s32	s0, s0
 419:Src/draw.c    ****         if (circle(x, y, layer))
 1372              		.loc 1 419 39 view .LVU360
 1373 00a0 07EE905A 		vmov	s15, r5	@ int
 1374 00a4 F8EEE77A 		vcvt.f32.s32	s15, s15
 1375              	.LVL132:
 420:Src/draw.c    ****         {
 1376              		.loc 1 420 9 is_stmt 1 view .LVU361
 420:Src/draw.c    ****         {
 1377              		.loc 1 420 13 is_stmt 0 view .LVU362
 1378 00a8 80EE270A 		vdiv.f32	s0, s0, s15
 1379              	.LVL133:
 420:Src/draw.c    ****         {
 1380              		.loc 1 420 13 view .LVU363
 1381 00ac 4146     		mov	r1, r8
 1382 00ae 3046     		mov	r0, r6
 1383 00b0 FFF7FEFF 		bl	circle
 1384              	.LVL134:
 420:Src/draw.c    ****         {
 1385              		.loc 1 420 12 view .LVU364
 1386 00b4 0028     		cmp	r0, #0
 1387 00b6 AAD1     		bne	.L119
 1388              	.LBE55:
 417:Src/draw.c    ****       {
 1389              		.loc 1 417 44 discriminator 2 view .LVU365
 1390 00b8 0134     		adds	r4, r4, #1
 1391              	.LVL135:
 417:Src/draw.c    ****       {
 1392              		.loc 1 417 44 discriminator 2 view .LVU366
 1393 00ba 64B2     		sxtb	r4, r4
 1394              	.LVL136:
 417:Src/draw.c    ****       {
 1395              		.loc 1 417 44 discriminator 2 view .LVU367
ARM GAS  /var/folders/hv/f19l0kw128sbpybv1h43gz3c0000gn/T//ccU1gGxV.s 			page 37


 1396 00bc E6E7     		b	.L106
 1397              	.LVL137:
 1398              	.L118:
 417:Src/draw.c    ****       {
 1399              		.loc 1 417 44 discriminator 2 view .LVU368
 1400              	.LBE59:
 1401              	.LBE51:
 411:Src/draw.c    ****   {
 1402              		.loc 1 411 34 discriminator 2 view .LVU369
 1403 00be 08F10108 		add	r8, r8, #1
 1404              	.LVL138:
 411:Src/draw.c    ****   {
 1405              		.loc 1 411 34 discriminator 2 view .LVU370
 1406 00c2 4FFA88F8 		sxtb	r8, r8
 1407              	.LVL139:
 1408              	.L104:
 411:Src/draw.c    ****   {
 1409              		.loc 1 411 26 discriminator 1 view .LVU371
 1410 00c6 C346     		mov	fp, r8
 411:Src/draw.c    ****   {
 1411              		.loc 1 411 3 discriminator 1 view .LVU372
 1412 00c8 B8F1080F 		cmp	r8, #8
 1413 00cc 02DC     		bgt	.L120
 1414              	.LBB60:
 413:Src/draw.c    ****     {
 1415              		.loc 1 413 17 view .LVU373
 1416 00ce 6FF00706 		mvn	r6, #7
 1417 00d2 C2E7     		b	.L114
 1418              	.L120:
 1419              	.LBE60:
 1420              	.LBE50:
 433:Src/draw.c    **** 
 1421              		.loc 1 433 1 view .LVU374
 1422 00d4 BDE8F88F 		pop	{r3, r4, r5, r6, r7, r8, r9, r10, fp, pc}
 1423              	.LVL140:
 1424              	.L122:
 433:Src/draw.c    **** 
 1425              		.loc 1 433 1 view .LVU375
 1426              		.align	2
 1427              	.L121:
 1428 00d8 00000000 		.word	noteBuffer
 1429 00dc 00000000 		.word	backLayer
 1430 00e0 00000000 		.word	textColor
 1431 00e4 00000000 		.word	.LANCHOR3
 1432 00e8 00000000 		.word	.LANCHOR4
 1433              		.cfi_endproc
 1434              	.LFE8:
 1436              		.section	.text.square,"ax",%progbits
 1437              		.align	1
 1438              		.global	square
 1439              		.syntax unified
 1440              		.thumb
 1441              		.thumb_func
 1442              		.fpu fpv4-sp-d16
 1444              	square:
 1445              	.LVL141:
 1446              	.LFB11:
ARM GAS  /var/folders/hv/f19l0kw128sbpybv1h43gz3c0000gn/T//ccU1gGxV.s 			page 38


 472:Src/draw.c    **** 
 473:Src/draw.c    **** uint8_t square(int8_t x, int8_t y, float layer)
 474:Src/draw.c    **** {
 1447              		.loc 1 474 1 is_stmt 1 view -0
 1448              		.cfi_startproc
 1449              		@ args = 0, pretend = 0, frame = 8
 1450              		@ frame_needed = 0, uses_anonymous_args = 0
 1451              		@ link register save eliminated.
 1452              		.loc 1 474 1 is_stmt 0 view .LVU377
 1453 0000 82B0     		sub	sp, sp, #8
 1454              	.LCFI15:
 1455              		.cfi_def_cfa_offset 8
 1456 0002 0191     		str	r1, [sp, #4]
 475:Src/draw.c    ****   float z = ((float)NCOLS / 2);
 1457              		.loc 1 475 3 is_stmt 1 view .LVU378
 1458              	.LVL142:
 476:Src/draw.c    ****   float perc = layer * z;
 1459              		.loc 1 476 3 view .LVU379
 1460              		.loc 1 476 9 is_stmt 0 view .LVU380
 1461 0004 F2EE007A 		vmov.f32	s15, #8.0e+0
 1462 0008 20EE270A 		vmul.f32	s0, s0, s15
 1463              	.LVL143:
 477:Src/draw.c    ****   return ((x >= -perc && x <= perc) && (y >= -perc && y <= perc));
 1464              		.loc 1 477 3 is_stmt 1 view .LVU381
 1465              		.loc 1 477 14 is_stmt 0 view .LVU382
 1466 000c 07EE900A 		vmov	s15, r0	@ int
 1467 0010 F8EEE77A 		vcvt.f32.s32	s15, s15
 1468              		.loc 1 477 17 view .LVU383
 1469 0014 B1EE407A 		vneg.f32	s14, s0
 1470              		.loc 1 477 37 view .LVU384
 1471 0018 F4EEC77A 		vcmpe.f32	s15, s14
 1472 001c F1EE10FA 		vmrs	APSR_nzcv, FPSCR
 1473 0020 14DB     		blt	.L135
 1474              		.loc 1 477 23 discriminator 1 view .LVU385
 1475 0022 F4EEC07A 		vcmpe.f32	s15, s0
 1476 0026 F1EE10FA 		vmrs	APSR_nzcv, FPSCR
 1477 002a 12D8     		bhi	.L136
 1478              		.loc 1 477 43 discriminator 3 view .LVU386
 1479 002c 07EE901A 		vmov	s15, r1	@ int
 1480 0030 F8EEE77A 		vcvt.f32.s32	s15, s15
 1481              		.loc 1 477 37 discriminator 3 view .LVU387
 1482 0034 B4EEE77A 		vcmpe.f32	s14, s15
 1483 0038 F1EE10FA 		vmrs	APSR_nzcv, FPSCR
 1484 003c 0BD8     		bhi	.L137
 1485              		.loc 1 477 52 discriminator 5 view .LVU388
 1486 003e F4EEC07A 		vcmpe.f32	s15, s0
 1487 0042 F1EE10FA 		vmrs	APSR_nzcv, FPSCR
 1488 0046 08D9     		bls	.L131
 1489              		.loc 1 477 37 view .LVU389
 1490 0048 0020     		movs	r0, #0
 1491              	.LVL144:
 1492              		.loc 1 477 37 view .LVU390
 1493 004a 00E0     		b	.L124
 1494              	.LVL145:
 1495              	.L135:
 1496              		.loc 1 477 37 view .LVU391
 1497 004c 0020     		movs	r0, #0
ARM GAS  /var/folders/hv/f19l0kw128sbpybv1h43gz3c0000gn/T//ccU1gGxV.s 			page 39


 1498              	.LVL146:
 1499              	.L124:
 478:Src/draw.c    **** }
 1500              		.loc 1 478 1 discriminator 10 view .LVU392
 1501 004e 02B0     		add	sp, sp, #8
 1502              	.LCFI16:
 1503              		.cfi_remember_state
 1504              		.cfi_def_cfa_offset 0
 1505              		@ sp needed
 1506 0050 7047     		bx	lr
 1507              	.LVL147:
 1508              	.L136:
 1509              	.LCFI17:
 1510              		.cfi_restore_state
 477:Src/draw.c    ****   return ((x >= -perc && x <= perc) && (y >= -perc && y <= perc));
 1511              		.loc 1 477 37 view .LVU393
 1512 0052 0020     		movs	r0, #0
 1513              	.LVL148:
 477:Src/draw.c    ****   return ((x >= -perc && x <= perc) && (y >= -perc && y <= perc));
 1514              		.loc 1 477 37 view .LVU394
 1515 0054 FBE7     		b	.L124
 1516              	.LVL149:
 1517              	.L137:
 477:Src/draw.c    ****   return ((x >= -perc && x <= perc) && (y >= -perc && y <= perc));
 1518              		.loc 1 477 37 view .LVU395
 1519 0056 0020     		movs	r0, #0
 1520              	.LVL150:
 477:Src/draw.c    ****   return ((x >= -perc && x <= perc) && (y >= -perc && y <= perc));
 1521              		.loc 1 477 37 view .LVU396
 1522 0058 F9E7     		b	.L124
 1523              	.LVL151:
 1524              	.L131:
 477:Src/draw.c    ****   return ((x >= -perc && x <= perc) && (y >= -perc && y <= perc));
 1525              		.loc 1 477 37 view .LVU397
 1526 005a 0120     		movs	r0, #1
 1527              	.LVL152:
 477:Src/draw.c    ****   return ((x >= -perc && x <= perc) && (y >= -perc && y <= perc));
 1528              		.loc 1 477 37 view .LVU398
 1529 005c F7E7     		b	.L124
 1530              		.cfi_endproc
 1531              	.LFE11:
 1533              		.global	__aeabi_i2d
 1534              		.global	__aeabi_dmul
 1535              		.global	__aeabi_f2d
 1536              		.global	__aeabi_dadd
 1537              		.global	__aeabi_d2f
 1538              		.global	__aeabi_dcmplt
 1539              		.section	.text.triangle,"ax",%progbits
 1540              		.align	1
 1541              		.global	triangle
 1542              		.syntax unified
 1543              		.thumb
 1544              		.thumb_func
 1545              		.fpu fpv4-sp-d16
 1547              	triangle:
 1548              	.LVL153:
 1549              	.LFB12:
ARM GAS  /var/folders/hv/f19l0kw128sbpybv1h43gz3c0000gn/T//ccU1gGxV.s 			page 40


 479:Src/draw.c    **** 
 480:Src/draw.c    **** uint8_t triangle(int8_t x, int8_t y, float layer)
 481:Src/draw.c    **** {
 1550              		.loc 1 481 1 is_stmt 1 view -0
 1551              		.cfi_startproc
 1552              		@ args = 0, pretend = 0, frame = 0
 1553              		@ frame_needed = 0, uses_anonymous_args = 0
 1554              		.loc 1 481 1 is_stmt 0 view .LVU400
 1555 0000 2DE9F843 		push	{r3, r4, r5, r6, r7, r8, r9, lr}
 1556              	.LCFI18:
 1557              		.cfi_def_cfa_offset 32
 1558              		.cfi_offset 3, -32
 1559              		.cfi_offset 4, -28
 1560              		.cfi_offset 5, -24
 1561              		.cfi_offset 6, -20
 1562              		.cfi_offset 7, -16
 1563              		.cfi_offset 8, -12
 1564              		.cfi_offset 9, -8
 1565              		.cfi_offset 14, -4
 1566 0004 2DED028B 		vpush.64	{d8}
 1567              	.LCFI19:
 1568              		.cfi_def_cfa_offset 40
 1569              		.cfi_offset 80, -40
 1570              		.cfi_offset 81, -36
 1571 0008 08EE100A 		vmov	s16, r0	@ int
 482:Src/draw.c    ****   float z = ((float)NCOLS / 2);
 1572              		.loc 1 482 3 is_stmt 1 view .LVU401
 1573              	.LVL154:
 483:Src/draw.c    ****   float perc = layer * z;
 1574              		.loc 1 483 3 view .LVU402
 1575              		.loc 1 483 9 is_stmt 0 view .LVU403
 1576 000c F2EE008A 		vmov.f32	s17, #8.0e+0
 1577 0010 60EE288A 		vmul.f32	s17, s0, s17
 1578              	.LVL155:
 484:Src/draw.c    ****   float offset = z / 7;
 1579              		.loc 1 484 3 is_stmt 1 view .LVU404
 485:Src/draw.c    ****   float m = y * 0.7 + perc;
 1580              		.loc 1 485 3 view .LVU405
 1581              		.loc 1 485 15 is_stmt 0 view .LVU406
 1582 0014 0846     		mov	r0, r1
 1583              	.LVL156:
 1584              		.loc 1 485 15 view .LVU407
 1585 0016 FFF7FEFF 		bl	__aeabi_i2d
 1586              	.LVL157:
 1587              		.loc 1 485 15 view .LVU408
 1588 001a 8046     		mov	r8, r0
 1589 001c 8946     		mov	r9, r1
 1590 001e 20A3     		adr	r3, .L151
 1591 0020 D3E90023 		ldrd	r2, [r3]
 1592 0024 FFF7FEFF 		bl	__aeabi_dmul
 1593              	.LVL158:
 1594 0028 0646     		mov	r6, r0
 1595 002a 0F46     		mov	r7, r1
 1596              		.loc 1 485 21 view .LVU409
 1597 002c 18EE900A 		vmov	r0, s17
 1598 0030 FFF7FEFF 		bl	__aeabi_f2d
 1599              	.LVL159:
ARM GAS  /var/folders/hv/f19l0kw128sbpybv1h43gz3c0000gn/T//ccU1gGxV.s 			page 41


 1600 0034 0446     		mov	r4, r0
 1601 0036 0D46     		mov	r5, r1
 1602 0038 0246     		mov	r2, r0
 1603 003a 0B46     		mov	r3, r1
 1604 003c 3046     		mov	r0, r6
 1605 003e 3946     		mov	r1, r7
 1606 0040 FFF7FEFF 		bl	__aeabi_dadd
 1607              	.LVL160:
 1608              		.loc 1 485 9 view .LVU410
 1609 0044 FFF7FEFF 		bl	__aeabi_d2f
 1610              	.LVL161:
 1611 0048 07EE100A 		vmov	s14, r0
 1612              	.LVL162:
 486:Src/draw.c    ****   return ((x > -m) && (x < m)) && (y < perc * 0.9 + offset);
 1613              		.loc 1 486 3 is_stmt 1 view .LVU411
 1614              		.loc 1 486 14 is_stmt 0 view .LVU412
 1615 004c F8EEC87A 		vcvt.f32.s32	s15, s16
 1616              		.loc 1 486 16 view .LVU413
 1617 0050 F1EE476A 		vneg.f32	s13, s14
 1618              		.loc 1 486 32 view .LVU414
 1619 0054 F4EEE67A 		vcmpe.f32	s15, s13
 1620 0058 F1EE10FA 		vmrs	APSR_nzcv, FPSCR
 1621 005c 19DD     		ble	.L148
 1622              		.loc 1 486 20 discriminator 1 view .LVU415
 1623 005e F4EEC77A 		vcmpe.f32	s15, s14
 1624 0062 F1EE10FA 		vmrs	APSR_nzcv, FPSCR
 1625 0066 19D5     		bpl	.L149
 1626              		.loc 1 486 45 discriminator 3 view .LVU416
 1627 0068 0FA3     		adr	r3, .L151+8
 1628 006a D3E90023 		ldrd	r2, [r3]
 1629 006e 2046     		mov	r0, r4
 1630              	.LVL163:
 1631              		.loc 1 486 45 discriminator 3 view .LVU417
 1632 0070 2946     		mov	r1, r5
 1633 0072 FFF7FEFF 		bl	__aeabi_dmul
 1634              	.LVL164:
 1635              		.loc 1 486 51 discriminator 3 view .LVU418
 1636 0076 0EA3     		adr	r3, .L151+16
 1637 0078 D3E90023 		ldrd	r2, [r3]
 1638 007c FFF7FEFF 		bl	__aeabi_dadd
 1639              	.LVL165:
 1640              		.loc 1 486 32 discriminator 3 view .LVU419
 1641 0080 0246     		mov	r2, r0
 1642 0082 0B46     		mov	r3, r1
 1643 0084 4046     		mov	r0, r8
 1644 0086 4946     		mov	r1, r9
 1645 0088 FFF7FEFF 		bl	__aeabi_dcmplt
 1646              	.LVL166:
 1647 008c 10B1     		cbz	r0, .L140
 1648              		.loc 1 486 32 view .LVU420
 1649 008e 0120     		movs	r0, #1
 1650 0090 00E0     		b	.L140
 1651              	.LVL167:
 1652              	.L148:
 1653              		.loc 1 486 32 view .LVU421
 1654 0092 0020     		movs	r0, #0
 1655              	.LVL168:
ARM GAS  /var/folders/hv/f19l0kw128sbpybv1h43gz3c0000gn/T//ccU1gGxV.s 			page 42


 1656              	.L140:
 487:Src/draw.c    **** }
 1657              		.loc 1 487 1 discriminator 8 view .LVU422
 1658 0094 BDEC028B 		vldm	sp!, {d8}
 1659              	.LCFI20:
 1660              		.cfi_remember_state
 1661              		.cfi_restore 80
 1662              		.cfi_restore 81
 1663              		.cfi_def_cfa_offset 32
 1664 0098 BDE8F883 		pop	{r3, r4, r5, r6, r7, r8, r9, pc}
 1665              	.LVL169:
 1666              	.L149:
 1667              	.LCFI21:
 1668              		.cfi_restore_state
 486:Src/draw.c    ****   return ((x > -m) && (x < m)) && (y < perc * 0.9 + offset);
 1669              		.loc 1 486 32 view .LVU423
 1670 009c 0020     		movs	r0, #0
 1671              	.LVL170:
 486:Src/draw.c    ****   return ((x > -m) && (x < m)) && (y < perc * 0.9 + offset);
 1672              		.loc 1 486 32 view .LVU424
 1673 009e F9E7     		b	.L140
 1674              	.L152:
 1675              		.align	3
 1676              	.L151:
 1677 00a0 66666666 		.word	1717986918
 1678 00a4 6666E63F 		.word	1072064102
 1679 00a8 CDCCCCCC 		.word	3435973837
 1680 00ac CCCCEC3F 		.word	1072483532
 1681 00b0 000000A0 		.word	2684354560
 1682 00b4 2449F23F 		.word	1072843044
 1683              		.cfi_endproc
 1684              	.LFE12:
 1686              		.section	.text.cross,"ax",%progbits
 1687              		.align	1
 1688              		.global	cross
 1689              		.syntax unified
 1690              		.thumb
 1691              		.thumb_func
 1692              		.fpu fpv4-sp-d16
 1694              	cross:
 1695              	.LVL171:
 1696              	.LFB13:
 488:Src/draw.c    **** 
 489:Src/draw.c    **** uint8_t cross(int8_t x, int8_t y, float layer)
 490:Src/draw.c    **** {
 1697              		.loc 1 490 1 is_stmt 1 view -0
 1698              		.cfi_startproc
 1699              		@ args = 0, pretend = 0, frame = 8
 1700              		@ frame_needed = 0, uses_anonymous_args = 0
 1701              		@ link register save eliminated.
 1702              		.loc 1 490 1 is_stmt 0 view .LVU426
 1703 0000 82B0     		sub	sp, sp, #8
 1704              	.LCFI22:
 1705              		.cfi_def_cfa_offset 8
 1706 0002 0191     		str	r1, [sp, #4]
 491:Src/draw.c    ****   float z = ((float)NCOLS / 2);
 1707              		.loc 1 491 3 is_stmt 1 view .LVU427
ARM GAS  /var/folders/hv/f19l0kw128sbpybv1h43gz3c0000gn/T//ccU1gGxV.s 			page 43


 1708              	.LVL172:
 492:Src/draw.c    ****   float perc = z - layer * z;
 1709              		.loc 1 492 3 view .LVU428
 1710              		.loc 1 492 26 is_stmt 0 view .LVU429
 1711 0004 F2EE007A 		vmov.f32	s15, #8.0e+0
 1712 0008 20EE270A 		vmul.f32	s0, s0, s15
 1713              	.LVL173:
 1714              		.loc 1 492 9 view .LVU430
 1715 000c 77EEC07A 		vsub.f32	s15, s15, s0
 1716              	.LVL174:
 493:Src/draw.c    ****   return ((x <= -perc || x >= perc) && (y <= -perc || y >= perc));
 1717              		.loc 1 493 3 is_stmt 1 view .LVU431
 1718              		.loc 1 493 14 is_stmt 0 view .LVU432
 1719 0010 07EE100A 		vmov	s14, r0	@ int
 1720 0014 B8EEC77A 		vcvt.f32.s32	s14, s14
 1721              		.loc 1 493 17 view .LVU433
 1722 0018 F1EE676A 		vneg.f32	s13, s15
 1723              		.loc 1 493 37 view .LVU434
 1724 001c B4EEE67A 		vcmpe.f32	s14, s13
 1725 0020 F1EE10FA 		vmrs	APSR_nzcv, FPSCR
 1726 0024 04D9     		bls	.L154
 1727              		.loc 1 493 23 discriminator 2 view .LVU435
 1728 0026 B4EEE77A 		vcmpe.f32	s14, s15
 1729 002a F1EE10FA 		vmrs	APSR_nzcv, FPSCR
 1730 002e 0FDB     		blt	.L160
 1731              	.L154:
 1732              		.loc 1 493 43 discriminator 3 view .LVU436
 1733 0030 9DED017A 		vldr.32	s14, [sp, #4]	@ int
 1734 0034 B8EEC77A 		vcvt.f32.s32	s14, s14
 1735              		.loc 1 493 37 discriminator 3 view .LVU437
 1736 0038 F4EEC76A 		vcmpe.f32	s13, s14
 1737 003c F1EE10FA 		vmrs	APSR_nzcv, FPSCR
 1738 0040 08DA     		bge	.L158
 1739              		.loc 1 493 52 discriminator 6 view .LVU438
 1740 0042 B4EEE77A 		vcmpe.f32	s14, s15
 1741 0046 F1EE10FA 		vmrs	APSR_nzcv, FPSCR
 1742 004a 06DA     		bge	.L159
 1743              		.loc 1 493 37 view .LVU439
 1744 004c 0020     		movs	r0, #0
 1745              	.LVL175:
 1746              		.loc 1 493 37 view .LVU440
 1747 004e 02E0     		b	.L155
 1748              	.LVL176:
 1749              	.L160:
 1750              		.loc 1 493 37 view .LVU441
 1751 0050 0020     		movs	r0, #0
 1752              	.LVL177:
 1753              		.loc 1 493 37 view .LVU442
 1754 0052 00E0     		b	.L155
 1755              	.LVL178:
 1756              	.L158:
 1757              		.loc 1 493 37 view .LVU443
 1758 0054 0120     		movs	r0, #1
 1759              	.LVL179:
 1760              	.L155:
 494:Src/draw.c    **** }
 1761              		.loc 1 494 1 discriminator 10 view .LVU444
ARM GAS  /var/folders/hv/f19l0kw128sbpybv1h43gz3c0000gn/T//ccU1gGxV.s 			page 44


 1762 0056 02B0     		add	sp, sp, #8
 1763              	.LCFI23:
 1764              		.cfi_remember_state
 1765              		.cfi_def_cfa_offset 0
 1766              		@ sp needed
 1767 0058 7047     		bx	lr
 1768              	.LVL180:
 1769              	.L159:
 1770              	.LCFI24:
 1771              		.cfi_restore_state
 493:Src/draw.c    ****   return ((x <= -perc || x >= perc) && (y <= -perc || y >= perc));
 1772              		.loc 1 493 37 view .LVU445
 1773 005a 0120     		movs	r0, #1
 1774              	.LVL181:
 493:Src/draw.c    ****   return ((x <= -perc || x >= perc) && (y <= -perc || y >= perc));
 1775              		.loc 1 493 37 view .LVU446
 1776 005c FBE7     		b	.L155
 1777              		.cfi_endproc
 1778              	.LFE13:
 1780              		.section	.text.horizontal,"ax",%progbits
 1781              		.align	1
 1782              		.global	horizontal
 1783              		.syntax unified
 1784              		.thumb
 1785              		.thumb_func
 1786              		.fpu fpv4-sp-d16
 1788              	horizontal:
 1789              	.LVL182:
 1790              	.LFB14:
 495:Src/draw.c    **** 
 496:Src/draw.c    **** uint8_t horizontal(int8_t x, int8_t y, float layer)
 497:Src/draw.c    **** {
 1791              		.loc 1 497 1 is_stmt 1 view -0
 1792              		.cfi_startproc
 1793              		@ args = 0, pretend = 0, frame = 8
 1794              		@ frame_needed = 0, uses_anonymous_args = 0
 1795              		@ link register save eliminated.
 1796              		.loc 1 497 1 is_stmt 0 view .LVU448
 1797 0000 82B0     		sub	sp, sp, #8
 1798              	.LCFI25:
 1799              		.cfi_def_cfa_offset 8
 1800 0002 0191     		str	r1, [sp, #4]
 498:Src/draw.c    ****   float z = ((float)NCOLS / 2);
 1801              		.loc 1 498 3 is_stmt 1 view .LVU449
 1802              	.LVL183:
 499:Src/draw.c    ****   float perc = z - layer * z;
 1803              		.loc 1 499 3 view .LVU450
 1804              		.loc 1 499 26 is_stmt 0 view .LVU451
 1805 0004 F2EE007A 		vmov.f32	s15, #8.0e+0
 1806 0008 20EE270A 		vmul.f32	s0, s0, s15
 1807              	.LVL184:
 1808              		.loc 1 499 9 view .LVU452
 1809 000c 77EEC07A 		vsub.f32	s15, s15, s0
 1810              	.LVL185:
 500:Src/draw.c    ****   return ((x >= -perc || x <= perc) && (y <= -perc || y >= perc));
 1811              		.loc 1 500 3 is_stmt 1 view .LVU453
 1812              		.loc 1 500 14 is_stmt 0 view .LVU454
ARM GAS  /var/folders/hv/f19l0kw128sbpybv1h43gz3c0000gn/T//ccU1gGxV.s 			page 45


 1813 0010 07EE100A 		vmov	s14, r0	@ int
 1814 0014 B8EEC77A 		vcvt.f32.s32	s14, s14
 1815              		.loc 1 500 17 view .LVU455
 1816 0018 F1EE676A 		vneg.f32	s13, s15
 1817              		.loc 1 500 37 view .LVU456
 1818 001c B4EEE67A 		vcmpe.f32	s14, s13
 1819 0020 F1EE10FA 		vmrs	APSR_nzcv, FPSCR
 1820 0024 04DA     		bge	.L163
 1821              		.loc 1 500 23 discriminator 2 view .LVU457
 1822 0026 B4EEE77A 		vcmpe.f32	s14, s15
 1823 002a F1EE10FA 		vmrs	APSR_nzcv, FPSCR
 1824 002e 0FD8     		bhi	.L169
 1825              	.L163:
 1826              		.loc 1 500 43 discriminator 3 view .LVU458
 1827 0030 9DED017A 		vldr.32	s14, [sp, #4]	@ int
 1828 0034 B8EEC77A 		vcvt.f32.s32	s14, s14
 1829              		.loc 1 500 37 discriminator 3 view .LVU459
 1830 0038 F4EEC76A 		vcmpe.f32	s13, s14
 1831 003c F1EE10FA 		vmrs	APSR_nzcv, FPSCR
 1832 0040 08DA     		bge	.L167
 1833              		.loc 1 500 52 discriminator 6 view .LVU460
 1834 0042 B4EEE77A 		vcmpe.f32	s14, s15
 1835 0046 F1EE10FA 		vmrs	APSR_nzcv, FPSCR
 1836 004a 06DA     		bge	.L168
 1837              		.loc 1 500 37 view .LVU461
 1838 004c 0020     		movs	r0, #0
 1839              	.LVL186:
 1840              		.loc 1 500 37 view .LVU462
 1841 004e 02E0     		b	.L164
 1842              	.LVL187:
 1843              	.L169:
 1844              		.loc 1 500 37 view .LVU463
 1845 0050 0020     		movs	r0, #0
 1846              	.LVL188:
 1847              		.loc 1 500 37 view .LVU464
 1848 0052 00E0     		b	.L164
 1849              	.LVL189:
 1850              	.L167:
 1851              		.loc 1 500 37 view .LVU465
 1852 0054 0120     		movs	r0, #1
 1853              	.LVL190:
 1854              	.L164:
 501:Src/draw.c    **** }
 1855              		.loc 1 501 1 discriminator 10 view .LVU466
 1856 0056 02B0     		add	sp, sp, #8
 1857              	.LCFI26:
 1858              		.cfi_remember_state
 1859              		.cfi_def_cfa_offset 0
 1860              		@ sp needed
 1861 0058 7047     		bx	lr
 1862              	.LVL191:
 1863              	.L168:
 1864              	.LCFI27:
 1865              		.cfi_restore_state
 500:Src/draw.c    ****   return ((x >= -perc || x <= perc) && (y <= -perc || y >= perc));
 1866              		.loc 1 500 37 view .LVU467
 1867 005a 0120     		movs	r0, #1
ARM GAS  /var/folders/hv/f19l0kw128sbpybv1h43gz3c0000gn/T//ccU1gGxV.s 			page 46


 1868              	.LVL192:
 500:Src/draw.c    ****   return ((x >= -perc || x <= perc) && (y <= -perc || y >= perc));
 1869              		.loc 1 500 37 view .LVU468
 1870 005c FBE7     		b	.L164
 1871              		.cfi_endproc
 1872              	.LFE14:
 1874              		.section	.text.vertical,"ax",%progbits
 1875              		.align	1
 1876              		.global	vertical
 1877              		.syntax unified
 1878              		.thumb
 1879              		.thumb_func
 1880              		.fpu fpv4-sp-d16
 1882              	vertical:
 1883              	.LVL193:
 1884              	.LFB15:
 502:Src/draw.c    **** 
 503:Src/draw.c    **** uint8_t vertical(int8_t x, int8_t y, float layer)
 504:Src/draw.c    **** {
 1885              		.loc 1 504 1 is_stmt 1 view -0
 1886              		.cfi_startproc
 1887              		@ args = 0, pretend = 0, frame = 8
 1888              		@ frame_needed = 0, uses_anonymous_args = 0
 1889              		@ link register save eliminated.
 1890              		.loc 1 504 1 is_stmt 0 view .LVU470
 1891 0000 82B0     		sub	sp, sp, #8
 1892              	.LCFI28:
 1893              		.cfi_def_cfa_offset 8
 1894 0002 0191     		str	r1, [sp, #4]
 505:Src/draw.c    ****   float z = ((float)NCOLS / 2);
 1895              		.loc 1 505 3 is_stmt 1 view .LVU471
 1896              	.LVL194:
 506:Src/draw.c    ****   float perc = z - layer * z;
 1897              		.loc 1 506 3 view .LVU472
 1898              		.loc 1 506 26 is_stmt 0 view .LVU473
 1899 0004 F2EE007A 		vmov.f32	s15, #8.0e+0
 1900 0008 20EE270A 		vmul.f32	s0, s0, s15
 1901              	.LVL195:
 1902              		.loc 1 506 9 view .LVU474
 1903 000c 77EEC07A 		vsub.f32	s15, s15, s0
 1904              	.LVL196:
 507:Src/draw.c    ****   return ((x <= -perc || x >= perc) && (y >= -perc || y <= perc));
 1905              		.loc 1 507 3 is_stmt 1 view .LVU475
 1906              		.loc 1 507 14 is_stmt 0 view .LVU476
 1907 0010 07EE100A 		vmov	s14, r0	@ int
 1908 0014 B8EEC77A 		vcvt.f32.s32	s14, s14
 1909              		.loc 1 507 17 view .LVU477
 1910 0018 F1EE676A 		vneg.f32	s13, s15
 1911              		.loc 1 507 37 view .LVU478
 1912 001c B4EEE67A 		vcmpe.f32	s14, s13
 1913 0020 F1EE10FA 		vmrs	APSR_nzcv, FPSCR
 1914 0024 04D9     		bls	.L172
 1915              		.loc 1 507 23 discriminator 2 view .LVU479
 1916 0026 B4EEE77A 		vcmpe.f32	s14, s15
 1917 002a F1EE10FA 		vmrs	APSR_nzcv, FPSCR
 1918 002e 0FDB     		blt	.L178
 1919              	.L172:
ARM GAS  /var/folders/hv/f19l0kw128sbpybv1h43gz3c0000gn/T//ccU1gGxV.s 			page 47


 1920              		.loc 1 507 43 discriminator 3 view .LVU480
 1921 0030 9DED017A 		vldr.32	s14, [sp, #4]	@ int
 1922 0034 B8EEC77A 		vcvt.f32.s32	s14, s14
 1923              		.loc 1 507 37 discriminator 3 view .LVU481
 1924 0038 F4EEC76A 		vcmpe.f32	s13, s14
 1925 003c F1EE10FA 		vmrs	APSR_nzcv, FPSCR
 1926 0040 08D9     		bls	.L176
 1927              		.loc 1 507 52 discriminator 6 view .LVU482
 1928 0042 B4EEE77A 		vcmpe.f32	s14, s15
 1929 0046 F1EE10FA 		vmrs	APSR_nzcv, FPSCR
 1930 004a 06D9     		bls	.L177
 1931              		.loc 1 507 37 view .LVU483
 1932 004c 0020     		movs	r0, #0
 1933              	.LVL197:
 1934              		.loc 1 507 37 view .LVU484
 1935 004e 02E0     		b	.L173
 1936              	.LVL198:
 1937              	.L178:
 1938              		.loc 1 507 37 view .LVU485
 1939 0050 0020     		movs	r0, #0
 1940              	.LVL199:
 1941              		.loc 1 507 37 view .LVU486
 1942 0052 00E0     		b	.L173
 1943              	.LVL200:
 1944              	.L176:
 1945              		.loc 1 507 37 view .LVU487
 1946 0054 0120     		movs	r0, #1
 1947              	.LVL201:
 1948              	.L173:
 508:Src/draw.c    **** }
 1949              		.loc 1 508 1 discriminator 10 view .LVU488
 1950 0056 02B0     		add	sp, sp, #8
 1951              	.LCFI29:
 1952              		.cfi_remember_state
 1953              		.cfi_def_cfa_offset 0
 1954              		@ sp needed
 1955 0058 7047     		bx	lr
 1956              	.LVL202:
 1957              	.L177:
 1958              	.LCFI30:
 1959              		.cfi_restore_state
 507:Src/draw.c    ****   return ((x <= -perc || x >= perc) && (y >= -perc || y <= perc));
 1960              		.loc 1 507 37 view .LVU489
 1961 005a 0120     		movs	r0, #1
 1962              	.LVL203:
 507:Src/draw.c    ****   return ((x <= -perc || x >= perc) && (y >= -perc || y <= perc));
 1963              		.loc 1 507 37 view .LVU490
 1964 005c FBE7     		b	.L173
 1965              		.cfi_endproc
 1966              	.LFE15:
 1968              		.section	.text.drawLine,"ax",%progbits
 1969              		.align	1
 1970              		.global	drawLine
 1971              		.syntax unified
 1972              		.thumb
 1973              		.thumb_func
 1974              		.fpu fpv4-sp-d16
ARM GAS  /var/folders/hv/f19l0kw128sbpybv1h43gz3c0000gn/T//ccU1gGxV.s 			page 48


 1976              	drawLine:
 1977              	.LVL204:
 1978              	.LFB16:
 509:Src/draw.c    **** 
 510:Src/draw.c    **** void drawLine(uint8_t px, uint8_t py, uint8_t *color)
 511:Src/draw.c    **** {
 1979              		.loc 1 511 1 is_stmt 1 view -0
 1980              		.cfi_startproc
 1981              		@ args = 0, pretend = 0, frame = 0
 1982              		@ frame_needed = 0, uses_anonymous_args = 0
 1983              		.loc 1 511 1 is_stmt 0 view .LVU492
 1984 0000 2DE9F041 		push	{r4, r5, r6, r7, r8, lr}
 1985              	.LCFI31:
 1986              		.cfi_def_cfa_offset 24
 1987              		.cfi_offset 4, -24
 1988              		.cfi_offset 5, -20
 1989              		.cfi_offset 6, -16
 1990              		.cfi_offset 7, -12
 1991              		.cfi_offset 8, -8
 1992              		.cfi_offset 14, -4
 1993 0004 0646     		mov	r6, r0
 1994 0006 0F46     		mov	r7, r1
 1995 0008 9046     		mov	r8, r2
 512:Src/draw.c    ****   for (int y = 0; y <= NCOLS; y++)
 1996              		.loc 1 512 3 is_stmt 1 view .LVU493
 1997              	.LBB61:
 1998              		.loc 1 512 8 view .LVU494
 1999              	.LVL205:
 2000              		.loc 1 512 12 is_stmt 0 view .LVU495
 2001 000a 0025     		movs	r5, #0
 2002              		.loc 1 512 3 view .LVU496
 2003 000c 11E0     		b	.L181
 2004              	.LVL206:
 2005              	.L182:
 2006              	.LBB62:
 513:Src/draw.c    ****   {
 514:Src/draw.c    ****     for (int x = 0; x <= NCOLS; x++)
 515:Src/draw.c    ****     {
 516:Src/draw.c    ****       if (x == px || y == py)
 517:Src/draw.c    ****       {
 518:Src/draw.c    ****         setColor(backLayer[x + (y * NCOLS)], color);
 2007              		.loc 1 518 9 is_stmt 1 view .LVU497
 2008              		.loc 1 518 30 is_stmt 0 view .LVU498
 2009 000e 04EB0510 		add	r0, r4, r5, lsl #4
 2010              		.loc 1 518 27 view .LVU499
 2011 0012 00EB4000 		add	r0, r0, r0, lsl #1
 2012              		.loc 1 518 9 view .LVU500
 2013 0016 4146     		mov	r1, r8
 2014 0018 094B     		ldr	r3, .L190
 2015 001a 1844     		add	r0, r0, r3
 2016 001c FFF7FEFF 		bl	setColor
 2017              	.LVL207:
 2018              	.L183:
 514:Src/draw.c    ****     {
 2019              		.loc 1 514 34 discriminator 2 view .LVU501
 2020 0020 0134     		adds	r4, r4, #1
 2021              	.LVL208:
ARM GAS  /var/folders/hv/f19l0kw128sbpybv1h43gz3c0000gn/T//ccU1gGxV.s 			page 49


 2022              	.L185:
 514:Src/draw.c    ****     {
 2023              		.loc 1 514 5 discriminator 1 view .LVU502
 2024 0022 102C     		cmp	r4, #16
 2025 0024 04DC     		bgt	.L188
 516:Src/draw.c    ****       {
 2026              		.loc 1 516 7 is_stmt 1 view .LVU503
 516:Src/draw.c    ****       {
 2027              		.loc 1 516 10 is_stmt 0 view .LVU504
 2028 0026 A642     		cmp	r6, r4
 2029 0028 F1D0     		beq	.L182
 516:Src/draw.c    ****       {
 2030              		.loc 1 516 19 discriminator 1 view .LVU505
 2031 002a AF42     		cmp	r7, r5
 2032 002c F8D1     		bne	.L183
 516:Src/draw.c    ****       {
 2033              		.loc 1 516 19 discriminator 1 view .LVU506
 2034 002e EEE7     		b	.L182
 2035              	.L188:
 516:Src/draw.c    ****       {
 2036              		.loc 1 516 19 discriminator 1 view .LVU507
 2037              	.LBE62:
 512:Src/draw.c    ****   {
 2038              		.loc 1 512 32 discriminator 2 view .LVU508
 2039 0030 0135     		adds	r5, r5, #1
 2040              	.LVL209:
 2041              	.L181:
 512:Src/draw.c    ****   {
 2042              		.loc 1 512 3 discriminator 1 view .LVU509
 2043 0032 102D     		cmp	r5, #16
 2044 0034 01DC     		bgt	.L189
 2045              	.LBB63:
 514:Src/draw.c    ****     {
 2046              		.loc 1 514 14 view .LVU510
 2047 0036 0024     		movs	r4, #0
 2048 0038 F3E7     		b	.L185
 2049              	.L189:
 2050              	.LBE63:
 2051              	.LBE61:
 519:Src/draw.c    ****       }
 520:Src/draw.c    ****     }
 521:Src/draw.c    ****   }
 522:Src/draw.c    **** }
 2052              		.loc 1 522 1 view .LVU511
 2053 003a BDE8F081 		pop	{r4, r5, r6, r7, r8, pc}
 2054              	.LVL210:
 2055              	.L191:
 2056              		.loc 1 522 1 view .LVU512
 2057 003e 00BF     		.align	2
 2058              	.L190:
 2059 0040 00000000 		.word	backLayer
 2060              		.cfi_endproc
 2061              	.LFE16:
 2063              		.section	.text.drawPixel,"ax",%progbits
 2064              		.align	1
 2065              		.global	drawPixel
 2066              		.syntax unified
ARM GAS  /var/folders/hv/f19l0kw128sbpybv1h43gz3c0000gn/T//ccU1gGxV.s 			page 50


 2067              		.thumb
 2068              		.thumb_func
 2069              		.fpu fpv4-sp-d16
 2071              	drawPixel:
 2072              	.LVL211:
 2073              	.LFB17:
 523:Src/draw.c    **** 
 524:Src/draw.c    **** void drawPixel(uint8_t px, uint8_t py, uint8_t *color)
 525:Src/draw.c    **** {
 2074              		.loc 1 525 1 is_stmt 1 view -0
 2075              		.cfi_startproc
 2076              		@ args = 0, pretend = 0, frame = 0
 2077              		@ frame_needed = 0, uses_anonymous_args = 0
 2078              		.loc 1 525 1 is_stmt 0 view .LVU514
 2079 0000 2DE9F041 		push	{r4, r5, r6, r7, r8, lr}
 2080              	.LCFI32:
 2081              		.cfi_def_cfa_offset 24
 2082              		.cfi_offset 4, -24
 2083              		.cfi_offset 5, -20
 2084              		.cfi_offset 6, -16
 2085              		.cfi_offset 7, -12
 2086              		.cfi_offset 8, -8
 2087              		.cfi_offset 14, -4
 2088 0004 0546     		mov	r5, r0
 2089 0006 0F46     		mov	r7, r1
 2090 0008 9046     		mov	r8, r2
 526:Src/draw.c    ****   for (int y = 0; y <= NCOLS; y++)
 2091              		.loc 1 526 3 is_stmt 1 view .LVU515
 2092              	.LBB64:
 2093              		.loc 1 526 8 view .LVU516
 2094              	.LVL212:
 2095              		.loc 1 526 12 is_stmt 0 view .LVU517
 2096 000a 0026     		movs	r6, #0
 2097              		.loc 1 526 3 view .LVU518
 2098 000c 11E0     		b	.L193
 2099              	.LVL213:
 2100              	.L194:
 2101              	.LBB65:
 527:Src/draw.c    ****   {
 528:Src/draw.c    ****     for (int x = 0; x <= NCOLS; x++)
 2102              		.loc 1 528 34 discriminator 2 view .LVU519
 2103 000e 0134     		adds	r4, r4, #1
 2104              	.LVL214:
 2105              	.L196:
 2106              		.loc 1 528 5 discriminator 1 view .LVU520
 2107 0010 102C     		cmp	r4, #16
 2108 0012 0DDC     		bgt	.L199
 529:Src/draw.c    ****     {
 530:Src/draw.c    ****       if (x == px && y == py)
 2109              		.loc 1 530 7 is_stmt 1 view .LVU521
 2110              		.loc 1 530 10 is_stmt 0 view .LVU522
 2111 0014 A542     		cmp	r5, r4
 2112 0016 FAD1     		bne	.L194
 2113              		.loc 1 530 19 discriminator 1 view .LVU523
 2114 0018 B742     		cmp	r7, r6
 2115 001a F8D1     		bne	.L194
 531:Src/draw.c    ****       {
ARM GAS  /var/folders/hv/f19l0kw128sbpybv1h43gz3c0000gn/T//ccU1gGxV.s 			page 51


 532:Src/draw.c    ****         setColor(backLayer[x + (y * NCOLS)], color);
 2116              		.loc 1 532 9 is_stmt 1 view .LVU524
 2117              		.loc 1 532 30 is_stmt 0 view .LVU525
 2118 001c 04EB0610 		add	r0, r4, r6, lsl #4
 2119              		.loc 1 532 27 view .LVU526
 2120 0020 00EB4000 		add	r0, r0, r0, lsl #1
 2121              		.loc 1 532 9 view .LVU527
 2122 0024 4146     		mov	r1, r8
 2123 0026 064B     		ldr	r3, .L201
 2124 0028 1844     		add	r0, r0, r3
 2125 002a FFF7FEFF 		bl	setColor
 2126              	.LVL215:
 2127 002e EEE7     		b	.L194
 2128              	.L199:
 2129              		.loc 1 532 9 view .LVU528
 2130              	.LBE65:
 526:Src/draw.c    ****   {
 2131              		.loc 1 526 32 discriminator 2 view .LVU529
 2132 0030 0136     		adds	r6, r6, #1
 2133              	.LVL216:
 2134              	.L193:
 526:Src/draw.c    ****   {
 2135              		.loc 1 526 3 discriminator 1 view .LVU530
 2136 0032 102E     		cmp	r6, #16
 2137 0034 01DC     		bgt	.L200
 2138              	.LBB66:
 528:Src/draw.c    ****     {
 2139              		.loc 1 528 14 view .LVU531
 2140 0036 0024     		movs	r4, #0
 2141 0038 EAE7     		b	.L196
 2142              	.L200:
 2143              	.LBE66:
 2144              	.LBE64:
 533:Src/draw.c    ****       }
 534:Src/draw.c    ****     }
 535:Src/draw.c    ****   }
 536:Src/draw.c    **** }
 2145              		.loc 1 536 1 view .LVU532
 2146 003a BDE8F081 		pop	{r4, r5, r6, r7, r8, pc}
 2147              	.LVL217:
 2148              	.L202:
 2149              		.loc 1 536 1 view .LVU533
 2150 003e 00BF     		.align	2
 2151              	.L201:
 2152 0040 00000000 		.word	backLayer
 2153              		.cfi_endproc
 2154              	.LFE17:
 2156              		.section	.text.drawColor,"ax",%progbits
 2157              		.align	1
 2158              		.global	drawColor
 2159              		.syntax unified
 2160              		.thumb
 2161              		.thumb_func
 2162              		.fpu fpv4-sp-d16
 2164              	drawColor:
 2165              	.LVL218:
 2166              	.LFB18:
ARM GAS  /var/folders/hv/f19l0kw128sbpybv1h43gz3c0000gn/T//ccU1gGxV.s 			page 52


 537:Src/draw.c    **** 
 538:Src/draw.c    **** void drawColor(uint8_t *color)
 539:Src/draw.c    **** {
 2167              		.loc 1 539 1 is_stmt 1 view -0
 2168              		.cfi_startproc
 2169              		@ args = 0, pretend = 0, frame = 0
 2170              		@ frame_needed = 0, uses_anonymous_args = 0
 2171              		.loc 1 539 1 is_stmt 0 view .LVU535
 2172 0000 70B5     		push	{r4, r5, r6, lr}
 2173              	.LCFI33:
 2174              		.cfi_def_cfa_offset 16
 2175              		.cfi_offset 4, -16
 2176              		.cfi_offset 5, -12
 2177              		.cfi_offset 6, -8
 2178              		.cfi_offset 14, -4
 2179 0002 0646     		mov	r6, r0
 540:Src/draw.c    ****   for (int y = 0; y <= NCOLS; y++)
 2180              		.loc 1 540 3 is_stmt 1 view .LVU536
 2181              	.LBB67:
 2182              		.loc 1 540 8 view .LVU537
 2183              	.LVL219:
 2184              		.loc 1 540 12 is_stmt 0 view .LVU538
 2185 0004 0025     		movs	r5, #0
 2186              		.loc 1 540 3 view .LVU539
 2187 0006 0CE0     		b	.L204
 2188              	.LVL220:
 2189              	.L205:
 2190              	.LBB68:
 541:Src/draw.c    ****   {
 542:Src/draw.c    ****     for (int x = 0; x <= NCOLS; x++)
 543:Src/draw.c    ****     {
 544:Src/draw.c    ****       setColor(backLayer[x + (y * NCOLS)], color);
 2191              		.loc 1 544 7 is_stmt 1 discriminator 3 view .LVU540
 2192              		.loc 1 544 28 is_stmt 0 discriminator 3 view .LVU541
 2193 0008 04EB0510 		add	r0, r4, r5, lsl #4
 2194              		.loc 1 544 25 discriminator 3 view .LVU542
 2195 000c 00EB4000 		add	r0, r0, r0, lsl #1
 2196              		.loc 1 544 7 discriminator 3 view .LVU543
 2197 0010 3146     		mov	r1, r6
 2198 0012 064B     		ldr	r3, .L210
 2199 0014 1844     		add	r0, r0, r3
 2200 0016 FFF7FEFF 		bl	setColor
 2201              	.LVL221:
 542:Src/draw.c    ****     {
 2202              		.loc 1 542 34 discriminator 3 view .LVU544
 2203 001a 0134     		adds	r4, r4, #1
 2204              	.LVL222:
 2205              	.L206:
 542:Src/draw.c    ****     {
 2206              		.loc 1 542 5 discriminator 1 view .LVU545
 2207 001c 102C     		cmp	r4, #16
 2208 001e F3DD     		ble	.L205
 2209              	.LBE68:
 540:Src/draw.c    ****   for (int y = 0; y <= NCOLS; y++)
 2210              		.loc 1 540 32 discriminator 2 view .LVU546
 2211 0020 0135     		adds	r5, r5, #1
 2212              	.LVL223:
ARM GAS  /var/folders/hv/f19l0kw128sbpybv1h43gz3c0000gn/T//ccU1gGxV.s 			page 53


 2213              	.L204:
 540:Src/draw.c    ****   for (int y = 0; y <= NCOLS; y++)
 2214              		.loc 1 540 3 discriminator 1 view .LVU547
 2215 0022 102D     		cmp	r5, #16
 2216 0024 01DC     		bgt	.L209
 2217              	.LBB69:
 542:Src/draw.c    ****     {
 2218              		.loc 1 542 14 view .LVU548
 2219 0026 0024     		movs	r4, #0
 2220 0028 F8E7     		b	.L206
 2221              	.L209:
 2222              	.LBE69:
 2223              	.LBE67:
 545:Src/draw.c    ****     }
 546:Src/draw.c    ****   }
 547:Src/draw.c    **** }
 2224              		.loc 1 547 1 view .LVU549
 2225 002a 70BD     		pop	{r4, r5, r6, pc}
 2226              	.LVL224:
 2227              	.L211:
 2228              		.loc 1 547 1 view .LVU550
 2229              		.align	2
 2230              	.L210:
 2231 002c 00000000 		.word	backLayer
 2232              		.cfi_endproc
 2233              	.LFE18:
 2235              		.section	.text.getFontLine,"ax",%progbits
 2236              		.align	1
 2237              		.global	getFontLine
 2238              		.syntax unified
 2239              		.thumb
 2240              		.thumb_func
 2241              		.fpu fpv4-sp-d16
 2243              	getFontLine:
 2244              	.LVL225:
 2245              	.LFB21:
 548:Src/draw.c    **** 
 549:Src/draw.c    **** void checkSequence(void)
 550:Src/draw.c    **** {
 551:Src/draw.c    ****   uint8_t arrayLen = ARRAY_LEN(noteSequence);
 552:Src/draw.c    ****   uint8_t cnt = 0;
 553:Src/draw.c    ****   // uint8_t blue[3] = {1, 1, 20};
 554:Src/draw.c    ****   for (uint8_t j = 0; j < arrayLen; j++)
 555:Src/draw.c    ****   {
 556:Src/draw.c    ****     uint8_t len = ARRAY_LEN(noteSequence[j].note);
 557:Src/draw.c    ****     for (uint8_t i = 0; i < len; i++)
 558:Src/draw.c    ****     {
 559:Src/draw.c    ****       if (noteBuffer[i].note.symbol == noteSequence[j].note[len - 1 - i].symbol)
 560:Src/draw.c    ****       {
 561:Src/draw.c    ****         cnt++;
 562:Src/draw.c    ****         if (cnt == len)
 563:Src/draw.c    ****         {
 564:Src/draw.c    ****           clearText();
 565:Src/draw.c    ****           // drawString(noteSequence[j].word, 1, 24, 1, 0);
 566:Src/draw.c    ****           drawCenter(noteSequence[j].word, 1, 0);
 567:Src/draw.c    ****         }
 568:Src/draw.c    ****       }
ARM GAS  /var/folders/hv/f19l0kw128sbpybv1h43gz3c0000gn/T//ccU1gGxV.s 			page 54


 569:Src/draw.c    ****       else
 570:Src/draw.c    ****         break;
 571:Src/draw.c    ****     }
 572:Src/draw.c    ****   }
 573:Src/draw.c    **** }
 574:Src/draw.c    **** 
 575:Src/draw.c    **** void drawNote(void)
 576:Src/draw.c    **** {
 577:Src/draw.c    ****   // uint8_t red[3] = {20, 1, 1};
 578:Src/draw.c    ****   // uint8_t green[3] = {1, 20, 1};
 579:Src/draw.c    ****   // drawStringArray(1, 1, 1, 1);
 580:Src/draw.c    **** 
 581:Src/draw.c    ****   checkSequence();
 582:Src/draw.c    **** 
 583:Src/draw.c    ****   // drawString(noteBuffer[0], 1, 1, 1, 0);
 584:Src/draw.c    ****   // setTextColor(noteBuffer[0].color);
 585:Src/draw.c    ****   // drawColor(noteBuffer[0].color);
 586:Src/draw.c    ****   // drawLetter(note.symbol, 1, 10);
 587:Src/draw.c    **** }
 588:Src/draw.c    **** 
 589:Src/draw.c    **** /* Draw Strings */
 590:Src/draw.c    **** 
 591:Src/draw.c    **** unsigned char getFontLine(unsigned char data, int line_num)
 592:Src/draw.c    **** {
 2246              		.loc 1 592 1 is_stmt 1 view -0
 2247              		.cfi_startproc
 2248              		@ args = 0, pretend = 0, frame = 0
 2249              		@ frame_needed = 0, uses_anonymous_args = 0
 2250              		@ link register save eliminated.
 593:Src/draw.c    ****   const uint8_t index = (data - 32);
 2251              		.loc 1 593 3 view .LVU552
 2252              		.loc 1 593 17 is_stmt 0 view .LVU553
 2253 0000 2038     		subs	r0, r0, #32
 2254              	.LVL226:
 2255              		.loc 1 593 17 view .LVU554
 2256 0002 C0B2     		uxtb	r0, r0
 594:Src/draw.c    ****   unsigned char pixel = 0;
 2257              		.loc 1 594 3 is_stmt 1 view .LVU555
 2258              	.LVL227:
 595:Src/draw.c    ****   if ((font4x6[index][1] & 1) == 1)
 2259              		.loc 1 595 3 view .LVU556
 2260              		.loc 1 595 22 is_stmt 0 view .LVU557
 2261 0004 164B     		ldr	r3, .L225
 2262 0006 03EB4003 		add	r3, r3, r0, lsl #1
 2263 000a 5B78     		ldrb	r3, [r3, #1]	@ zero_extendqisi2
 2264              		.loc 1 595 6 view .LVU558
 2265 000c 13F0010F 		tst	r3, #1
 2266 0010 00D0     		beq	.L213
 596:Src/draw.c    ****     line_num -= 1;
 2267              		.loc 1 596 5 is_stmt 1 view .LVU559
 2268              		.loc 1 596 14 is_stmt 0 view .LVU560
 2269 0012 0139     		subs	r1, r1, #1
 2270              	.LVL228:
 2271              	.L213:
 597:Src/draw.c    ****   if (line_num == 0)
 2272              		.loc 1 597 3 is_stmt 1 view .LVU561
 2273              		.loc 1 597 6 is_stmt 0 view .LVU562
ARM GAS  /var/folders/hv/f19l0kw128sbpybv1h43gz3c0000gn/T//ccU1gGxV.s 			page 55


 2274 0014 31B9     		cbnz	r1, .L214
 598:Src/draw.c    ****   {
 599:Src/draw.c    ****     pixel = (font4x6[index][0]) >> 4;
 2275              		.loc 1 599 5 is_stmt 1 view .LVU563
 2276              		.loc 1 599 28 is_stmt 0 view .LVU564
 2277 0016 124B     		ldr	r3, .L225
 2278 0018 13F81000 		ldrb	r0, [r3, r0, lsl #1]	@ zero_extendqisi2
 2279              		.loc 1 599 11 view .LVU565
 2280 001c 0009     		lsrs	r0, r0, #4
 2281              	.LVL229:
 2282              	.L215:
 600:Src/draw.c    ****   }
 601:Src/draw.c    ****   else if (line_num == 1)
 602:Src/draw.c    ****   {
 603:Src/draw.c    ****     pixel = (font4x6[index][0]) >> 1;
 604:Src/draw.c    ****   }
 605:Src/draw.c    ****   else if (line_num == 2)
 606:Src/draw.c    ****   {
 607:Src/draw.c    ****     // Split over 2 bytes
 608:Src/draw.c    ****     return (((font4x6[index][0]) & 0x03) << 2) | (((font4x6[index][1]) & 0x02));
 609:Src/draw.c    ****   }
 610:Src/draw.c    ****   else if (line_num == 3)
 611:Src/draw.c    ****   {
 612:Src/draw.c    ****     pixel = (font4x6[index][1]) >> 4;
 613:Src/draw.c    ****   }
 614:Src/draw.c    ****   else if (line_num == 4)
 615:Src/draw.c    ****   {
 616:Src/draw.c    ****     pixel = (font4x6[index][1]) >> 1;
 617:Src/draw.c    ****   }
 618:Src/draw.c    ****   return pixel & 0xE;
 2283              		.loc 1 618 3 is_stmt 1 view .LVU566
 2284              		.loc 1 618 16 is_stmt 0 view .LVU567
 2285 001e 00F00E00 		and	r0, r0, #14
 2286              	.LVL230:
 619:Src/draw.c    **** }
 2287              		.loc 1 619 1 view .LVU568
 2288 0022 7047     		bx	lr
 2289              	.LVL231:
 2290              	.L214:
 601:Src/draw.c    ****   {
 2291              		.loc 1 601 8 is_stmt 1 view .LVU569
 601:Src/draw.c    ****   {
 2292              		.loc 1 601 11 is_stmt 0 view .LVU570
 2293 0024 0129     		cmp	r1, #1
 2294 0026 07D0     		beq	.L221
 605:Src/draw.c    ****   {
 2295              		.loc 1 605 8 is_stmt 1 view .LVU571
 605:Src/draw.c    ****   {
 2296              		.loc 1 605 11 is_stmt 0 view .LVU572
 2297 0028 0229     		cmp	r1, #2
 2298 002a 0AD0     		beq	.L222
 610:Src/draw.c    ****   {
 2299              		.loc 1 610 8 is_stmt 1 view .LVU573
 610:Src/draw.c    ****   {
 2300              		.loc 1 610 11 is_stmt 0 view .LVU574
 2301 002c 0329     		cmp	r1, #3
 2302 002e 12D0     		beq	.L223
ARM GAS  /var/folders/hv/f19l0kw128sbpybv1h43gz3c0000gn/T//ccU1gGxV.s 			page 56


 614:Src/draw.c    ****   {
 2303              		.loc 1 614 8 is_stmt 1 view .LVU575
 614:Src/draw.c    ****   {
 2304              		.loc 1 614 11 is_stmt 0 view .LVU576
 2305 0030 0429     		cmp	r1, #4
 2306 0032 12D0     		beq	.L224
 594:Src/draw.c    ****   if ((font4x6[index][1] & 1) == 1)
 2307              		.loc 1 594 17 view .LVU577
 2308 0034 0020     		movs	r0, #0
 2309 0036 F2E7     		b	.L215
 2310              	.L221:
 603:Src/draw.c    ****   }
 2311              		.loc 1 603 5 is_stmt 1 view .LVU578
 603:Src/draw.c    ****   }
 2312              		.loc 1 603 28 is_stmt 0 view .LVU579
 2313 0038 094B     		ldr	r3, .L225
 2314 003a 13F81000 		ldrb	r0, [r3, r0, lsl #1]	@ zero_extendqisi2
 603:Src/draw.c    ****   }
 2315              		.loc 1 603 11 view .LVU580
 2316 003e 4008     		lsrs	r0, r0, #1
 2317              	.LVL232:
 603:Src/draw.c    ****   }
 2318              		.loc 1 603 11 view .LVU581
 2319 0040 EDE7     		b	.L215
 2320              	.LVL233:
 2321              	.L222:
 608:Src/draw.c    ****   }
 2322              		.loc 1 608 5 is_stmt 1 view .LVU582
 608:Src/draw.c    ****   }
 2323              		.loc 1 608 29 is_stmt 0 view .LVU583
 2324 0042 074A     		ldr	r2, .L225
 2325 0044 12F81000 		ldrb	r0, [r2, r0, lsl #1]	@ zero_extendqisi2
 608:Src/draw.c    ****   }
 2326              		.loc 1 608 42 view .LVU584
 2327 0048 8000     		lsls	r0, r0, #2
 2328 004a 00F00C00 		and	r0, r0, #12
 608:Src/draw.c    ****   }
 2329              		.loc 1 608 72 view .LVU585
 2330 004e 03F00203 		and	r3, r3, #2
 608:Src/draw.c    ****   }
 2331              		.loc 1 608 48 view .LVU586
 2332 0052 1843     		orrs	r0, r0, r3
 2333 0054 7047     		bx	lr
 2334              	.L223:
 612:Src/draw.c    ****   }
 2335              		.loc 1 612 5 is_stmt 1 view .LVU587
 612:Src/draw.c    ****   }
 2336              		.loc 1 612 11 is_stmt 0 view .LVU588
 2337 0056 1809     		lsrs	r0, r3, #4
 2338              	.LVL234:
 612:Src/draw.c    ****   }
 2339              		.loc 1 612 11 view .LVU589
 2340 0058 E1E7     		b	.L215
 2341              	.LVL235:
 2342              	.L224:
 616:Src/draw.c    ****   }
 2343              		.loc 1 616 5 is_stmt 1 view .LVU590
ARM GAS  /var/folders/hv/f19l0kw128sbpybv1h43gz3c0000gn/T//ccU1gGxV.s 			page 57


 616:Src/draw.c    ****   }
 2344              		.loc 1 616 11 is_stmt 0 view .LVU591
 2345 005a 5808     		lsrs	r0, r3, #1
 2346              	.LVL236:
 616:Src/draw.c    ****   }
 2347              		.loc 1 616 11 view .LVU592
 2348 005c DFE7     		b	.L215
 2349              	.L226:
 2350 005e 00BF     		.align	2
 2351              	.L225:
 2352 0060 00000000 		.word	.LANCHOR5
 2353              		.cfi_endproc
 2354              	.LFE21:
 2356              		.section	.text.drawLetter,"ax",%progbits
 2357              		.align	1
 2358              		.global	drawLetter
 2359              		.syntax unified
 2360              		.thumb
 2361              		.thumb_func
 2362              		.fpu fpv4-sp-d16
 2364              	drawLetter:
 2365              	.LVL237:
 2366              	.LFB22:
 620:Src/draw.c    **** 
 621:Src/draw.c    **** void drawLetter(char letter, uint8_t px, uint8_t py)
 622:Src/draw.c    **** {
 2367              		.loc 1 622 1 is_stmt 1 view -0
 2368              		.cfi_startproc
 2369              		@ args = 0, pretend = 0, frame = 8
 2370              		@ frame_needed = 0, uses_anonymous_args = 0
 2371              		.loc 1 622 1 is_stmt 0 view .LVU594
 2372 0000 2DE9F04F 		push	{r4, r5, r6, r7, r8, r9, r10, fp, lr}
 2373              	.LCFI34:
 2374              		.cfi_def_cfa_offset 36
 2375              		.cfi_offset 4, -36
 2376              		.cfi_offset 5, -32
 2377              		.cfi_offset 6, -28
 2378              		.cfi_offset 7, -24
 2379              		.cfi_offset 8, -20
 2380              		.cfi_offset 9, -16
 2381              		.cfi_offset 10, -12
 2382              		.cfi_offset 11, -8
 2383              		.cfi_offset 14, -4
 2384 0004 83B0     		sub	sp, sp, #12
 2385              	.LCFI35:
 2386              		.cfi_def_cfa_offset 48
 2387 0006 0190     		str	r0, [sp, #4]
 2388 0008 0F46     		mov	r7, r1
 2389 000a 9346     		mov	fp, r2
 623:Src/draw.c    ****   uint8_t fill;
 2390              		.loc 1 623 3 is_stmt 1 view .LVU595
 624:Src/draw.c    ****   for (uint8_t y = py, l = -1; y <= (py + 6); y++, l++)
 2391              		.loc 1 624 3 view .LVU596
 2392              	.LBB70:
 2393              		.loc 1 624 8 view .LVU597
 2394              	.LVL238:
 2395              		.loc 1 624 16 is_stmt 0 view .LVU598
ARM GAS  /var/folders/hv/f19l0kw128sbpybv1h43gz3c0000gn/T//ccU1gGxV.s 			page 58


 2396 000c 9046     		mov	r8, r2
 2397              		.loc 1 624 24 view .LVU599
 2398 000e 4FF0FF0A 		mov	r10, #255
 2399              		.loc 1 624 3 view .LVU600
 2400 0012 2CE0     		b	.L228
 2401              	.LVL239:
 2402              	.L237:
 2403              	.LBB71:
 625:Src/draw.c    ****   {
 626:Src/draw.c    ****     if (y > NCOLSL)
 627:Src/draw.c    ****       break;
 628:Src/draw.c    ****     fill = getFontLine(letter, l);
 629:Src/draw.c    ****     for (uint8_t x = px, aX = 3; x <= (px + 3); x++, aX--)
 630:Src/draw.c    ****     {
 631:Src/draw.c    ****       if (fill & (1u << aX))
 632:Src/draw.c    ****       {
 633:Src/draw.c    **** #if COLOR_1BIT
 634:Src/draw.c    ****         BIT_SET(textLayer[DIV_8(x + (y * NCOLS))], REST_8(x + (y * NCOLS)));
 635:Src/draw.c    **** #else
 636:Src/draw.c    ****         setColor(textLayer[x + (y * NCOLS)], textColor);
 2404              		.loc 1 636 9 is_stmt 1 view .LVU601
 2405              		.loc 1 636 30 is_stmt 0 view .LVU602
 2406 0014 00EB0910 		add	r0, r0, r9, lsl #4
 2407              		.loc 1 636 27 view .LVU603
 2408 0018 00EB4000 		add	r0, r0, r0, lsl #1
 2409              		.loc 1 636 9 view .LVU604
 2410 001c 1D49     		ldr	r1, .L238
 2411 001e 1E4B     		ldr	r3, .L238+4
 2412 0020 1844     		add	r0, r0, r3
 2413 0022 FFF7FEFF 		bl	setColor
 2414              	.LVL240:
 2415              	.L232:
 629:Src/draw.c    ****     {
 2416              		.loc 1 629 50 discriminator 2 view .LVU605
 2417 0026 0134     		adds	r4, r4, #1
 2418              	.LVL241:
 629:Src/draw.c    ****     {
 2419              		.loc 1 629 50 discriminator 2 view .LVU606
 2420 0028 E4B2     		uxtb	r4, r4
 2421              	.LVL242:
 629:Src/draw.c    ****     {
 2422              		.loc 1 629 56 discriminator 2 view .LVU607
 2423 002a 013D     		subs	r5, r5, #1
 2424              	.LVL243:
 629:Src/draw.c    ****     {
 2425              		.loc 1 629 56 discriminator 2 view .LVU608
 2426 002c EDB2     		uxtb	r5, r5
 2427              	.LVL244:
 2428              	.L230:
 629:Src/draw.c    ****     {
 2429              		.loc 1 629 36 discriminator 1 view .LVU609
 2430 002e 2046     		mov	r0, r4
 629:Src/draw.c    ****     {
 2431              		.loc 1 629 43 discriminator 1 view .LVU610
 2432 0030 FB1C     		adds	r3, r7, #3
 629:Src/draw.c    ****     {
 2433              		.loc 1 629 5 discriminator 1 view .LVU611
ARM GAS  /var/folders/hv/f19l0kw128sbpybv1h43gz3c0000gn/T//ccU1gGxV.s 			page 59


 2434 0032 9C42     		cmp	r4, r3
 2435 0034 13DC     		bgt	.L236
 631:Src/draw.c    ****       {
 2436              		.loc 1 631 7 is_stmt 1 view .LVU612
 631:Src/draw.c    ****       {
 2437              		.loc 1 631 11 is_stmt 0 view .LVU613
 2438 0036 26FA05F3 		lsr	r3, r6, r5
 631:Src/draw.c    ****       {
 2439              		.loc 1 631 10 view .LVU614
 2440 003a 13F0010F 		tst	r3, #1
 2441 003e E9D1     		bne	.L237
 637:Src/draw.c    **** #endif
 638:Src/draw.c    ****       }
 639:Src/draw.c    ****       else if (~fill & (1u << aX))
 2442              		.loc 1 639 12 is_stmt 1 view .LVU615
 2443              		.loc 1 639 16 is_stmt 0 view .LVU616
 2444 0040 F343     		mvns	r3, r6
 2445 0042 EB40     		lsrs	r3, r3, r5
 2446              		.loc 1 639 15 view .LVU617
 2447 0044 13F0010F 		tst	r3, #1
 2448 0048 EDD0     		beq	.L232
 640:Src/draw.c    ****       {
 641:Src/draw.c    ****         setColor(textLayer[x + (y * NCOLS)], maxColor);
 2449              		.loc 1 641 9 is_stmt 1 view .LVU618
 2450              		.loc 1 641 30 is_stmt 0 view .LVU619
 2451 004a 00EB0910 		add	r0, r0, r9, lsl #4
 2452              		.loc 1 641 27 view .LVU620
 2453 004e 00EB4000 		add	r0, r0, r0, lsl #1
 2454              		.loc 1 641 9 view .LVU621
 2455 0052 1249     		ldr	r1, .L238+8
 2456 0054 104B     		ldr	r3, .L238+4
 2457 0056 1844     		add	r0, r0, r3
 2458 0058 FFF7FEFF 		bl	setColor
 2459              	.LVL245:
 2460 005c E3E7     		b	.L232
 2461              	.L236:
 2462              	.LBE71:
 624:Src/draw.c    ****   {
 2463              		.loc 1 624 48 discriminator 2 view .LVU622
 2464 005e 08F10108 		add	r8, r8, #1
 2465              	.LVL246:
 624:Src/draw.c    ****   {
 2466              		.loc 1 624 48 discriminator 2 view .LVU623
 2467 0062 5FFA88F8 		uxtb	r8, r8
 2468              	.LVL247:
 624:Src/draw.c    ****   {
 2469              		.loc 1 624 53 discriminator 2 view .LVU624
 2470 0066 0AF1010A 		add	r10, r10, #1
 2471              	.LVL248:
 624:Src/draw.c    ****   {
 2472              		.loc 1 624 53 discriminator 2 view .LVU625
 2473 006a 5FFA8AFA 		uxtb	r10, r10
 2474              	.LVL249:
 2475              	.L228:
 624:Src/draw.c    ****   {
 2476              		.loc 1 624 34 discriminator 1 view .LVU626
 2477 006e C146     		mov	r9, r8
ARM GAS  /var/folders/hv/f19l0kw128sbpybv1h43gz3c0000gn/T//ccU1gGxV.s 			page 60


 624:Src/draw.c    ****   {
 2478              		.loc 1 624 41 discriminator 1 view .LVU627
 2479 0070 0BF10603 		add	r3, fp, #6
 624:Src/draw.c    ****   {
 2480              		.loc 1 624 3 discriminator 1 view .LVU628
 2481 0074 9845     		cmp	r8, r3
 2482 0076 0ADC     		bgt	.L227
 626:Src/draw.c    ****       break;
 2483              		.loc 1 626 5 is_stmt 1 view .LVU629
 626:Src/draw.c    ****       break;
 2484              		.loc 1 626 8 is_stmt 0 view .LVU630
 2485 0078 B8F10F0F 		cmp	r8, #15
 2486 007c 07D8     		bhi	.L227
 628:Src/draw.c    ****     for (uint8_t x = px, aX = 3; x <= (px + 3); x++, aX--)
 2487              		.loc 1 628 5 is_stmt 1 view .LVU631
 628:Src/draw.c    ****     for (uint8_t x = px, aX = 3; x <= (px + 3); x++, aX--)
 2488              		.loc 1 628 12 is_stmt 0 view .LVU632
 2489 007e 5146     		mov	r1, r10
 2490 0080 0198     		ldr	r0, [sp, #4]
 2491 0082 FFF7FEFF 		bl	getFontLine
 2492              	.LVL250:
 2493 0086 0646     		mov	r6, r0
 2494              	.LVL251:
 629:Src/draw.c    ****     {
 2495              		.loc 1 629 5 is_stmt 1 view .LVU633
 2496              	.LBB72:
 629:Src/draw.c    ****     {
 2497              		.loc 1 629 10 view .LVU634
 629:Src/draw.c    ****     {
 2498              		.loc 1 629 18 is_stmt 0 view .LVU635
 2499 0088 3C46     		mov	r4, r7
 629:Src/draw.c    ****     {
 2500              		.loc 1 629 26 view .LVU636
 2501 008a 0325     		movs	r5, #3
 629:Src/draw.c    ****     {
 2502              		.loc 1 629 5 view .LVU637
 2503 008c CFE7     		b	.L230
 2504              	.LVL252:
 2505              	.L227:
 629:Src/draw.c    ****     {
 2506              		.loc 1 629 5 view .LVU638
 2507              	.LBE72:
 2508              	.LBE70:
 642:Src/draw.c    ****       }
 643:Src/draw.c    ****     }
 644:Src/draw.c    ****   }
 645:Src/draw.c    **** }
 2509              		.loc 1 645 1 view .LVU639
 2510 008e 03B0     		add	sp, sp, #12
 2511              	.LCFI36:
 2512              		.cfi_def_cfa_offset 36
 2513              		@ sp needed
 2514 0090 BDE8F08F 		pop	{r4, r5, r6, r7, r8, r9, r10, fp, pc}
 2515              	.LVL253:
 2516              	.L239:
 2517              		.loc 1 645 1 view .LVU640
 2518              		.align	2
ARM GAS  /var/folders/hv/f19l0kw128sbpybv1h43gz3c0000gn/T//ccU1gGxV.s 			page 61


 2519              	.L238:
 2520 0094 00000000 		.word	textColor
 2521 0098 00000000 		.word	textLayer
 2522 009c 00000000 		.word	.LANCHOR6
 2523              		.cfi_endproc
 2524              	.LFE22:
 2526              		.section	.text.drawString,"ax",%progbits
 2527              		.align	1
 2528              		.global	drawString
 2529              		.syntax unified
 2530              		.thumb
 2531              		.thumb_func
 2532              		.fpu fpv4-sp-d16
 2534              	drawString:
 2535              	.LVL254:
 2536              	.LFB24:
 646:Src/draw.c    **** 
 647:Src/draw.c    **** void drawCenter(char *frase, uint8_t spacex, uint8_t spacey)
 648:Src/draw.c    **** {
 649:Src/draw.c    ****   uint8_t len = strlen(frase) * (3 + spacex);
 650:Src/draw.c    ****   int8_t px = ((NCOLS - len) / 2);
 651:Src/draw.c    ****   len = (5 + spacey);
 652:Src/draw.c    ****   int8_t py = ((NCOLS - len) / 2);
 653:Src/draw.c    ****   px = px < 0 ? 0 : px;
 654:Src/draw.c    ****   drawString(frase, px, py, spacex, spacey);
 655:Src/draw.c    **** }
 656:Src/draw.c    **** 
 657:Src/draw.c    **** void drawString(char *frase, uint8_t px, uint8_t py, uint8_t spacex, uint8_t spacey)
 658:Src/draw.c    **** {
 2537              		.loc 1 658 1 is_stmt 1 view -0
 2538              		.cfi_startproc
 2539              		@ args = 4, pretend = 0, frame = 0
 2540              		@ frame_needed = 0, uses_anonymous_args = 0
 2541              		.loc 1 658 1 is_stmt 0 view .LVU642
 2542 0000 2DE9F84F 		push	{r3, r4, r5, r6, r7, r8, r9, r10, fp, lr}
 2543              	.LCFI37:
 2544              		.cfi_def_cfa_offset 40
 2545              		.cfi_offset 3, -40
 2546              		.cfi_offset 4, -36
 2547              		.cfi_offset 5, -32
 2548              		.cfi_offset 6, -28
 2549              		.cfi_offset 7, -24
 2550              		.cfi_offset 8, -20
 2551              		.cfi_offset 9, -16
 2552              		.cfi_offset 10, -12
 2553              		.cfi_offset 11, -8
 2554              		.cfi_offset 14, -4
 2555 0004 0746     		mov	r7, r0
 2556 0006 8846     		mov	r8, r1
 2557 0008 9346     		mov	fp, r2
 2558 000a 9A46     		mov	r10, r3
 2559 000c 9DF82890 		ldrb	r9, [sp, #40]	@ zero_extendqisi2
 659:Src/draw.c    ****   uint8_t posX, incX = 0, posY, nLine = 0;
 2560              		.loc 1 659 3 is_stmt 1 view .LVU643
 2561              	.LVL255:
 660:Src/draw.c    ****   for (size_t i = 0; i < strlen(frase); i++)
 2562              		.loc 1 660 3 view .LVU644
ARM GAS  /var/folders/hv/f19l0kw128sbpybv1h43gz3c0000gn/T//ccU1gGxV.s 			page 62


 2563              	.LBB73:
 2564              		.loc 1 660 8 view .LVU645
 2565              		.loc 1 660 15 is_stmt 0 view .LVU646
 2566 0010 0025     		movs	r5, #0
 2567              	.LBE73:
 659:Src/draw.c    ****   uint8_t posX, incX = 0, posY, nLine = 0;
 2568              		.loc 1 659 33 view .LVU647
 2569 0012 2E46     		mov	r6, r5
 659:Src/draw.c    ****   uint8_t posX, incX = 0, posY, nLine = 0;
 2570              		.loc 1 659 17 view .LVU648
 2571 0014 2C46     		mov	r4, r5
 2572              	.LBB74:
 2573              		.loc 1 660 3 view .LVU649
 2574 0016 0CE0     		b	.L241
 2575              	.LVL256:
 2576              	.L242:
 661:Src/draw.c    ****   {
 662:Src/draw.c    ****     // posX = (char)frase[i] == (char)32 ? (i * 3) + px - 1 : (i * (3 + spacex)) + px;
 663:Src/draw.c    ****     posX = incX * (3 + spacex) + px;
 664:Src/draw.c    ****     if (posX + ((3 + spacex)) > NCOLS - 2)
 665:Src/draw.c    ****     {
 666:Src/draw.c    ****       posX = px;
 667:Src/draw.c    ****       nLine++;
 668:Src/draw.c    ****       incX = 0;
 669:Src/draw.c    ****     }
 670:Src/draw.c    ****     posY = nLine * (5 + spacey) + py;
 2577              		.loc 1 670 5 is_stmt 1 discriminator 2 view .LVU650
 2578              		.loc 1 670 33 is_stmt 0 discriminator 2 view .LVU651
 2579 0018 09F10502 		add	r2, r9, #5
 2580 001c 12FB06F2 		smulbb	r2, r2, r6
 2581              		.loc 1 670 10 discriminator 2 view .LVU652
 2582 0020 5BFA82F2 		uxtab	r2, fp, r2
 2583              	.LVL257:
 671:Src/draw.c    ****     drawLetter(frase[i], posX, posY);
 2584              		.loc 1 671 5 is_stmt 1 discriminator 2 view .LVU653
 2585 0024 D2B2     		uxtb	r2, r2
 2586              		.loc 1 671 5 is_stmt 0 discriminator 2 view .LVU654
 2587 0026 785D     		ldrb	r0, [r7, r5]	@ zero_extendqisi2
 2588 0028 FFF7FEFF 		bl	drawLetter
 2589              	.LVL258:
 672:Src/draw.c    ****     // posX = (posI - (nLine * (NCOLS - 3))) + 1;
 673:Src/draw.c    ****     incX++;
 2590              		.loc 1 673 5 is_stmt 1 discriminator 2 view .LVU655
 2591              		.loc 1 673 9 is_stmt 0 discriminator 2 view .LVU656
 2592 002c 0134     		adds	r4, r4, #1
 2593              	.LVL259:
 2594              		.loc 1 673 9 discriminator 2 view .LVU657
 2595 002e E4B2     		uxtb	r4, r4
 2596              	.LVL260:
 660:Src/draw.c    ****   {
 2597              		.loc 1 660 42 discriminator 2 view .LVU658
 2598 0030 0135     		adds	r5, r5, #1
 2599              	.LVL261:
 2600              	.L241:
 660:Src/draw.c    ****   {
 2601              		.loc 1 660 26 discriminator 1 view .LVU659
 2602 0032 3846     		mov	r0, r7
ARM GAS  /var/folders/hv/f19l0kw128sbpybv1h43gz3c0000gn/T//ccU1gGxV.s 			page 63


 2603 0034 FFF7FEFF 		bl	strlen
 2604              	.LVL262:
 660:Src/draw.c    ****   {
 2605              		.loc 1 660 3 discriminator 1 view .LVU660
 2606 0038 A842     		cmp	r0, r5
 2607 003a 0ED9     		bls	.L245
 663:Src/draw.c    ****     if (posX + ((3 + spacex)) > NCOLS - 2)
 2608              		.loc 1 663 5 is_stmt 1 view .LVU661
 663:Src/draw.c    ****     if (posX + ((3 + spacex)) > NCOLS - 2)
 2609              		.loc 1 663 32 is_stmt 0 view .LVU662
 2610 003c 0AF10303 		add	r3, r10, #3
 2611 0040 13FB04F1 		smulbb	r1, r3, r4
 663:Src/draw.c    ****     if (posX + ((3 + spacex)) > NCOLS - 2)
 2612              		.loc 1 663 10 view .LVU663
 2613 0044 58FA81F1 		uxtab	r1, r8, r1
 2614 0048 C9B2     		uxtb	r1, r1
 2615              	.LVL263:
 664:Src/draw.c    ****     {
 2616              		.loc 1 664 5 is_stmt 1 view .LVU664
 664:Src/draw.c    ****     {
 2617              		.loc 1 664 14 is_stmt 0 view .LVU665
 2618 004a 0B44     		add	r3, r3, r1
 664:Src/draw.c    ****     {
 2619              		.loc 1 664 8 view .LVU666
 2620 004c 0E2B     		cmp	r3, #14
 2621 004e E3DD     		ble	.L242
 666:Src/draw.c    ****       nLine++;
 2622              		.loc 1 666 7 is_stmt 1 view .LVU667
 2623              	.LVL264:
 667:Src/draw.c    ****       incX = 0;
 2624              		.loc 1 667 7 view .LVU668
 667:Src/draw.c    ****       incX = 0;
 2625              		.loc 1 667 12 is_stmt 0 view .LVU669
 2626 0050 0136     		adds	r6, r6, #1
 2627              	.LVL265:
 667:Src/draw.c    ****       incX = 0;
 2628              		.loc 1 667 12 view .LVU670
 2629 0052 F6B2     		uxtb	r6, r6
 2630              	.LVL266:
 668:Src/draw.c    ****     }
 2631              		.loc 1 668 7 is_stmt 1 view .LVU671
 666:Src/draw.c    ****       nLine++;
 2632              		.loc 1 666 12 is_stmt 0 view .LVU672
 2633 0054 4146     		mov	r1, r8
 668:Src/draw.c    ****     }
 2634              		.loc 1 668 12 view .LVU673
 2635 0056 0024     		movs	r4, #0
 2636 0058 DEE7     		b	.L242
 2637              	.LVL267:
 2638              	.L245:
 668:Src/draw.c    ****     }
 2639              		.loc 1 668 12 view .LVU674
 2640              	.LBE74:
 674:Src/draw.c    ****   }
 675:Src/draw.c    **** }
 2641              		.loc 1 675 1 view .LVU675
 2642 005a BDE8F88F 		pop	{r3, r4, r5, r6, r7, r8, r9, r10, fp, pc}
ARM GAS  /var/folders/hv/f19l0kw128sbpybv1h43gz3c0000gn/T//ccU1gGxV.s 			page 64


 2643              		.loc 1 675 1 view .LVU676
 2644              		.cfi_endproc
 2645              	.LFE24:
 2647              		.section	.text.drawCenter,"ax",%progbits
 2648              		.align	1
 2649              		.global	drawCenter
 2650              		.syntax unified
 2651              		.thumb
 2652              		.thumb_func
 2653              		.fpu fpv4-sp-d16
 2655              	drawCenter:
 2656              	.LVL268:
 2657              	.LFB23:
 648:Src/draw.c    ****   uint8_t len = strlen(frase) * (3 + spacex);
 2658              		.loc 1 648 1 is_stmt 1 view -0
 2659              		.cfi_startproc
 2660              		@ args = 0, pretend = 0, frame = 0
 2661              		@ frame_needed = 0, uses_anonymous_args = 0
 648:Src/draw.c    ****   uint8_t len = strlen(frase) * (3 + spacex);
 2662              		.loc 1 648 1 is_stmt 0 view .LVU678
 2663 0000 70B5     		push	{r4, r5, r6, lr}
 2664              	.LCFI38:
 2665              		.cfi_def_cfa_offset 16
 2666              		.cfi_offset 4, -16
 2667              		.cfi_offset 5, -12
 2668              		.cfi_offset 6, -8
 2669              		.cfi_offset 14, -4
 2670 0002 82B0     		sub	sp, sp, #8
 2671              	.LCFI39:
 2672              		.cfi_def_cfa_offset 24
 2673 0004 0646     		mov	r6, r0
 2674 0006 0C46     		mov	r4, r1
 2675 0008 1546     		mov	r5, r2
 649:Src/draw.c    ****   int8_t px = ((NCOLS - len) / 2);
 2676              		.loc 1 649 3 is_stmt 1 view .LVU679
 649:Src/draw.c    ****   int8_t px = ((NCOLS - len) / 2);
 2677              		.loc 1 649 17 is_stmt 0 view .LVU680
 2678 000a FFF7FEFF 		bl	strlen
 2679              	.LVL269:
 649:Src/draw.c    ****   int8_t px = ((NCOLS - len) / 2);
 2680              		.loc 1 649 11 view .LVU681
 2681 000e E11C     		adds	r1, r4, #3
 2682 0010 11FB00F1 		smulbb	r1, r1, r0
 2683 0014 C9B2     		uxtb	r1, r1
 2684              	.LVL270:
 650:Src/draw.c    ****   len = (5 + spacey);
 2685              		.loc 1 650 3 is_stmt 1 view .LVU682
 650:Src/draw.c    ****   len = (5 + spacey);
 2686              		.loc 1 650 23 is_stmt 0 view .LVU683
 2687 0016 C1F11001 		rsb	r1, r1, #16
 2688              	.LVL271:
 650:Src/draw.c    ****   len = (5 + spacey);
 2689              		.loc 1 650 30 view .LVU684
 2690 001a 01EBD171 		add	r1, r1, r1, lsr #31
 650:Src/draw.c    ****   len = (5 + spacey);
 2691              		.loc 1 650 10 view .LVU685
 2692 001e 41F34701 		sbfx	r1, r1, #1, #8
ARM GAS  /var/folders/hv/f19l0kw128sbpybv1h43gz3c0000gn/T//ccU1gGxV.s 			page 65


 2693              	.LVL272:
 651:Src/draw.c    ****   int8_t py = ((NCOLS - len) / 2);
 2694              		.loc 1 651 3 is_stmt 1 view .LVU686
 651:Src/draw.c    ****   int8_t py = ((NCOLS - len) / 2);
 2695              		.loc 1 651 7 is_stmt 0 view .LVU687
 2696 0022 6A1D     		adds	r2, r5, #5
 2697 0024 D2B2     		uxtb	r2, r2
 2698              	.LVL273:
 652:Src/draw.c    ****   px = px < 0 ? 0 : px;
 2699              		.loc 1 652 3 is_stmt 1 view .LVU688
 652:Src/draw.c    ****   px = px < 0 ? 0 : px;
 2700              		.loc 1 652 23 is_stmt 0 view .LVU689
 2701 0026 C2F11002 		rsb	r2, r2, #16
 2702              	.LVL274:
 652:Src/draw.c    ****   px = px < 0 ? 0 : px;
 2703              		.loc 1 652 30 view .LVU690
 2704 002a 02EBD272 		add	r2, r2, r2, lsr #31
 2705              	.LVL275:
 653:Src/draw.c    ****   drawString(frase, px, py, spacex, spacey);
 2706              		.loc 1 653 3 is_stmt 1 view .LVU691
 653:Src/draw.c    ****   drawString(frase, px, py, spacex, spacey);
 2707              		.loc 1 653 6 is_stmt 0 view .LVU692
 2708 002e 21EAE171 		bic	r1, r1, r1, asr #31
 2709              	.LVL276:
 654:Src/draw.c    **** }
 2710              		.loc 1 654 3 is_stmt 1 view .LVU693
 2711 0032 0095     		str	r5, [sp]
 2712 0034 2346     		mov	r3, r4
 2713 0036 C2F34702 		ubfx	r2, r2, #1, #8
 2714              	.LVL277:
 654:Src/draw.c    **** }
 2715              		.loc 1 654 3 is_stmt 0 view .LVU694
 2716 003a C9B2     		uxtb	r1, r1
 654:Src/draw.c    **** }
 2717              		.loc 1 654 3 view .LVU695
 2718 003c 3046     		mov	r0, r6
 2719 003e FFF7FEFF 		bl	drawString
 2720              	.LVL278:
 655:Src/draw.c    **** 
 2721              		.loc 1 655 1 view .LVU696
 2722 0042 02B0     		add	sp, sp, #8
 2723              	.LCFI40:
 2724              		.cfi_def_cfa_offset 16
 2725              		@ sp needed
 2726 0044 70BD     		pop	{r4, r5, r6, pc}
 655:Src/draw.c    **** 
 2727              		.loc 1 655 1 view .LVU697
 2728              		.cfi_endproc
 2729              	.LFE23:
 2731              		.section	.text.checkSequence,"ax",%progbits
 2732              		.align	1
 2733              		.global	checkSequence
 2734              		.syntax unified
 2735              		.thumb
 2736              		.thumb_func
 2737              		.fpu fpv4-sp-d16
 2739              	checkSequence:
ARM GAS  /var/folders/hv/f19l0kw128sbpybv1h43gz3c0000gn/T//ccU1gGxV.s 			page 66


 2740              	.LFB19:
 550:Src/draw.c    ****   uint8_t arrayLen = ARRAY_LEN(noteSequence);
 2741              		.loc 1 550 1 is_stmt 1 view -0
 2742              		.cfi_startproc
 2743              		@ args = 0, pretend = 0, frame = 0
 2744              		@ frame_needed = 0, uses_anonymous_args = 0
 2745 0000 F8B5     		push	{r3, r4, r5, r6, r7, lr}
 2746              	.LCFI41:
 2747              		.cfi_def_cfa_offset 24
 2748              		.cfi_offset 3, -24
 2749              		.cfi_offset 4, -20
 2750              		.cfi_offset 5, -16
 2751              		.cfi_offset 6, -12
 2752              		.cfi_offset 7, -8
 2753              		.cfi_offset 14, -4
 551:Src/draw.c    ****   uint8_t cnt = 0;
 2754              		.loc 1 551 3 view .LVU699
 2755              	.LVL279:
 552:Src/draw.c    ****   // uint8_t blue[3] = {1, 1, 20};
 2756              		.loc 1 552 3 view .LVU700
 554:Src/draw.c    ****   {
 2757              		.loc 1 554 3 view .LVU701
 2758              	.LBB75:
 554:Src/draw.c    ****   {
 2759              		.loc 1 554 8 view .LVU702
 554:Src/draw.c    ****   {
 2760              		.loc 1 554 16 is_stmt 0 view .LVU703
 2761 0002 0025     		movs	r5, #0
 2762              	.LBE75:
 552:Src/draw.c    ****   // uint8_t blue[3] = {1, 1, 20};
 2763              		.loc 1 552 11 view .LVU704
 2764 0004 2E46     		mov	r6, r5
 2765              	.LBB80:
 554:Src/draw.c    ****   {
 2766              		.loc 1 554 3 view .LVU705
 2767 0006 2AE0     		b	.L249
 2768              	.LVL280:
 2769              	.L256:
 2770              	.LBB76:
 2771              	.LBB77:
 564:Src/draw.c    ****           // drawString(noteSequence[j].word, 1, 24, 1, 0);
 2772              		.loc 1 564 11 is_stmt 1 view .LVU706
 2773 0008 FFF7FEFF 		bl	clearText
 2774              	.LVL281:
 566:Src/draw.c    ****         }
 2775              		.loc 1 566 11 view .LVU707
 566:Src/draw.c    ****         }
 2776              		.loc 1 566 37 is_stmt 0 view .LVU708
 2777 000c 05EBC500 		add	r0, r5, r5, lsl #3
 2778 0010 05EB4000 		add	r0, r5, r0, lsl #1
 2779 0014 0830     		adds	r0, r0, #8
 2780 0016 144F     		ldr	r7, .L258
 2781 0018 3844     		add	r0, r0, r7
 566:Src/draw.c    ****         }
 2782              		.loc 1 566 11 view .LVU709
 2783 001a 0022     		movs	r2, #0
 2784 001c 0121     		movs	r1, #1
ARM GAS  /var/folders/hv/f19l0kw128sbpybv1h43gz3c0000gn/T//ccU1gGxV.s 			page 67


 2785 001e 0844     		add	r0, r0, r1
 2786 0020 FFF7FEFF 		bl	drawCenter
 2787              	.LVL282:
 2788              	.L251:
 557:Src/draw.c    ****     {
 2789              		.loc 1 557 35 discriminator 2 view .LVU710
 2790 0024 0134     		adds	r4, r4, #1
 2791              	.LVL283:
 557:Src/draw.c    ****     {
 2792              		.loc 1 557 35 discriminator 2 view .LVU711
 2793 0026 E4B2     		uxtb	r4, r4
 2794              	.LVL284:
 2795              	.L253:
 557:Src/draw.c    ****     {
 2796              		.loc 1 557 5 discriminator 1 view .LVU712
 2797 0028 022C     		cmp	r4, #2
 2798 002a 16D8     		bhi	.L250
 559:Src/draw.c    ****       {
 2799              		.loc 1 559 7 is_stmt 1 view .LVU713
 559:Src/draw.c    ****       {
 2800              		.loc 1 559 29 is_stmt 0 view .LVU714
 2801 002c 04EB4402 		add	r2, r4, r4, lsl #1
 2802 0030 5300     		lsls	r3, r2, #1
 2803 0032 0E4A     		ldr	r2, .L258+4
 2804 0034 D15C     		ldrb	r1, [r2, r3]	@ zero_extendqisi2
 559:Src/draw.c    ****       {
 2805              		.loc 1 559 69 view .LVU715
 2806 0036 C4F10203 		rsb	r3, r4, #2
 559:Src/draw.c    ****       {
 2807              		.loc 1 559 73 view .LVU716
 2808 003a 03EB4303 		add	r3, r3, r3, lsl #1
 2809 003e 05EBC502 		add	r2, r5, r5, lsl #3
 2810 0042 05EB4202 		add	r2, r5, r2, lsl #1
 2811 0046 1344     		add	r3, r3, r2
 2812 0048 074A     		ldr	r2, .L258
 2813 004a D35C     		ldrb	r3, [r2, r3]	@ zero_extendqisi2
 559:Src/draw.c    ****       {
 2814              		.loc 1 559 10 view .LVU717
 2815 004c 9942     		cmp	r1, r3
 2816 004e 04D1     		bne	.L250
 561:Src/draw.c    ****         if (cnt == len)
 2817              		.loc 1 561 9 is_stmt 1 view .LVU718
 561:Src/draw.c    ****         if (cnt == len)
 2818              		.loc 1 561 12 is_stmt 0 view .LVU719
 2819 0050 0136     		adds	r6, r6, #1
 2820              	.LVL285:
 561:Src/draw.c    ****         if (cnt == len)
 2821              		.loc 1 561 12 view .LVU720
 2822 0052 F6B2     		uxtb	r6, r6
 2823              	.LVL286:
 562:Src/draw.c    ****         {
 2824              		.loc 1 562 9 is_stmt 1 view .LVU721
 562:Src/draw.c    ****         {
 2825              		.loc 1 562 12 is_stmt 0 view .LVU722
 2826 0054 032E     		cmp	r6, #3
 2827 0056 E5D1     		bne	.L251
 2828 0058 D6E7     		b	.L256
ARM GAS  /var/folders/hv/f19l0kw128sbpybv1h43gz3c0000gn/T//ccU1gGxV.s 			page 68


 2829              	.L250:
 562:Src/draw.c    ****         {
 2830              		.loc 1 562 12 view .LVU723
 2831              	.LBE77:
 2832              	.LBE76:
 554:Src/draw.c    ****   {
 2833              		.loc 1 554 38 discriminator 2 view .LVU724
 2834 005a 0135     		adds	r5, r5, #1
 2835              	.LVL287:
 554:Src/draw.c    ****   {
 2836              		.loc 1 554 38 discriminator 2 view .LVU725
 2837 005c EDB2     		uxtb	r5, r5
 2838              	.LVL288:
 2839              	.L249:
 554:Src/draw.c    ****   {
 2840              		.loc 1 554 3 discriminator 1 view .LVU726
 2841 005e 052D     		cmp	r5, #5
 2842 0060 01D8     		bhi	.L257
 2843              	.LBB79:
 2844              	.LBB78:
 557:Src/draw.c    ****     {
 2845              		.loc 1 557 18 view .LVU727
 2846 0062 0024     		movs	r4, #0
 2847 0064 E0E7     		b	.L253
 2848              	.L257:
 2849              	.LBE78:
 2850              	.LBE79:
 2851              	.LBE80:
 573:Src/draw.c    **** 
 2852              		.loc 1 573 1 view .LVU728
 2853 0066 F8BD     		pop	{r3, r4, r5, r6, r7, pc}
 2854              	.LVL289:
 2855              	.L259:
 573:Src/draw.c    **** 
 2856              		.loc 1 573 1 view .LVU729
 2857              		.align	2
 2858              	.L258:
 2859 0068 00000000 		.word	noteSequence
 2860 006c 00000000 		.word	noteBuffer
 2861              		.cfi_endproc
 2862              	.LFE19:
 2864              		.section	.text.drawNote,"ax",%progbits
 2865              		.align	1
 2866              		.global	drawNote
 2867              		.syntax unified
 2868              		.thumb
 2869              		.thumb_func
 2870              		.fpu fpv4-sp-d16
 2872              	drawNote:
 2873              	.LFB20:
 576:Src/draw.c    ****   // uint8_t red[3] = {20, 1, 1};
 2874              		.loc 1 576 1 is_stmt 1 view -0
 2875              		.cfi_startproc
 2876              		@ args = 0, pretend = 0, frame = 0
 2877              		@ frame_needed = 0, uses_anonymous_args = 0
 2878 0000 08B5     		push	{r3, lr}
 2879              	.LCFI42:
ARM GAS  /var/folders/hv/f19l0kw128sbpybv1h43gz3c0000gn/T//ccU1gGxV.s 			page 69


 2880              		.cfi_def_cfa_offset 8
 2881              		.cfi_offset 3, -8
 2882              		.cfi_offset 14, -4
 581:Src/draw.c    **** 
 2883              		.loc 1 581 3 view .LVU731
 2884 0002 FFF7FEFF 		bl	checkSequence
 2885              	.LVL290:
 587:Src/draw.c    **** 
 2886              		.loc 1 587 1 is_stmt 0 view .LVU732
 2887 0006 08BD     		pop	{r3, pc}
 2888              		.cfi_endproc
 2889              	.LFE20:
 2891              		.section	.text.drawStringArray,"ax",%progbits
 2892              		.align	1
 2893              		.global	drawStringArray
 2894              		.syntax unified
 2895              		.thumb
 2896              		.thumb_func
 2897              		.fpu fpv4-sp-d16
 2899              	drawStringArray:
 2900              	.LVL291:
 2901              	.LFB25:
 676:Src/draw.c    **** 
 677:Src/draw.c    **** void drawStringArray(uint8_t px, uint8_t py, uint8_t spacex, uint8_t spacey)
 678:Src/draw.c    **** {
 2902              		.loc 1 678 1 is_stmt 1 view -0
 2903              		.cfi_startproc
 2904              		@ args = 0, pretend = 0, frame = 8
 2905              		@ frame_needed = 0, uses_anonymous_args = 0
 2906              		.loc 1 678 1 is_stmt 0 view .LVU734
 2907 0000 2DE9F04F 		push	{r4, r5, r6, r7, r8, r9, r10, fp, lr}
 2908              	.LCFI43:
 2909              		.cfi_def_cfa_offset 36
 2910              		.cfi_offset 4, -36
 2911              		.cfi_offset 5, -32
 2912              		.cfi_offset 6, -28
 2913              		.cfi_offset 7, -24
 2914              		.cfi_offset 8, -20
 2915              		.cfi_offset 9, -16
 2916              		.cfi_offset 10, -12
 2917              		.cfi_offset 11, -8
 2918              		.cfi_offset 14, -4
 2919 0004 83B0     		sub	sp, sp, #12
 2920              	.LCFI44:
 2921              		.cfi_def_cfa_offset 48
 2922 0006 8246     		mov	r10, r0
 2923 0008 8B46     		mov	fp, r1
 2924 000a 0092     		str	r2, [sp]
 2925 000c 0193     		str	r3, [sp, #4]
 679:Src/draw.c    ****   uint8_t posX, incX = 0, posY, nLine = 0;
 2926              		.loc 1 679 3 is_stmt 1 view .LVU735
 2927              	.LVL292:
 680:Src/draw.c    ****   char temp;
 2928              		.loc 1 680 3 view .LVU736
 681:Src/draw.c    ****   for (uint8_t j = 0; j < ARRAY_LEN(noteBuffer); j++)
 2929              		.loc 1 681 3 view .LVU737
 2930              	.LBB81:
ARM GAS  /var/folders/hv/f19l0kw128sbpybv1h43gz3c0000gn/T//ccU1gGxV.s 			page 70


 2931              		.loc 1 681 8 view .LVU738
 2932              		.loc 1 681 16 is_stmt 0 view .LVU739
 2933 000e 0027     		movs	r7, #0
 2934              	.LBE81:
 679:Src/draw.c    ****   uint8_t posX, incX = 0, posY, nLine = 0;
 2935              		.loc 1 679 33 view .LVU740
 2936 0010 B846     		mov	r8, r7
 679:Src/draw.c    ****   uint8_t posX, incX = 0, posY, nLine = 0;
 2937              		.loc 1 679 17 view .LVU741
 2938 0012 B946     		mov	r9, r7
 2939              	.LBB84:
 2940              		.loc 1 681 3 view .LVU742
 2941 0014 2CE0     		b	.L263
 2942              	.LVL293:
 2943              	.L265:
 2944              	.LBB82:
 682:Src/draw.c    ****   {
 683:Src/draw.c    ****     setTextColor(noteBuffer[j].color);
 684:Src/draw.c    ****     for (uint8_t i = 0; i < 3; i++)
 685:Src/draw.c    ****     {
 686:Src/draw.c    ****       posX = incX * (3 + spacex) + px;
 687:Src/draw.c    ****       if (posX + ((3 + spacex)) > NCOLS - 2)
 688:Src/draw.c    ****       {
 689:Src/draw.c    ****         posX = px;
 690:Src/draw.c    ****         nLine++;
 691:Src/draw.c    ****         incX = 0;
 692:Src/draw.c    ****       }
 693:Src/draw.c    ****       posY = nLine * (5 + spacey) + py;
 2945              		.loc 1 693 7 is_stmt 1 view .LVU743
 2946              		.loc 1 693 35 is_stmt 0 view .LVU744
 2947 0016 019B     		ldr	r3, [sp, #4]
 2948 0018 5C1D     		adds	r4, r3, #5
 2949 001a 14FB08F4 		smulbb	r4, r4, r8
 2950              		.loc 1 693 12 view .LVU745
 2951 001e 5BFA84F4 		uxtab	r4, fp, r4
 2952 0022 E4B2     		uxtb	r4, r4
 2953              	.LVL294:
 694:Src/draw.c    ****       temp = getNoteBuffer(j, i);
 2954              		.loc 1 694 7 is_stmt 1 view .LVU746
 2955              		.loc 1 694 14 is_stmt 0 view .LVU747
 2956 0024 3146     		mov	r1, r6
 2957 0026 3846     		mov	r0, r7
 2958 0028 FFF7FEFF 		bl	getNoteBuffer
 2959              	.LVL295:
 695:Src/draw.c    ****       if (temp)
 2960              		.loc 1 695 7 is_stmt 1 view .LVU748
 2961              		.loc 1 695 10 is_stmt 0 view .LVU749
 2962 002c A8B9     		cbnz	r0, .L270
 2963              	.LVL296:
 2964              	.L266:
 684:Src/draw.c    ****     {
 2965              		.loc 1 684 33 discriminator 2 view .LVU750
 2966 002e 0136     		adds	r6, r6, #1
 2967              	.LVL297:
 684:Src/draw.c    ****     {
 2968              		.loc 1 684 33 discriminator 2 view .LVU751
 2969 0030 F6B2     		uxtb	r6, r6
ARM GAS  /var/folders/hv/f19l0kw128sbpybv1h43gz3c0000gn/T//ccU1gGxV.s 			page 71


 2970              	.LVL298:
 2971              	.L264:
 684:Src/draw.c    ****     {
 2972              		.loc 1 684 5 discriminator 1 view .LVU752
 2973 0032 022E     		cmp	r6, #2
 2974 0034 1AD8     		bhi	.L271
 686:Src/draw.c    ****       if (posX + ((3 + spacex)) > NCOLS - 2)
 2975              		.loc 1 686 7 is_stmt 1 view .LVU753
 686:Src/draw.c    ****       if (posX + ((3 + spacex)) > NCOLS - 2)
 2976              		.loc 1 686 34 is_stmt 0 view .LVU754
 2977 0036 009B     		ldr	r3, [sp]
 2978 0038 0333     		adds	r3, r3, #3
 2979 003a 13FB09F5 		smulbb	r5, r3, r9
 686:Src/draw.c    ****       if (posX + ((3 + spacex)) > NCOLS - 2)
 2980              		.loc 1 686 12 view .LVU755
 2981 003e 5AFA85F5 		uxtab	r5, r10, r5
 2982 0042 EDB2     		uxtb	r5, r5
 2983              	.LVL299:
 687:Src/draw.c    ****       {
 2984              		.loc 1 687 7 is_stmt 1 view .LVU756
 687:Src/draw.c    ****       {
 2985              		.loc 1 687 16 is_stmt 0 view .LVU757
 2986 0044 2B44     		add	r3, r3, r5
 687:Src/draw.c    ****       {
 2987              		.loc 1 687 10 view .LVU758
 2988 0046 0E2B     		cmp	r3, #14
 2989 0048 E5DD     		ble	.L265
 689:Src/draw.c    ****         nLine++;
 2990              		.loc 1 689 9 is_stmt 1 view .LVU759
 2991              	.LVL300:
 690:Src/draw.c    ****         incX = 0;
 2992              		.loc 1 690 9 view .LVU760
 690:Src/draw.c    ****         incX = 0;
 2993              		.loc 1 690 14 is_stmt 0 view .LVU761
 2994 004a 08F10108 		add	r8, r8, #1
 2995              	.LVL301:
 690:Src/draw.c    ****         incX = 0;
 2996              		.loc 1 690 14 view .LVU762
 2997 004e 5FFA88F8 		uxtb	r8, r8
 2998              	.LVL302:
 691:Src/draw.c    ****       }
 2999              		.loc 1 691 9 is_stmt 1 view .LVU763
 689:Src/draw.c    ****         nLine++;
 3000              		.loc 1 689 14 is_stmt 0 view .LVU764
 3001 0052 5546     		mov	r5, r10
 691:Src/draw.c    ****       }
 3002              		.loc 1 691 14 view .LVU765
 3003 0054 4FF00009 		mov	r9, #0
 3004 0058 DDE7     		b	.L265
 3005              	.LVL303:
 3006              	.L270:
 696:Src/draw.c    ****       {
 697:Src/draw.c    ****         drawLetter(temp, posX, posY);
 3007              		.loc 1 697 9 is_stmt 1 view .LVU766
 3008 005a 2246     		mov	r2, r4
 3009 005c 2946     		mov	r1, r5
 3010 005e FFF7FEFF 		bl	drawLetter
ARM GAS  /var/folders/hv/f19l0kw128sbpybv1h43gz3c0000gn/T//ccU1gGxV.s 			page 72


 3011              	.LVL304:
 698:Src/draw.c    ****         incX++;
 3012              		.loc 1 698 9 view .LVU767
 3013              		.loc 1 698 13 is_stmt 0 view .LVU768
 3014 0062 09F10109 		add	r9, r9, #1
 3015              	.LVL305:
 3016              		.loc 1 698 13 view .LVU769
 3017 0066 5FFA89F9 		uxtb	r9, r9
 3018              	.LVL306:
 3019              		.loc 1 698 13 view .LVU770
 3020 006a E0E7     		b	.L266
 3021              	.LVL307:
 3022              	.L271:
 3023              		.loc 1 698 13 view .LVU771
 3024              	.LBE82:
 681:Src/draw.c    ****   {
 3025              		.loc 1 681 51 discriminator 2 view .LVU772
 3026 006c 0137     		adds	r7, r7, #1
 3027              	.LVL308:
 681:Src/draw.c    ****   {
 3028              		.loc 1 681 51 discriminator 2 view .LVU773
 3029 006e FFB2     		uxtb	r7, r7
 3030              	.LVL309:
 3031              	.L263:
 681:Src/draw.c    ****   {
 3032              		.loc 1 681 3 discriminator 1 view .LVU774
 3033 0070 092F     		cmp	r7, #9
 3034 0072 09D8     		bhi	.L272
 683:Src/draw.c    ****     for (uint8_t i = 0; i < 3; i++)
 3035              		.loc 1 683 5 is_stmt 1 view .LVU775
 683:Src/draw.c    ****     for (uint8_t i = 0; i < 3; i++)
 3036              		.loc 1 683 31 is_stmt 0 view .LVU776
 3037 0074 07EB4703 		add	r3, r7, r7, lsl #1
 3038 0078 5800     		lsls	r0, r3, #1
 3039 007a 054B     		ldr	r3, .L273
 3040 007c 1844     		add	r0, r0, r3
 683:Src/draw.c    ****     for (uint8_t i = 0; i < 3; i++)
 3041              		.loc 1 683 5 view .LVU777
 3042 007e 0330     		adds	r0, r0, #3
 3043 0080 FFF7FEFF 		bl	setTextColor
 3044              	.LVL310:
 684:Src/draw.c    ****     {
 3045              		.loc 1 684 5 is_stmt 1 view .LVU778
 3046              	.LBB83:
 684:Src/draw.c    ****     {
 3047              		.loc 1 684 10 view .LVU779
 684:Src/draw.c    ****     {
 3048              		.loc 1 684 18 is_stmt 0 view .LVU780
 3049 0084 0026     		movs	r6, #0
 684:Src/draw.c    ****     {
 3050              		.loc 1 684 5 view .LVU781
 3051 0086 D4E7     		b	.L264
 3052              	.LVL311:
 3053              	.L272:
 684:Src/draw.c    ****     {
 3054              		.loc 1 684 5 view .LVU782
 3055              	.LBE83:
ARM GAS  /var/folders/hv/f19l0kw128sbpybv1h43gz3c0000gn/T//ccU1gGxV.s 			page 73


 3056              	.LBE84:
 699:Src/draw.c    ****       }
 700:Src/draw.c    ****     }
 701:Src/draw.c    ****   }
 702:Src/draw.c    **** }
 3057              		.loc 1 702 1 view .LVU783
 3058 0088 03B0     		add	sp, sp, #12
 3059              	.LCFI45:
 3060              		.cfi_def_cfa_offset 36
 3061              		@ sp needed
 3062 008a BDE8F08F 		pop	{r4, r5, r6, r7, r8, r9, r10, fp, pc}
 3063              	.LVL312:
 3064              	.L274:
 3065              		.loc 1 702 1 view .LVU784
 3066 008e 00BF     		.align	2
 3067              	.L273:
 3068 0090 00000000 		.word	noteBuffer
 3069              		.cfi_endproc
 3070              	.LFE25:
 3072              		.comm	callback_function,4,4
 3073              		.global	MODE_TEXT
 3074              		.global	MODE_BACK
 3075              		.global	MAX_BRIGHT
 3076              		.global	MAX_DIV
 3077              		.global	orientation
 3078              		.global	font4x6
 3079              		.comm	arrColor,4,4
 3080              		.global	colorBW
 3081              		.global	colorOriginal
 3082              		.global	maxColor
 3083              		.global	minColor
 3084              		.comm	drawtext_function,4,4
 3085              		.comm	drawshape_function,4,4
 3086              		.comm	WS2812_IO_framedata,1536,4
 3087              		.comm	noteBuffer,60,4
 3088              		.comm	noteSequence,114,4
 3089              		.comm	note,3,4
 3090              		.comm	textColor,3,4
 3091              		.comm	backColor,3,4
 3092              		.comm	textLayer,768,4
 3093              		.comm	backLayer,768,4
 3094              		.section	.bss.MODE_TEXT,"aw",%nobits
 3095              		.set	.LANCHOR2,. + 0
 3098              	MODE_TEXT:
 3099 0000 00       		.space	1
 3100              		.section	.bss.minColor,"aw",%nobits
 3101              		.align	2
 3102              		.set	.LANCHOR0,. + 0
 3105              	minColor:
 3106 0000 000000   		.space	3
 3107              		.section	.bss.orientation,"aw",%nobits
 3108              		.set	.LANCHOR3,. + 0
 3111              	orientation:
 3112 0000 00       		.space	1
 3113              		.section	.data.MAX_BRIGHT,"aw"
 3114              		.align	2
 3117              	MAX_BRIGHT:
ARM GAS  /var/folders/hv/f19l0kw128sbpybv1h43gz3c0000gn/T//ccU1gGxV.s 			page 74


 3118 0000 CDCCCC3D 		.word	1036831949
 3119              		.section	.data.MAX_DIV,"aw"
 3120              		.set	.LANCHOR4,. + 0
 3123              	MAX_DIV:
 3124 0000 03       		.byte	3
 3125              		.section	.data.MODE_BACK,"aw"
 3126              		.set	.LANCHOR1,. + 0
 3129              	MODE_BACK:
 3130 0000 01       		.byte	1
 3131              		.section	.data.colorBW,"aw"
 3132              		.align	2
 3135              	colorBW:
 3136 0000 4E       		.byte	78
 3137 0001 4E       		.byte	78
 3138 0002 4E       		.byte	78
 3139 0003 74       		.byte	116
 3140 0004 63       		.byte	99
 3141 0005 5E       		.byte	94
 3142 0006 65       		.byte	101
 3143 0007 69       		.byte	105
 3144 0008 69       		.byte	105
 3145 0009 48       		.byte	72
 3146 000a 48       		.byte	72
 3147 000b 24       		.byte	36
 3148 000c 27       		.byte	39
 3149 000d 27       		.byte	39
 3150 000e 27       		.byte	39
 3151 000f 3A       		.byte	58
 3152 0010 31       		.byte	49
 3153 0011 2F       		.byte	47
 3154 0012 32       		.byte	50
 3155 0013 35       		.byte	53
 3156 0014 35       		.byte	53
 3157 0015 24       		.byte	36
 3158 0016 24       		.byte	36
 3159 0017 12       		.byte	18
 3160 0018 75       		.byte	117
 3161 0019 75       		.byte	117
 3162 001a 75       		.byte	117
 3163 001b AE       		.byte	-82
 3164 001c 94       		.byte	-108
 3165 001d 8D       		.byte	-115
 3166 001e 97       		.byte	-105
 3167 001f 9E       		.byte	-98
 3168 0020 9E       		.byte	-98
 3169 0021 6C       		.byte	108
 3170 0022 6C       		.byte	108
 3171 0023 36       		.byte	54
 3172              		.section	.data.colorOriginal,"aw"
 3173              		.align	2
 3176              	colorOriginal:
 3177 0000 7B       		.byte	123
 3178 0001 00       		.byte	0
 3179 0002 00       		.byte	0
 3180 0003 7B       		.byte	123
 3181 0004 5A       		.byte	90
 3182 0005 00       		.byte	0
ARM GAS  /var/folders/hv/f19l0kw128sbpybv1h43gz3c0000gn/T//ccU1gGxV.s 			page 75


 3183 0006 7B       		.byte	123
 3184 0007 7B       		.byte	123
 3185 0008 00       		.byte	0
 3186 0009 7B       		.byte	123
 3187 000a 6D       		.byte	109
 3188 000b 00       		.byte	0
 3189 000c 00       		.byte	0
 3190 000d 7B       		.byte	123
 3191 000e 6A       		.byte	106
 3192 000f 5A       		.byte	90
 3193 0010 00       		.byte	0
 3194 0011 7B       		.byte	123
 3195 0012 7B       		.byte	123
 3196 0013 00       		.byte	0
 3197 0014 5A       		.byte	90
 3198 0015 7B       		.byte	123
 3199 0016 00       		.byte	0
 3200 0017 7B       		.byte	123
 3201 0018 00       		.byte	0
 3202 0019 00       		.byte	0
 3203 001a 70       		.byte	112
 3204 001b 62       		.byte	98
 3205 001c 62       		.byte	98
 3206 001d 62       		.byte	98
 3207 001e 85       		.byte	-123
 3208 001f 85       		.byte	-123
 3209 0020 52       		.byte	82
 3210 0021 85       		.byte	-123
 3211 0022 62       		.byte	98
 3212 0023 52       		.byte	82
 3213              		.section	.data.maxColor,"aw"
 3214              		.align	2
 3215              		.set	.LANCHOR6,. + 0
 3218              	maxColor:
 3219 0000 FF       		.byte	-1
 3220 0001 FF       		.byte	-1
 3221 0002 FF       		.byte	-1
 3222              		.section	.rodata.font4x6,"a"
 3223              		.align	2
 3224              		.set	.LANCHOR5,. + 0
 3227              	font4x6:
 3228 0000 00       		.byte	0
 3229 0001 00       		.byte	0
 3230 0002 49       		.byte	73
 3231 0003 08       		.byte	8
 3232 0004 B4       		.byte	-76
 3233 0005 00       		.byte	0
 3234 0006 BE       		.byte	-66
 3235 0007 F6       		.byte	-10
 3236 0008 7B       		.byte	123
 3237 0009 7A       		.byte	122
 3238 000a A5       		.byte	-91
 3239 000b 94       		.byte	-108
 3240 000c 55       		.byte	85
 3241 000d B8       		.byte	-72
 3242 000e 48       		.byte	72
 3243 000f 00       		.byte	0
ARM GAS  /var/folders/hv/f19l0kw128sbpybv1h43gz3c0000gn/T//ccU1gGxV.s 			page 76


 3244 0010 29       		.byte	41
 3245 0011 44       		.byte	68
 3246 0012 44       		.byte	68
 3247 0013 2A       		.byte	42
 3248 0014 15       		.byte	21
 3249 0015 A0       		.byte	-96
 3250 0016 0B       		.byte	11
 3251 0017 42       		.byte	66
 3252 0018 00       		.byte	0
 3253 0019 50       		.byte	80
 3254 001a 03       		.byte	3
 3255 001b 02       		.byte	2
 3256 001c 00       		.byte	0
 3257 001d 08       		.byte	8
 3258 001e 25       		.byte	37
 3259 001f 90       		.byte	-112
 3260 0020 76       		.byte	118
 3261 0021 BA       		.byte	-70
 3262 0022 59       		.byte	89
 3263 0023 5C       		.byte	92
 3264 0024 C5       		.byte	-59
 3265 0025 9E       		.byte	-98
 3266 0026 C5       		.byte	-59
 3267 0027 38       		.byte	56
 3268 0028 92       		.byte	-110
 3269 0029 E6       		.byte	-26
 3270 002a F3       		.byte	-13
 3271 002b 3A       		.byte	58
 3272 002c 73       		.byte	115
 3273 002d BA       		.byte	-70
 3274 002e E5       		.byte	-27
 3275 002f 90       		.byte	-112
 3276 0030 77       		.byte	119
 3277 0031 BA       		.byte	-70
 3278 0032 77       		.byte	119
 3279 0033 3A       		.byte	58
 3280 0034 08       		.byte	8
 3281 0035 40       		.byte	64
 3282 0036 08       		.byte	8
 3283 0037 50       		.byte	80
 3284 0038 2A       		.byte	42
 3285 0039 44       		.byte	68
 3286 003a 1C       		.byte	28
 3287 003b E0       		.byte	-32
 3288 003c 88       		.byte	-120
 3289 003d 52       		.byte	82
 3290 003e E5       		.byte	-27
 3291 003f 08       		.byte	8
 3292 0040 56       		.byte	86
 3293 0041 8E       		.byte	-114
 3294 0042 77       		.byte	119
 3295 0043 B6       		.byte	-74
 3296 0044 77       		.byte	119
 3297 0045 B8       		.byte	-72
 3298 0046 72       		.byte	114
 3299 0047 8C       		.byte	-116
 3300 0048 D6       		.byte	-42
ARM GAS  /var/folders/hv/f19l0kw128sbpybv1h43gz3c0000gn/T//ccU1gGxV.s 			page 77


 3301 0049 BA       		.byte	-70
 3302 004a 73       		.byte	115
 3303 004b 9E       		.byte	-98
 3304 004c 73       		.byte	115
 3305 004d 92       		.byte	-110
 3306 004e 72       		.byte	114
 3307 004f AE       		.byte	-82
 3308 0050 B7       		.byte	-73
 3309 0051 B6       		.byte	-74
 3310 0052 E9       		.byte	-23
 3311 0053 5C       		.byte	92
 3312 0054 64       		.byte	100
 3313 0055 AA       		.byte	-86
 3314 0056 B7       		.byte	-73
 3315 0057 B4       		.byte	-76
 3316 0058 92       		.byte	-110
 3317 0059 9C       		.byte	-100
 3318 005a BE       		.byte	-66
 3319 005b B6       		.byte	-74
 3320 005c D6       		.byte	-42
 3321 005d B6       		.byte	-74
 3322 005e 56       		.byte	86
 3323 005f AA       		.byte	-86
 3324 0060 D7       		.byte	-41
 3325 0061 92       		.byte	-110
 3326 0062 76       		.byte	118
 3327 0063 EE       		.byte	-18
 3328 0064 77       		.byte	119
 3329 0065 B4       		.byte	-76
 3330 0066 71       		.byte	113
 3331 0067 38       		.byte	56
 3332 0068 E9       		.byte	-23
 3333 0069 48       		.byte	72
 3334 006a B6       		.byte	-74
 3335 006b AE       		.byte	-82
 3336 006c B6       		.byte	-74
 3337 006d AA       		.byte	-86
 3338 006e B6       		.byte	-74
 3339 006f F6       		.byte	-10
 3340 0070 B5       		.byte	-75
 3341 0071 B4       		.byte	-76
 3342 0072 B5       		.byte	-75
 3343 0073 48       		.byte	72
 3344 0074 E5       		.byte	-27
 3345 0075 9C       		.byte	-100
 3346 0076 69       		.byte	105
 3347 0077 4C       		.byte	76
 3348 0078 91       		.byte	-111
 3349 0079 24       		.byte	36
 3350 007a 64       		.byte	100
 3351 007b 2E       		.byte	46
 3352 007c 54       		.byte	84
 3353 007d 00       		.byte	0
 3354 007e 00       		.byte	0
 3355 007f 1C       		.byte	28
 3356 0080 44       		.byte	68
 3357 0081 00       		.byte	0
ARM GAS  /var/folders/hv/f19l0kw128sbpybv1h43gz3c0000gn/T//ccU1gGxV.s 			page 78


 3358 0082 0E       		.byte	14
 3359 0083 AE       		.byte	-82
 3360 0084 9A       		.byte	-102
 3361 0085 BA       		.byte	-70
 3362 0086 0E       		.byte	14
 3363 0087 8C       		.byte	-116
 3364 0088 2E       		.byte	46
 3365 0089 AE       		.byte	-82
 3366 008a 0E       		.byte	14
 3367 008b CE       		.byte	-50
 3368 008c 56       		.byte	86
 3369 008d D0       		.byte	-48
 3370 008e 55       		.byte	85
 3371 008f 3B       		.byte	59
 3372 0090 93       		.byte	-109
 3373 0091 B4       		.byte	-76
 3374 0092 41       		.byte	65
 3375 0093 44       		.byte	68
 3376 0094 41       		.byte	65
 3377 0095 51       		.byte	81
 3378 0096 97       		.byte	-105
 3379 0097 B4       		.byte	-76
 3380 0098 49       		.byte	73
 3381 0099 44       		.byte	68
 3382 009a 17       		.byte	23
 3383 009b B6       		.byte	-74
 3384 009c 1A       		.byte	26
 3385 009d B6       		.byte	-74
 3386 009e 0A       		.byte	10
 3387 009f AA       		.byte	-86
 3388 00a0 D6       		.byte	-42
 3389 00a1 D3       		.byte	-45
 3390 00a2 76       		.byte	118
 3391 00a3 67       		.byte	103
 3392 00a4 17       		.byte	23
 3393 00a5 90       		.byte	-112
 3394 00a6 0F       		.byte	15
 3395 00a7 38       		.byte	56
 3396 00a8 9A       		.byte	-102
 3397 00a9 8C       		.byte	-116
 3398 00aa 16       		.byte	22
 3399 00ab AE       		.byte	-82
 3400 00ac 16       		.byte	22
 3401 00ad BA       		.byte	-70
 3402 00ae 16       		.byte	22
 3403 00af F6       		.byte	-10
 3404 00b0 15       		.byte	21
 3405 00b1 B4       		.byte	-76
 3406 00b2 B5       		.byte	-75
 3407 00b3 2B       		.byte	43
 3408 00b4 1C       		.byte	28
 3409 00b5 5E       		.byte	94
 3410 00b6 6B       		.byte	107
 3411 00b7 4C       		.byte	76
 3412 00b8 49       		.byte	73
 3413 00b9 48       		.byte	72
 3414 00ba C9       		.byte	-55
ARM GAS  /var/folders/hv/f19l0kw128sbpybv1h43gz3c0000gn/T//ccU1gGxV.s 			page 79


 3415 00bb 5A       		.byte	90
 3416 00bc 54       		.byte	84
 3417 00bd 00       		.byte	0
 3418 00be 56       		.byte	86
 3419 00bf E2       		.byte	-30
 3420              		.text
 3421              	.Letext0:
 3422              		.file 2 "/Users/luissousa/opt/gcc-arm-none-eabi-8-2018-q4-major/arm-none-eabi/include/machine/_def
 3423              		.file 3 "/Users/luissousa/opt/gcc-arm-none-eabi-8-2018-q4-major/arm-none-eabi/include/sys/_stdint.
 3424              		.file 4 "/Users/luissousa/opt/gcc-arm-none-eabi-8-2018-q4-major/lib/gcc/arm-none-eabi/8.2.1/includ
 3425              		.file 5 "/Users/luissousa/opt/gcc-arm-none-eabi-8-2018-q4-major/arm-none-eabi/include/sys/lock.h"
 3426              		.file 6 "/Users/luissousa/opt/gcc-arm-none-eabi-8-2018-q4-major/arm-none-eabi/include/sys/_types.h
 3427              		.file 7 "/Users/luissousa/opt/gcc-arm-none-eabi-8-2018-q4-major/arm-none-eabi/include/sys/reent.h"
 3428              		.file 8 "Inc/definitions.h"
 3429              		.file 9 "Inc/notes.h"
 3430              		.file 10 "Inc/ws2812.h"
 3431              		.file 11 "Inc/draw.h"
 3432              		.file 12 "/Users/luissousa/opt/gcc-arm-none-eabi-8-2018-q4-major/arm-none-eabi/include/string.h"
ARM GAS  /var/folders/hv/f19l0kw128sbpybv1h43gz3c0000gn/T//ccU1gGxV.s 			page 80


DEFINED SYMBOLS
                            *ABS*:0000000000000000 draw.c
/var/folders/hv/f19l0kw128sbpybv1h43gz3c0000gn/T//ccU1gGxV.s:18     .text.fillFramebuffer:0000000000000000 $t
/var/folders/hv/f19l0kw128sbpybv1h43gz3c0000gn/T//ccU1gGxV.s:26     .text.fillFramebuffer:0000000000000000 fillFramebuffer
/var/folders/hv/f19l0kw128sbpybv1h43gz3c0000gn/T//ccU1gGxV.s:247    .text.fillFramebuffer:00000000000000c8 $d
                            *COM*:0000000000000300 backLayer
                            *COM*:0000000000000300 textLayer
/var/folders/hv/f19l0kw128sbpybv1h43gz3c0000gn/T//ccU1gGxV.s:253    .text.clearBack:0000000000000000 $t
/var/folders/hv/f19l0kw128sbpybv1h43gz3c0000gn/T//ccU1gGxV.s:260    .text.clearBack:0000000000000000 clearBack
/var/folders/hv/f19l0kw128sbpybv1h43gz3c0000gn/T//ccU1gGxV.s:332    .text.clearBack:0000000000000030 $d
/var/folders/hv/f19l0kw128sbpybv1h43gz3c0000gn/T//ccU1gGxV.s:338    .text.clearText:0000000000000000 $t
/var/folders/hv/f19l0kw128sbpybv1h43gz3c0000gn/T//ccU1gGxV.s:345    .text.clearText:0000000000000000 clearText
/var/folders/hv/f19l0kw128sbpybv1h43gz3c0000gn/T//ccU1gGxV.s:417    .text.clearText:0000000000000030 $d
/var/folders/hv/f19l0kw128sbpybv1h43gz3c0000gn/T//ccU1gGxV.s:423    .text.clearFramebuffer:0000000000000000 $t
/var/folders/hv/f19l0kw128sbpybv1h43gz3c0000gn/T//ccU1gGxV.s:430    .text.clearFramebuffer:0000000000000000 clearFramebuffer
/var/folders/hv/f19l0kw128sbpybv1h43gz3c0000gn/T//ccU1gGxV.s:535    .text.clearFramebuffer:0000000000000050 $d
/var/folders/hv/f19l0kw128sbpybv1h43gz3c0000gn/T//ccU1gGxV.s:540    .text.drawShape:0000000000000000 $t
/var/folders/hv/f19l0kw128sbpybv1h43gz3c0000gn/T//ccU1gGxV.s:547    .text.drawShape:0000000000000000 drawShape
/var/folders/hv/f19l0kw128sbpybv1h43gz3c0000gn/T//ccU1gGxV.s:578    .text.drawShape:0000000000000014 $d
                            *COM*:0000000000000004 drawshape_function
/var/folders/hv/f19l0kw128sbpybv1h43gz3c0000gn/T//ccU1gGxV.s:584    .text.drawText:0000000000000000 $t
/var/folders/hv/f19l0kw128sbpybv1h43gz3c0000gn/T//ccU1gGxV.s:591    .text.drawText:0000000000000000 drawText
/var/folders/hv/f19l0kw128sbpybv1h43gz3c0000gn/T//ccU1gGxV.s:622    .text.drawText:0000000000000014 $d
                            *COM*:0000000000000004 drawtext_function
/var/folders/hv/f19l0kw128sbpybv1h43gz3c0000gn/T//ccU1gGxV.s:628    .text.drawShapeNote:0000000000000000 $t
/var/folders/hv/f19l0kw128sbpybv1h43gz3c0000gn/T//ccU1gGxV.s:635    .text.drawShapeNote:0000000000000000 drawShapeNote
/var/folders/hv/f19l0kw128sbpybv1h43gz3c0000gn/T//ccU1gGxV.s:866    .text.drawShapeNote:00000000000000c8 $d
                            *COM*:0000000000000004 callback_function
                            *COM*:000000000000003c noteBuffer
                            *COM*:0000000000000003 textColor
/var/folders/hv/f19l0kw128sbpybv1h43gz3c0000gn/T//ccU1gGxV.s:876    .text.drawShapeNoteGrad:0000000000000000 $t
/var/folders/hv/f19l0kw128sbpybv1h43gz3c0000gn/T//ccU1gGxV.s:883    .text.drawShapeNoteGrad:0000000000000000 drawShapeNoteGrad
/var/folders/hv/f19l0kw128sbpybv1h43gz3c0000gn/T//ccU1gGxV.s:1139   .text.drawShapeNoteGrad:000000000000010c $d
/var/folders/hv/f19l0kw128sbpybv1h43gz3c0000gn/T//ccU1gGxV.s:1148   .text.circle:0000000000000000 $t
/var/folders/hv/f19l0kw128sbpybv1h43gz3c0000gn/T//ccU1gGxV.s:1155   .text.circle:0000000000000000 circle
/var/folders/hv/f19l0kw128sbpybv1h43gz3c0000gn/T//ccU1gGxV.s:1188   .text.circle:0000000000000028 $d
/var/folders/hv/f19l0kw128sbpybv1h43gz3c0000gn/T//ccU1gGxV.s:1193   .text.drawShapeNoteTemp:0000000000000000 $t
/var/folders/hv/f19l0kw128sbpybv1h43gz3c0000gn/T//ccU1gGxV.s:1200   .text.drawShapeNoteTemp:0000000000000000 drawShapeNoteTemp
/var/folders/hv/f19l0kw128sbpybv1h43gz3c0000gn/T//ccU1gGxV.s:1428   .text.drawShapeNoteTemp:00000000000000d8 $d
/var/folders/hv/f19l0kw128sbpybv1h43gz3c0000gn/T//ccU1gGxV.s:1437   .text.square:0000000000000000 $t
/var/folders/hv/f19l0kw128sbpybv1h43gz3c0000gn/T//ccU1gGxV.s:1444   .text.square:0000000000000000 square
/var/folders/hv/f19l0kw128sbpybv1h43gz3c0000gn/T//ccU1gGxV.s:1540   .text.triangle:0000000000000000 $t
/var/folders/hv/f19l0kw128sbpybv1h43gz3c0000gn/T//ccU1gGxV.s:1547   .text.triangle:0000000000000000 triangle
/var/folders/hv/f19l0kw128sbpybv1h43gz3c0000gn/T//ccU1gGxV.s:1677   .text.triangle:00000000000000a0 $d
/var/folders/hv/f19l0kw128sbpybv1h43gz3c0000gn/T//ccU1gGxV.s:1687   .text.cross:0000000000000000 $t
/var/folders/hv/f19l0kw128sbpybv1h43gz3c0000gn/T//ccU1gGxV.s:1694   .text.cross:0000000000000000 cross
/var/folders/hv/f19l0kw128sbpybv1h43gz3c0000gn/T//ccU1gGxV.s:1781   .text.horizontal:0000000000000000 $t
/var/folders/hv/f19l0kw128sbpybv1h43gz3c0000gn/T//ccU1gGxV.s:1788   .text.horizontal:0000000000000000 horizontal
/var/folders/hv/f19l0kw128sbpybv1h43gz3c0000gn/T//ccU1gGxV.s:1875   .text.vertical:0000000000000000 $t
/var/folders/hv/f19l0kw128sbpybv1h43gz3c0000gn/T//ccU1gGxV.s:1882   .text.vertical:0000000000000000 vertical
/var/folders/hv/f19l0kw128sbpybv1h43gz3c0000gn/T//ccU1gGxV.s:1969   .text.drawLine:0000000000000000 $t
/var/folders/hv/f19l0kw128sbpybv1h43gz3c0000gn/T//ccU1gGxV.s:1976   .text.drawLine:0000000000000000 drawLine
/var/folders/hv/f19l0kw128sbpybv1h43gz3c0000gn/T//ccU1gGxV.s:2059   .text.drawLine:0000000000000040 $d
/var/folders/hv/f19l0kw128sbpybv1h43gz3c0000gn/T//ccU1gGxV.s:2064   .text.drawPixel:0000000000000000 $t
/var/folders/hv/f19l0kw128sbpybv1h43gz3c0000gn/T//ccU1gGxV.s:2071   .text.drawPixel:0000000000000000 drawPixel
/var/folders/hv/f19l0kw128sbpybv1h43gz3c0000gn/T//ccU1gGxV.s:2152   .text.drawPixel:0000000000000040 $d
/var/folders/hv/f19l0kw128sbpybv1h43gz3c0000gn/T//ccU1gGxV.s:2157   .text.drawColor:0000000000000000 $t
ARM GAS  /var/folders/hv/f19l0kw128sbpybv1h43gz3c0000gn/T//ccU1gGxV.s 			page 81


/var/folders/hv/f19l0kw128sbpybv1h43gz3c0000gn/T//ccU1gGxV.s:2164   .text.drawColor:0000000000000000 drawColor
/var/folders/hv/f19l0kw128sbpybv1h43gz3c0000gn/T//ccU1gGxV.s:2231   .text.drawColor:000000000000002c $d
/var/folders/hv/f19l0kw128sbpybv1h43gz3c0000gn/T//ccU1gGxV.s:2236   .text.getFontLine:0000000000000000 $t
/var/folders/hv/f19l0kw128sbpybv1h43gz3c0000gn/T//ccU1gGxV.s:2243   .text.getFontLine:0000000000000000 getFontLine
/var/folders/hv/f19l0kw128sbpybv1h43gz3c0000gn/T//ccU1gGxV.s:2352   .text.getFontLine:0000000000000060 $d
/var/folders/hv/f19l0kw128sbpybv1h43gz3c0000gn/T//ccU1gGxV.s:2357   .text.drawLetter:0000000000000000 $t
/var/folders/hv/f19l0kw128sbpybv1h43gz3c0000gn/T//ccU1gGxV.s:2364   .text.drawLetter:0000000000000000 drawLetter
/var/folders/hv/f19l0kw128sbpybv1h43gz3c0000gn/T//ccU1gGxV.s:2520   .text.drawLetter:0000000000000094 $d
/var/folders/hv/f19l0kw128sbpybv1h43gz3c0000gn/T//ccU1gGxV.s:2527   .text.drawString:0000000000000000 $t
/var/folders/hv/f19l0kw128sbpybv1h43gz3c0000gn/T//ccU1gGxV.s:2534   .text.drawString:0000000000000000 drawString
/var/folders/hv/f19l0kw128sbpybv1h43gz3c0000gn/T//ccU1gGxV.s:2648   .text.drawCenter:0000000000000000 $t
/var/folders/hv/f19l0kw128sbpybv1h43gz3c0000gn/T//ccU1gGxV.s:2655   .text.drawCenter:0000000000000000 drawCenter
/var/folders/hv/f19l0kw128sbpybv1h43gz3c0000gn/T//ccU1gGxV.s:2732   .text.checkSequence:0000000000000000 $t
/var/folders/hv/f19l0kw128sbpybv1h43gz3c0000gn/T//ccU1gGxV.s:2739   .text.checkSequence:0000000000000000 checkSequence
/var/folders/hv/f19l0kw128sbpybv1h43gz3c0000gn/T//ccU1gGxV.s:2859   .text.checkSequence:0000000000000068 $d
                            *COM*:0000000000000072 noteSequence
/var/folders/hv/f19l0kw128sbpybv1h43gz3c0000gn/T//ccU1gGxV.s:2865   .text.drawNote:0000000000000000 $t
/var/folders/hv/f19l0kw128sbpybv1h43gz3c0000gn/T//ccU1gGxV.s:2872   .text.drawNote:0000000000000000 drawNote
/var/folders/hv/f19l0kw128sbpybv1h43gz3c0000gn/T//ccU1gGxV.s:2892   .text.drawStringArray:0000000000000000 $t
/var/folders/hv/f19l0kw128sbpybv1h43gz3c0000gn/T//ccU1gGxV.s:2899   .text.drawStringArray:0000000000000000 drawStringArray
/var/folders/hv/f19l0kw128sbpybv1h43gz3c0000gn/T//ccU1gGxV.s:3068   .text.drawStringArray:0000000000000090 $d
/var/folders/hv/f19l0kw128sbpybv1h43gz3c0000gn/T//ccU1gGxV.s:3098   .bss.MODE_TEXT:0000000000000000 MODE_TEXT
/var/folders/hv/f19l0kw128sbpybv1h43gz3c0000gn/T//ccU1gGxV.s:3129   .data.MODE_BACK:0000000000000000 MODE_BACK
/var/folders/hv/f19l0kw128sbpybv1h43gz3c0000gn/T//ccU1gGxV.s:3117   .data.MAX_BRIGHT:0000000000000000 MAX_BRIGHT
/var/folders/hv/f19l0kw128sbpybv1h43gz3c0000gn/T//ccU1gGxV.s:3123   .data.MAX_DIV:0000000000000000 MAX_DIV
/var/folders/hv/f19l0kw128sbpybv1h43gz3c0000gn/T//ccU1gGxV.s:3111   .bss.orientation:0000000000000000 orientation
/var/folders/hv/f19l0kw128sbpybv1h43gz3c0000gn/T//ccU1gGxV.s:3227   .rodata.font4x6:0000000000000000 font4x6
                            *COM*:0000000000000004 arrColor
/var/folders/hv/f19l0kw128sbpybv1h43gz3c0000gn/T//ccU1gGxV.s:3135   .data.colorBW:0000000000000000 colorBW
/var/folders/hv/f19l0kw128sbpybv1h43gz3c0000gn/T//ccU1gGxV.s:3176   .data.colorOriginal:0000000000000000 colorOriginal
/var/folders/hv/f19l0kw128sbpybv1h43gz3c0000gn/T//ccU1gGxV.s:3218   .data.maxColor:0000000000000000 maxColor
/var/folders/hv/f19l0kw128sbpybv1h43gz3c0000gn/T//ccU1gGxV.s:3105   .bss.minColor:0000000000000000 minColor
                            *COM*:0000000000000600 WS2812_IO_framedata
                            *COM*:0000000000000003 note
                            *COM*:0000000000000003 backColor
/var/folders/hv/f19l0kw128sbpybv1h43gz3c0000gn/T//ccU1gGxV.s:3099   .bss.MODE_TEXT:0000000000000000 $d
/var/folders/hv/f19l0kw128sbpybv1h43gz3c0000gn/T//ccU1gGxV.s:3101   .bss.minColor:0000000000000000 $d
/var/folders/hv/f19l0kw128sbpybv1h43gz3c0000gn/T//ccU1gGxV.s:3112   .bss.orientation:0000000000000000 $d
/var/folders/hv/f19l0kw128sbpybv1h43gz3c0000gn/T//ccU1gGxV.s:3114   .data.MAX_BRIGHT:0000000000000000 $d
/var/folders/hv/f19l0kw128sbpybv1h43gz3c0000gn/T//ccU1gGxV.s:3132   .data.colorBW:0000000000000000 $d
/var/folders/hv/f19l0kw128sbpybv1h43gz3c0000gn/T//ccU1gGxV.s:3173   .data.colorOriginal:0000000000000000 $d
/var/folders/hv/f19l0kw128sbpybv1h43gz3c0000gn/T//ccU1gGxV.s:3214   .data.maxColor:0000000000000000 $d
/var/folders/hv/f19l0kw128sbpybv1h43gz3c0000gn/T//ccU1gGxV.s:3223   .rodata.font4x6:0000000000000000 $d

UNDEFINED SYMBOLS
setColorFadeFB
setColorFB
WS2812_framedata_setPixel
setColor
__aeabi_i2d
__aeabi_dmul
__aeabi_f2d
__aeabi_dadd
__aeabi_d2f
__aeabi_dcmplt
strlen
getNoteBuffer
ARM GAS  /var/folders/hv/f19l0kw128sbpybv1h43gz3c0000gn/T//ccU1gGxV.s 			page 82


setTextColor
