ARM GAS  /var/folders/hv/f19l0kw128sbpybv1h43gz3c0000gn/T//cch93GUf.s 			page 1


   1              		.cpu cortex-m3
   2              		.eabi_attribute 20, 1
   3              		.eabi_attribute 21, 1
   4              		.eabi_attribute 23, 3
   5              		.eabi_attribute 24, 1
   6              		.eabi_attribute 25, 1
   7              		.eabi_attribute 26, 1
   8              		.eabi_attribute 30, 1
   9              		.eabi_attribute 34, 1
  10              		.eabi_attribute 18, 4
  11              		.file	"draw.c"
  12              		.text
  13              	.Ltext0:
  14              		.cfi_sections	.debug_frame
  15              		.section	.text.fillFramebuffer,"ax",%progbits
  16              		.align	1
  17              		.global	fillFramebuffer
  18              		.arch armv7-m
  19              		.syntax unified
  20              		.thumb
  21              		.thumb_func
  22              		.fpu softvfp
  24              	fillFramebuffer:
  25              	.LFB69:
  26              		.file 1 "Src/draw.c"
   1:Src/draw.c    **** #include "stdint.h"
   2:Src/draw.c    **** #include "string.h"
   3:Src/draw.c    **** #include "stm32f1xx_ll_utils.h"
   4:Src/draw.c    **** #include "definitions.h"
   5:Src/draw.c    **** #include "notes.h"
   6:Src/draw.c    **** #include "ws2812.h"
   7:Src/draw.c    **** #include "draw.h"
   8:Src/draw.c    **** 
   9:Src/draw.c    **** uint8_t currColor[3] = {60, 25, 0};
  10:Src/draw.c    **** uint8_t letterColor[3] = {0, 10, 0};
  11:Src/draw.c    **** 
  12:Src/draw.c    **** volatile uint8_t arr[3] = {0, 0, 0};
  13:Src/draw.c    **** /* uint8_t arrColor[13][3] = {
  14:Src/draw.c    ****     {50, 0, 0},   //red ~~
  15:Src/draw.c    ****     {50, 25, 0},  //orange ~~
  16:Src/draw.c    ****     {50, 50, 0},  //amarelo ~~
  17:Src/draw.c    ****     {50, 38, 0},  //castanho ~~
  18:Src/draw.c    ****     {0, 50, 36},  //azul turquesa ~~
  19:Src/draw.c    ****     {25, 0, 50},  //cor de rosa ~~
  20:Src/draw.c    ****     {50, 0, 25},  //rosa choque ~~
  21:Src/draw.c    ****     {50, 0, 50},  //violeta escuro ~~
  22:Src/draw.c    ****     {0, 0, 40},   //azul escuro
  23:Src/draw.c    ****     {30, 30, 30}, //cinzento
  24:Src/draw.c    ****     {60, 60, 20}, //branca
  25:Src/draw.c    ****     {60, 30, 20}, //red magenta
  26:Src/draw.c    ****     {0, 0, 0}}; */
  27:Src/draw.c    **** 
  28:Src/draw.c    **** /* uint8_t arrColor[13][3] = {
  29:Src/draw.c    ****     {123, 0, 0},    //red ~~
  30:Src/draw.c    ****     {123, 90, 0},   //orange ~~
  31:Src/draw.c    ****     {123, 123, 0},  //amarelo ~~
  32:Src/draw.c    ****     {123, 109, 0},  //castanho ~~
ARM GAS  /var/folders/hv/f19l0kw128sbpybv1h43gz3c0000gn/T//cch93GUf.s 			page 2


  33:Src/draw.c    ****     {0, 123, 106},  //azul turquesa ~~
  34:Src/draw.c    ****     {90, 0, 123},   //cor de rosa ~~
  35:Src/draw.c    ****     {123, 0, 90},   //rosa choque ~~
  36:Src/draw.c    ****     {123, 0, 123},  //violeta escuro ~~
  37:Src/draw.c    ****     {0, 0, 112},    //azul escuro
  38:Src/draw.c    ****     {98, 98, 98},   //cinzento
  39:Src/draw.c    ****     {133, 133, 82}, //branca
  40:Src/draw.c    ****     {133, 98, 82},  //red magenta
  41:Src/draw.c    ****     {0, 0, 0}}; */
  42:Src/draw.c    **** 
  43:Src/draw.c    **** /* uint8_t arrColor[13][3] = {
  44:Src/draw.c    ****     {51, 51, 51},    //red ~~
  45:Src/draw.c    ****     {62, 62, 62},    //orange ~~
  46:Src/draw.c    ****     {74, 74, 74},    //amarelo ~~
  47:Src/draw.c    ****     {85, 85, 85},    //castanho ~~
  48:Src/draw.c    ****     {96, 96, 96},    //azul turquesa ~~
  49:Src/draw.c    ****     {108, 108, 108}, //cor de rosa ~~
  50:Src/draw.c    ****     {119, 119, 119}, //rosa choque ~~
  51:Src/draw.c    ****     {130, 130, 130}, //violeta escuro ~~
  52:Src/draw.c    ****     {142, 142, 142}, //azul escuro
  53:Src/draw.c    ****     {153, 153, 153}, //cinzento
  54:Src/draw.c    ****     {164, 164, 164}, //branca
  55:Src/draw.c    ****     {176, 176, 176}, //red magenta
  56:Src/draw.c    ****     {0, 0, 0}}; */
  57:Src/draw.c    **** 
  58:Src/draw.c    **** uint8_t arrColor[13][3] = {
  59:Src/draw.c    ****     {78, 78, 78},    //red ~~
  60:Src/draw.c    ****     {116, 99, 94},   //orange ~~
  61:Src/draw.c    ****     {101, 105, 105}, //amarelo ~~
  62:Src/draw.c    ****     {72, 72, 36},    //castanho ~~
  63:Src/draw.c    ****     {39, 39, 39},    //azul turquesa ~~
  64:Src/draw.c    ****     {58, 49, 47},    //cor de rosa ~~
  65:Src/draw.c    ****     {50, 53, 53},    //rosa choque ~~
  66:Src/draw.c    ****     {36, 36, 18},    //violeta escuro ~~
  67:Src/draw.c    ****     {117, 117, 117}, //azul escuro
  68:Src/draw.c    ****     {174, 148, 141}, //cinzento
  69:Src/draw.c    ****     {151, 158, 158}, //branca
  70:Src/draw.c    ****     {108, 108, 54},  //red magenta
  71:Src/draw.c    ****     {0, 0, 0}};
  72:Src/draw.c    **** 
  73:Src/draw.c    **** const uint8_t font4x6[96][2] = {
  74:Src/draw.c    ****     {0x00, 0x00}, /*SPACE*/
  75:Src/draw.c    ****     {0x49, 0x08}, /*'!'*/
  76:Src/draw.c    ****     {0xb4, 0x00}, /*'"'*/
  77:Src/draw.c    ****     {0xbe, 0xf6}, /*'#'*/
  78:Src/draw.c    ****     {0x7b, 0x7a}, /*'$'*/
  79:Src/draw.c    ****     {0xa5, 0x94}, /*'%'*/
  80:Src/draw.c    ****     {0x55, 0xb8}, /*'&'*/
  81:Src/draw.c    ****     {0x48, 0x00}, /*'''*/
  82:Src/draw.c    ****     {0x29, 0x44}, /*'('*/
  83:Src/draw.c    ****     {0x44, 0x2a}, /*')'*/
  84:Src/draw.c    ****     {0x15, 0xa0}, /*'*'*/
  85:Src/draw.c    ****     {0x0b, 0x42}, /*'+'*/
  86:Src/draw.c    ****     {0x00, 0x50}, /*','*/
  87:Src/draw.c    ****     {0x03, 0x02}, /*'-'*/
  88:Src/draw.c    ****     {0x00, 0x08}, /*'.'*/
  89:Src/draw.c    ****     {0x25, 0x90}, /*'/'*/
ARM GAS  /var/folders/hv/f19l0kw128sbpybv1h43gz3c0000gn/T//cch93GUf.s 			page 3


  90:Src/draw.c    ****     {0x76, 0xba}, /*'0'*/
  91:Src/draw.c    ****     {0x59, 0x5c}, /*'1'*/
  92:Src/draw.c    ****     {0xc5, 0x9e}, /*'2'*/
  93:Src/draw.c    ****     {0xc5, 0x38}, /*'3'*/
  94:Src/draw.c    ****     {0x92, 0xe6}, /*'4'*/
  95:Src/draw.c    ****     {0xf3, 0x3a}, /*'5'*/
  96:Src/draw.c    ****     {0x73, 0xba}, /*'6'*/
  97:Src/draw.c    ****     {0xe5, 0x90}, /*'7'*/
  98:Src/draw.c    ****     {0x77, 0xba}, /*'8'*/
  99:Src/draw.c    ****     {0x77, 0x3a}, /*'9'*/
 100:Src/draw.c    ****     {0x08, 0x40}, /*':'*/
 101:Src/draw.c    ****     {0x08, 0x50}, /*';'*/
 102:Src/draw.c    ****     {0x2a, 0x44}, /*'<'*/
 103:Src/draw.c    ****     {0x1c, 0xe0}, /*'='*/
 104:Src/draw.c    ****     {0x88, 0x52}, /*'>'*/
 105:Src/draw.c    ****     {0xe5, 0x08}, /*'?'*/
 106:Src/draw.c    ****     {0x56, 0x8e}, /*'@'*/
 107:Src/draw.c    ****     {0x77, 0xb6}, /*'A'*/
 108:Src/draw.c    ****     {0x77, 0xb8}, /*'B'*/
 109:Src/draw.c    ****     {0x72, 0x8c}, /*'C'*/
 110:Src/draw.c    ****     {0xd6, 0xba}, /*'D'*/
 111:Src/draw.c    ****     {0x73, 0x9e}, /*'E'*/
 112:Src/draw.c    ****     {0x73, 0x92}, /*'F'*/
 113:Src/draw.c    ****     {0x72, 0xae}, /*'G'*/
 114:Src/draw.c    ****     {0xb7, 0xb6}, /*'H'*/
 115:Src/draw.c    ****     {0xe9, 0x5c}, /*'I'*/
 116:Src/draw.c    ****     {0x64, 0xaa}, /*'J'*/
 117:Src/draw.c    ****     {0xb7, 0xb4}, /*'K'*/
 118:Src/draw.c    ****     {0x92, 0x9c}, /*'L'*/
 119:Src/draw.c    ****     {0xbe, 0xb6}, /*'M'*/
 120:Src/draw.c    ****     {0xd6, 0xb6}, /*'N'*/
 121:Src/draw.c    ****     {0x56, 0xaa}, /*'O'*/
 122:Src/draw.c    ****     {0xd7, 0x92}, /*'P'*/
 123:Src/draw.c    ****     {0x76, 0xee}, /*'Q'*/
 124:Src/draw.c    ****     {0x77, 0xb4}, /*'R'*/
 125:Src/draw.c    ****     {0x71, 0x38}, /*'S'*/
 126:Src/draw.c    ****     {0xe9, 0x48}, /*'T'*/
 127:Src/draw.c    ****     {0xb6, 0xae}, /*'U'*/
 128:Src/draw.c    ****     {0xb6, 0xaa}, /*'V'*/
 129:Src/draw.c    ****     {0xb6, 0xf6}, /*'W'*/
 130:Src/draw.c    ****     {0xb5, 0xb4}, /*'X'*/
 131:Src/draw.c    ****     {0xb5, 0x48}, /*'Y'*/
 132:Src/draw.c    ****     {0xe5, 0x9c}, /*'Z'*/
 133:Src/draw.c    ****     {0x69, 0x4c}, /*'['*/
 134:Src/draw.c    ****     {0x91, 0x24}, /*'\'*/
 135:Src/draw.c    ****     {0x64, 0x2e}, /*']'*/
 136:Src/draw.c    ****     {0x54, 0x00}, /*'^'*/
 137:Src/draw.c    ****     {0x00, 0x1c}, /*'_'*/
 138:Src/draw.c    ****     {0x44, 0x00}, /*'`'*/
 139:Src/draw.c    ****     {0x0e, 0xae}, /*'a'*/
 140:Src/draw.c    ****     {0x9a, 0xba}, /*'b'*/
 141:Src/draw.c    ****     {0x0e, 0x8c}, /*'c'*/
 142:Src/draw.c    ****     {0x2e, 0xae}, /*'d'*/
 143:Src/draw.c    ****     {0x0e, 0xce}, /*'e'*/
 144:Src/draw.c    ****     {0x56, 0xd0}, /*'f'*/
 145:Src/draw.c    ****     {0x55, 0x3B}, /*'g'*/
 146:Src/draw.c    ****     {0x93, 0xb4}, /*'h'*/
ARM GAS  /var/folders/hv/f19l0kw128sbpybv1h43gz3c0000gn/T//cch93GUf.s 			page 4


 147:Src/draw.c    ****     {0x41, 0x44}, /*'i'*/
 148:Src/draw.c    ****     {0x41, 0x51}, /*'j'*/
 149:Src/draw.c    ****     {0x97, 0xb4}, /*'k'*/
 150:Src/draw.c    ****     {0x49, 0x44}, /*'l'*/
 151:Src/draw.c    ****     {0x17, 0xb6}, /*'m'*/
 152:Src/draw.c    ****     {0x1a, 0xb6}, /*'n'*/
 153:Src/draw.c    ****     {0x0a, 0xaa}, /*'o'*/
 154:Src/draw.c    ****     {0xd6, 0xd3}, /*'p'*/
 155:Src/draw.c    ****     {0x76, 0x67}, /*'q'*/
 156:Src/draw.c    ****     {0x17, 0x90}, /*'r'*/
 157:Src/draw.c    ****     {0x0f, 0x38}, /*'s'*/
 158:Src/draw.c    ****     {0x9a, 0x8c}, /*'t'*/
 159:Src/draw.c    ****     {0x16, 0xae}, /*'u'*/
 160:Src/draw.c    ****     {0x16, 0xba}, /*'v'*/
 161:Src/draw.c    ****     {0x16, 0xf6}, /*'w'*/
 162:Src/draw.c    ****     {0x15, 0xb4}, /*'x'*/
 163:Src/draw.c    ****     {0xb5, 0x2b}, /*'y'*/
 164:Src/draw.c    ****     {0x1c, 0x5e}, /*'z'*/
 165:Src/draw.c    ****     {0x6b, 0x4c}, /*'{'*/
 166:Src/draw.c    ****     {0x49, 0x48}, /*'|'*/
 167:Src/draw.c    ****     {0xc9, 0x5a}, /*'}'*/
 168:Src/draw.c    ****     {0x54, 0x00}, /*'~'*/
 169:Src/draw.c    ****     {0x56, 0xe2}  /*''*/
 170:Src/draw.c    **** };
 171:Src/draw.c    **** 
 172:Src/draw.c    **** uint8_t orientation = 0;
 173:Src/draw.c    **** uint8_t MAX_DIV = 3;
 174:Src/draw.c    **** float MAX_BRIGHT = 0.5;
 175:Src/draw.c    **** uint8_t MODE_BACK = 1;
 176:Src/draw.c    **** uint8_t MODE_TEXT = 1;
 177:Src/draw.c    **** callback_type callback_function;
 178:Src/draw.c    **** 
 179:Src/draw.c    **** static inline uint8_t callback(int8_t x, int8_t y, float layer)
 180:Src/draw.c    **** {
 181:Src/draw.c    ****   if (callback_function)
 182:Src/draw.c    ****   {
 183:Src/draw.c    ****     return (*callback_function)(x, y, layer);
 184:Src/draw.c    ****   }
 185:Src/draw.c    ****   return 0;
 186:Src/draw.c    **** }
 187:Src/draw.c    **** 
 188:Src/draw.c    **** void fillFramebuffer(void)
 189:Src/draw.c    **** {
  27              		.loc 1 189 1 view -0
  28              		.cfi_startproc
  29              		@ args = 0, pretend = 0, frame = 16
  30              		@ frame_needed = 0, uses_anonymous_args = 0
  31 0000 2DE9F04F 		push	{r4, r5, r6, r7, r8, r9, r10, fp, lr}
  32              	.LCFI0:
  33              		.cfi_def_cfa_offset 36
  34              		.cfi_offset 4, -36
  35              		.cfi_offset 5, -32
  36              		.cfi_offset 6, -28
  37              		.cfi_offset 7, -24
  38              		.cfi_offset 8, -20
  39              		.cfi_offset 9, -16
  40              		.cfi_offset 10, -12
ARM GAS  /var/folders/hv/f19l0kw128sbpybv1h43gz3c0000gn/T//cch93GUf.s 			page 5


  41              		.cfi_offset 11, -8
  42              		.cfi_offset 14, -4
  43 0004 87B0     		sub	sp, sp, #28
  44              	.LCFI1:
  45              		.cfi_def_cfa_offset 64
 190:Src/draw.c    ****   uint8_t mod, tempPoint[3], invI, invJ, invX, tmp;
  46              		.loc 1 190 3 view .LVU1
 191:Src/draw.c    ****   uint16_t coords;
  47              		.loc 1 191 3 view .LVU2
 192:Src/draw.c    **** #if REVERSE_ORIENTATION
 193:Src/draw.c    ****   for (uint8_t x = 0; x < NCOLS; x++)
 194:Src/draw.c    ****   {
 195:Src/draw.c    ****     for (uint8_t i = 0; i < NCHANNELS; i++)
 196:Src/draw.c    ****     {
 197:Src/draw.c    ****       for (uint8_t j = 0; j < NLINESCH; j++)
 198:Src/draw.c    ****       {
 199:Src/draw.c    ****         mod = j % 2;
 200:Src/draw.c    ****         if ((j + (i * NLINESCH)) > NCOLSL)
 201:Src/draw.c    ****           break;
 202:Src/draw.c    ****         coords = j + (i * NLINESCH) + (x * NCOLS);
 203:Src/draw.c    **** 
 204:Src/draw.c    **** #if MIRROR_X
 205:Src/draw.c    ****         invX = mod ? NCOLSL - x : x;
 206:Src/draw.c    **** #if MIRROR_Y
 207:Src/draw.c    ****         invI = i;
 208:Src/draw.c    ****         invJ = j;
 209:Src/draw.c    **** #else
 210:Src/draw.c    ****         invI = NCHANNELS - 1 - i;
 211:Src/draw.c    ****         invJ = NLINESCH - 1 - j;
 212:Src/draw.c    **** #endif
 213:Src/draw.c    **** #else
 214:Src/draw.c    ****         invX = mod ? x : NCOLSL - x;
 215:Src/draw.c    **** #if MIRROR_Y
 216:Src/draw.c    ****         invI = NCHANNELS - 1 - i;
 217:Src/draw.c    ****         invJ = NLINESCH - 1 - j;
 218:Src/draw.c    **** #else
 219:Src/draw.c    ****         invI = i;
 220:Src/draw.c    ****         invJ = j;
 221:Src/draw.c    **** #endif
 222:Src/draw.c    **** #endif
 223:Src/draw.c    **** #else
 224:Src/draw.c    ****   for (uint8_t i = 0; i < NCHANNELS; i++)
  48              		.loc 1 224 3 view .LVU3
  49              	.LBB17:
  50              		.loc 1 224 8 view .LVU4
  51              	.LVL0:
  52              		.loc 1 224 16 is_stmt 0 view .LVU5
  53 0006 0026     		movs	r6, #0
  54              		.loc 1 224 3 view .LVU6
  55 0008 50E0     		b	.L2
  56              	.LVL1:
  57              	.L11:
  58              	.LBB18:
  59              	.LBB19:
 225:Src/draw.c    ****   {
 226:Src/draw.c    ****     for (uint8_t j = 0; j < NLINESCH; j++)
 227:Src/draw.c    ****     {
ARM GAS  /var/folders/hv/f19l0kw128sbpybv1h43gz3c0000gn/T//cch93GUf.s 			page 6


 228:Src/draw.c    ****       mod = j % 2;
 229:Src/draw.c    ****       for (uint8_t x = 0; x < NCOLS; x++)
 230:Src/draw.c    ****       {
 231:Src/draw.c    ****         if ((x + (j * NCOLS) + (i * NLEDSCH)) > NLEDSL)
 232:Src/draw.c    ****           break;
 233:Src/draw.c    ****         coords = x + (j * NCOLS) + (i * NLEDSCH);
 234:Src/draw.c    **** 
 235:Src/draw.c    **** #if MIRROR_X
 236:Src/draw.c    ****         invX = mod ? x : NCOLSL - x;
  60              		.loc 1 236 14 view .LVU7
  61 000a 2546     		mov	r5, r4
  62 000c 2BE0     		b	.L5
  63              	.LVL2:
  64              	.L6:
 237:Src/draw.c    **** #else
 238:Src/draw.c    ****         invX = mod ? NCOLSL - x : x;
 239:Src/draw.c    **** #endif
 240:Src/draw.c    **** #if MIRROR_Y
 241:Src/draw.c    ****         invI = NCHANNELS - 1 - i;
 242:Src/draw.c    ****         invJ = NLINESCH - 1 - j;
 243:Src/draw.c    **** #else
 244:Src/draw.c    ****         invI = i;
 245:Src/draw.c    ****         invJ = j;
 246:Src/draw.c    **** #endif
 247:Src/draw.c    **** #endif
 248:Src/draw.c    **** #if COLOR_1BIT
 249:Src/draw.c    ****         tmp = BIT_CHECK(textLayer[DIV_8(coords)], REST_8(coords));
 250:Src/draw.c    ****         if (tmp)
 251:Src/draw.c    ****           setColorFB(tempPoint, textColor);
 252:Src/draw.c    **** #else
 253:Src/draw.c    ****         tmp = textLayer[coords][0] + textLayer[coords][1] + textLayer[coords][2];
 254:Src/draw.c    ****         if (tmp)
 255:Src/draw.c    ****           setColorFB(tempPoint, textLayer[coords]);
 256:Src/draw.c    **** #endif
 257:Src/draw.c    ****         else
 258:Src/draw.c    ****           setColorFB(tempPoint, backLayer[coords]);
  65              		.loc 1 258 11 is_stmt 1 view .LVU8
  66              		.loc 1 258 42 is_stmt 0 view .LVU9
  67 000e 01EB4101 		add	r1, r1, r1, lsl #1
  68              	.LVL3:
  69              		.loc 1 258 11 view .LVU10
  70 0012 2A4B     		ldr	r3, .L16
  71 0014 1944     		add	r1, r1, r3
  72 0016 05A8     		add	r0, sp, #20
  73 0018 FFF7FEFF 		bl	setColorFB
  74              	.LVL4:
  75              	.L7:
 259:Src/draw.c    **** 
 260:Src/draw.c    ****         WS2812_framedata_setPixel(invI, invX + (invJ * NCOLS), tempPoint[0], tempPoint[1], tempPoin
  76              		.loc 1 260 9 is_stmt 1 discriminator 2 view .LVU11
  77 001c 05EB0711 		add	r1, r5, r7, lsl #4
  78 0020 9DF81630 		ldrb	r3, [sp, #22]	@ zero_extendqisi2
  79 0024 0093     		str	r3, [sp]
  80 0026 9DF81530 		ldrb	r3, [sp, #21]	@ zero_extendqisi2
  81 002a 9DF81420 		ldrb	r2, [sp, #20]	@ zero_extendqisi2
  82 002e 89B2     		uxth	r1, r1
  83 0030 3046     		mov	r0, r6
ARM GAS  /var/folders/hv/f19l0kw128sbpybv1h43gz3c0000gn/T//cch93GUf.s 			page 7


  84 0032 FFF7FEFF 		bl	WS2812_framedata_setPixel
  85              	.LVL5:
 229:Src/draw.c    ****       {
  86              		.loc 1 229 39 is_stmt 0 discriminator 2 view .LVU12
  87 0036 0134     		adds	r4, r4, #1
  88              	.LVL6:
 229:Src/draw.c    ****       {
  89              		.loc 1 229 39 discriminator 2 view .LVU13
  90 0038 E4B2     		uxtb	r4, r4
  91              	.LVL7:
  92              	.L3:
 229:Src/draw.c    ****       {
  93              		.loc 1 229 7 discriminator 1 view .LVU14
  94 003a 0F2C     		cmp	r4, #15
  95 003c 29D8     		bhi	.L4
 231:Src/draw.c    ****           break;
  96              		.loc 1 231 9 is_stmt 1 view .LVU15
 231:Src/draw.c    ****           break;
  97              		.loc 1 231 16 is_stmt 0 view .LVU16
  98 003e 04EB0A13 		add	r3, r4, r10, lsl #4
 231:Src/draw.c    ****           break;
  99              		.loc 1 231 30 view .LVU17
 100 0042 03EB4613 		add	r3, r3, r6, lsl #5
 231:Src/draw.c    ****           break;
 101              		.loc 1 231 12 view .LVU18
 102 0046 FF2B     		cmp	r3, #255
 103 0048 23DC     		bgt	.L4
 233:Src/draw.c    **** 
 104              		.loc 1 233 9 is_stmt 1 view .LVU19
 233:Src/draw.c    **** 
 105              		.loc 1 233 34 is_stmt 0 view .LVU20
 106 004a 1FFA8AF7 		uxth	r7, r10
 107 004e 07EB4601 		add	r1, r7, r6, lsl #1
 108 0052 0901     		lsls	r1, r1, #4
 109 0054 89B2     		uxth	r1, r1
 233:Src/draw.c    **** 
 110              		.loc 1 233 16 view .LVU21
 111 0056 2144     		add	r1, r1, r4
 112 0058 89B2     		uxth	r1, r1
 113              	.LVL8:
 236:Src/draw.c    **** #else
 114              		.loc 1 236 9 is_stmt 1 view .LVU22
 236:Src/draw.c    **** #else
 115              		.loc 1 236 14 is_stmt 0 view .LVU23
 116 005a BBF1000F 		cmp	fp, #0
 117 005e D4D1     		bne	.L11
 236:Src/draw.c    **** #else
 118              		.loc 1 236 14 discriminator 1 view .LVU24
 119 0060 C4F10F05 		rsb	r5, r4, #15
 120 0064 EDB2     		uxtb	r5, r5
 121              	.L5:
 122              	.LVL9:
 244:Src/draw.c    ****         invJ = j;
 123              		.loc 1 244 9 is_stmt 1 discriminator 4 view .LVU25
 245:Src/draw.c    **** #endif
 124              		.loc 1 245 9 discriminator 4 view .LVU26
 249:Src/draw.c    ****         if (tmp)
ARM GAS  /var/folders/hv/f19l0kw128sbpybv1h43gz3c0000gn/T//cch93GUf.s 			page 8


 125              		.loc 1 249 9 discriminator 4 view .LVU27
 249:Src/draw.c    ****         if (tmp)
 126              		.loc 1 249 15 is_stmt 0 discriminator 4 view .LVU28
 127 0066 CB08     		lsrs	r3, r1, #3
 128 0068 154A     		ldr	r2, .L16+4
 129 006a D25C     		ldrb	r2, [r2, r3]	@ zero_extendqisi2
 130 006c 0023     		movs	r3, #0
 131 006e CDE90223 		strd	r2, [sp, #8]
 132 0072 01F00703 		and	r3, r1, #7
 133 0076 029A     		ldr	r2, [sp, #8]
 134 0078 DA40     		lsrs	r2, r2, r3
 135 007a 02F00108 		and	r8, r2, #1
 136 007e 4FF00009 		mov	r9, #0
 137              	.LVL10:
 250:Src/draw.c    ****           setColorFB(tempPoint, textColor);
 138              		.loc 1 250 9 is_stmt 1 discriminator 4 view .LVU29
 250:Src/draw.c    ****           setColorFB(tempPoint, textColor);
 139              		.loc 1 250 12 is_stmt 0 discriminator 4 view .LVU30
 140 0082 58EA0903 		orrs	r3, r8, r9
 141 0086 C2D0     		beq	.L6
 251:Src/draw.c    **** #else
 142              		.loc 1 251 11 is_stmt 1 view .LVU31
 143 0088 0E49     		ldr	r1, .L16+8
 144              	.LVL11:
 251:Src/draw.c    **** #else
 145              		.loc 1 251 11 is_stmt 0 view .LVU32
 146 008a 05A8     		add	r0, sp, #20
 147 008c FFF7FEFF 		bl	setColorFB
 148              	.LVL12:
 149 0090 C4E7     		b	.L7
 150              	.LVL13:
 151              	.L4:
 251:Src/draw.c    **** #else
 152              		.loc 1 251 11 view .LVU33
 153              	.LBE19:
 226:Src/draw.c    ****     {
 154              		.loc 1 226 40 discriminator 2 view .LVU34
 155 0092 0AF1010A 		add	r10, r10, #1
 156              	.LVL14:
 226:Src/draw.c    ****     {
 157              		.loc 1 226 40 discriminator 2 view .LVU35
 158 0096 5FFA8AFA 		uxtb	r10, r10
 159              	.LVL15:
 160              	.L10:
 226:Src/draw.c    ****     {
 161              		.loc 1 226 5 discriminator 1 view .LVU36
 162 009a BAF1010F 		cmp	r10, #1
 163 009e 03D8     		bhi	.L14
 228:Src/draw.c    ****       for (uint8_t x = 0; x < NCOLS; x++)
 164              		.loc 1 228 7 is_stmt 1 view .LVU37
 228:Src/draw.c    ****       for (uint8_t x = 0; x < NCOLS; x++)
 165              		.loc 1 228 11 is_stmt 0 view .LVU38
 166 00a0 0AF0010B 		and	fp, r10, #1
 167              	.LVL16:
 229:Src/draw.c    ****       {
 168              		.loc 1 229 7 is_stmt 1 view .LVU39
 169              	.LBB20:
ARM GAS  /var/folders/hv/f19l0kw128sbpybv1h43gz3c0000gn/T//cch93GUf.s 			page 9


 229:Src/draw.c    ****       {
 170              		.loc 1 229 12 view .LVU40
 229:Src/draw.c    ****       {
 171              		.loc 1 229 20 is_stmt 0 view .LVU41
 172 00a4 0024     		movs	r4, #0
 229:Src/draw.c    ****       {
 173              		.loc 1 229 7 view .LVU42
 174 00a6 C8E7     		b	.L3
 175              	.LVL17:
 176              	.L14:
 229:Src/draw.c    ****       {
 177              		.loc 1 229 7 view .LVU43
 178              	.LBE20:
 179              	.LBE18:
 224:Src/draw.c    ****   {
 180              		.loc 1 224 39 discriminator 2 view .LVU44
 181 00a8 0136     		adds	r6, r6, #1
 182              	.LVL18:
 224:Src/draw.c    ****   {
 183              		.loc 1 224 39 discriminator 2 view .LVU45
 184 00aa F6B2     		uxtb	r6, r6
 185              	.LVL19:
 186              	.L2:
 224:Src/draw.c    ****   {
 187              		.loc 1 224 3 discriminator 1 view .LVU46
 188 00ac 072E     		cmp	r6, #7
 189 00ae 02D8     		bhi	.L15
 190              	.LBB21:
 226:Src/draw.c    ****     {
 191              		.loc 1 226 18 view .LVU47
 192 00b0 4FF0000A 		mov	r10, #0
 193 00b4 F1E7     		b	.L10
 194              	.L15:
 195              	.LBE21:
 196              	.LBE17:
 261:Src/draw.c    ****       }
 262:Src/draw.c    ****     }
 263:Src/draw.c    ****   }
 264:Src/draw.c    **** }
 197              		.loc 1 264 1 view .LVU48
 198 00b6 07B0     		add	sp, sp, #28
 199              	.LCFI2:
 200              		.cfi_def_cfa_offset 36
 201              		@ sp needed
 202 00b8 BDE8F08F 		pop	{r4, r5, r6, r7, r8, r9, r10, fp, pc}
 203              	.LVL20:
 204              	.L17:
 205              		.loc 1 264 1 view .LVU49
 206              		.align	2
 207              	.L16:
 208 00bc 00000000 		.word	backLayer
 209 00c0 00000000 		.word	textLayer
 210 00c4 00000000 		.word	textColor
 211              		.cfi_endproc
 212              	.LFE69:
 214              		.section	.text.clearBack,"ax",%progbits
 215              		.align	1
ARM GAS  /var/folders/hv/f19l0kw128sbpybv1h43gz3c0000gn/T//cch93GUf.s 			page 10


 216              		.global	clearBack
 217              		.syntax unified
 218              		.thumb
 219              		.thumb_func
 220              		.fpu softvfp
 222              	clearBack:
 223              	.LFB70:
 265:Src/draw.c    **** 
 266:Src/draw.c    **** void clearBack(void)
 267:Src/draw.c    **** {
 224              		.loc 1 267 1 is_stmt 1 view -0
 225              		.cfi_startproc
 226              		@ args = 0, pretend = 0, frame = 0
 227              		@ frame_needed = 0, uses_anonymous_args = 0
 228 0000 38B5     		push	{r3, r4, r5, lr}
 229              	.LCFI3:
 230              		.cfi_def_cfa_offset 16
 231              		.cfi_offset 3, -16
 232              		.cfi_offset 4, -12
 233              		.cfi_offset 5, -8
 234              		.cfi_offset 14, -4
 268:Src/draw.c    ****   for (uint8_t y = 0; y < NCOLS; y++)
 235              		.loc 1 268 3 view .LVU51
 236              	.LBB22:
 237              		.loc 1 268 8 view .LVU52
 238              	.LVL21:
 239              		.loc 1 268 16 is_stmt 0 view .LVU53
 240 0002 0025     		movs	r5, #0
 241              		.loc 1 268 3 view .LVU54
 242 0004 01E0     		b	.L19
 243              	.LVL22:
 244              	.L25:
 245              		.loc 1 268 35 discriminator 2 view .LVU55
 246 0006 0135     		adds	r5, r5, #1
 247              	.LVL23:
 248              		.loc 1 268 35 discriminator 2 view .LVU56
 249 0008 EDB2     		uxtb	r5, r5
 250              	.LVL24:
 251              	.L19:
 252              		.loc 1 268 3 discriminator 1 view .LVU57
 253 000a 0F2D     		cmp	r5, #15
 254 000c 0ED8     		bhi	.L24
 255              	.LBB23:
 269:Src/draw.c    ****   {
 270:Src/draw.c    ****     for (uint8_t x = 0; x < NCOLS; x++)
 256              		.loc 1 270 18 view .LVU58
 257 000e 0024     		movs	r4, #0
 258              	.L21:
 259              	.LVL25:
 260              		.loc 1 270 5 discriminator 1 view .LVU59
 261 0010 0F2C     		cmp	r4, #15
 262 0012 F8D8     		bhi	.L25
 271:Src/draw.c    ****     {
 272:Src/draw.c    ****       setColor(backLayer[x + (y * NCOLS)], arrColor[12]);
 263              		.loc 1 272 7 is_stmt 1 discriminator 3 view .LVU60
 264              		.loc 1 272 28 is_stmt 0 discriminator 3 view .LVU61
 265 0014 04EB0510 		add	r0, r4, r5, lsl #4
ARM GAS  /var/folders/hv/f19l0kw128sbpybv1h43gz3c0000gn/T//cch93GUf.s 			page 11


 266              		.loc 1 272 25 discriminator 3 view .LVU62
 267 0018 00EB4000 		add	r0, r0, r0, lsl #1
 268              		.loc 1 272 7 discriminator 3 view .LVU63
 269 001c 0449     		ldr	r1, .L26
 270 001e 054B     		ldr	r3, .L26+4
 271 0020 1844     		add	r0, r0, r3
 272 0022 FFF7FEFF 		bl	setColor
 273              	.LVL26:
 270:Src/draw.c    ****     {
 274              		.loc 1 270 37 discriminator 3 view .LVU64
 275 0026 0134     		adds	r4, r4, #1
 276              	.LVL27:
 270:Src/draw.c    ****     {
 277              		.loc 1 270 37 discriminator 3 view .LVU65
 278 0028 E4B2     		uxtb	r4, r4
 279              	.LVL28:
 270:Src/draw.c    ****     {
 280              		.loc 1 270 37 discriminator 3 view .LVU66
 281 002a F1E7     		b	.L21
 282              	.LVL29:
 283              	.L24:
 270:Src/draw.c    ****     {
 284              		.loc 1 270 37 discriminator 3 view .LVU67
 285              	.LBE23:
 286              	.LBE22:
 273:Src/draw.c    ****     }
 274:Src/draw.c    ****   }
 275:Src/draw.c    **** }
 287              		.loc 1 275 1 view .LVU68
 288 002c 38BD     		pop	{r3, r4, r5, pc}
 289              	.LVL30:
 290              	.L27:
 291              		.loc 1 275 1 view .LVU69
 292 002e 00BF     		.align	2
 293              	.L26:
 294 0030 24000000 		.word	.LANCHOR0+36
 295 0034 00000000 		.word	backLayer
 296              		.cfi_endproc
 297              	.LFE70:
 299              		.section	.text.clearText,"ax",%progbits
 300              		.align	1
 301              		.global	clearText
 302              		.syntax unified
 303              		.thumb
 304              		.thumb_func
 305              		.fpu softvfp
 307              	clearText:
 308              	.LFB71:
 276:Src/draw.c    **** 
 277:Src/draw.c    **** void clearText(void)
 278:Src/draw.c    **** {
 309              		.loc 1 278 1 is_stmt 1 view -0
 310              		.cfi_startproc
 311              		@ args = 0, pretend = 0, frame = 0
 312              		@ frame_needed = 0, uses_anonymous_args = 0
 313              		@ link register save eliminated.
 279:Src/draw.c    **** #if COLOR_1BIT
ARM GAS  /var/folders/hv/f19l0kw128sbpybv1h43gz3c0000gn/T//cch93GUf.s 			page 12


 280:Src/draw.c    ****   for (uint8_t i = 0; i < NLEDSBIT; i++)
 314              		.loc 1 280 3 view .LVU71
 315              	.LBB24:
 316              		.loc 1 280 8 view .LVU72
 317              	.LVL31:
 318              		.loc 1 280 16 is_stmt 0 view .LVU73
 319 0000 0023     		movs	r3, #0
 320              	.LVL32:
 321              	.L29:
 322              		.loc 1 280 3 discriminator 1 view .LVU74
 323 0002 1F2B     		cmp	r3, #31
 324 0004 05D8     		bhi	.L31
 281:Src/draw.c    ****   {
 282:Src/draw.c    ****     textLayer[i] = 0;
 325              		.loc 1 282 5 is_stmt 1 discriminator 3 view .LVU75
 326              		.loc 1 282 18 is_stmt 0 discriminator 3 view .LVU76
 327 0006 034A     		ldr	r2, .L32
 328 0008 0021     		movs	r1, #0
 329 000a D154     		strb	r1, [r2, r3]
 280:Src/draw.c    ****   {
 330              		.loc 1 280 38 discriminator 3 view .LVU77
 331 000c 0133     		adds	r3, r3, #1
 332              	.LVL33:
 280:Src/draw.c    ****   {
 333              		.loc 1 280 38 discriminator 3 view .LVU78
 334 000e DBB2     		uxtb	r3, r3
 335              	.LVL34:
 280:Src/draw.c    ****   {
 336              		.loc 1 280 38 discriminator 3 view .LVU79
 337 0010 F7E7     		b	.L29
 338              	.L31:
 280:Src/draw.c    ****   {
 339              		.loc 1 280 38 discriminator 3 view .LVU80
 340              	.LBE24:
 283:Src/draw.c    ****   }
 284:Src/draw.c    **** #else
 285:Src/draw.c    ****   for (uint8_t y = 0; y < NCOLS; y++)
 286:Src/draw.c    ****   {
 287:Src/draw.c    ****     for (uint8_t x = 0; x < NCOLS; x++)
 288:Src/draw.c    ****     {
 289:Src/draw.c    ****       setColor(textLayer[x + (y * NCOLS)], arrColor[12]);
 290:Src/draw.c    ****     }
 291:Src/draw.c    ****   }
 292:Src/draw.c    **** #endif
 293:Src/draw.c    **** }
 341              		.loc 1 293 1 view .LVU81
 342 0012 7047     		bx	lr
 343              	.L33:
 344              		.align	2
 345              	.L32:
 346 0014 00000000 		.word	textLayer
 347              		.cfi_endproc
 348              	.LFE71:
 350              		.section	.text.clearFramebuffer,"ax",%progbits
 351              		.align	1
 352              		.global	clearFramebuffer
 353              		.syntax unified
ARM GAS  /var/folders/hv/f19l0kw128sbpybv1h43gz3c0000gn/T//cch93GUf.s 			page 13


 354              		.thumb
 355              		.thumb_func
 356              		.fpu softvfp
 358              	clearFramebuffer:
 359              	.LFB72:
 294:Src/draw.c    **** 
 295:Src/draw.c    **** void clearFramebuffer(void)
 296:Src/draw.c    **** {
 360              		.loc 1 296 1 is_stmt 1 view -0
 361              		.cfi_startproc
 362              		@ args = 0, pretend = 0, frame = 0
 363              		@ frame_needed = 0, uses_anonymous_args = 0
 364 0000 70B5     		push	{r4, r5, r6, lr}
 365              	.LCFI4:
 366              		.cfi_def_cfa_offset 16
 367              		.cfi_offset 4, -16
 368              		.cfi_offset 5, -12
 369              		.cfi_offset 6, -8
 370              		.cfi_offset 14, -4
 371 0002 82B0     		sub	sp, sp, #8
 372              	.LCFI5:
 373              		.cfi_def_cfa_offset 24
 297:Src/draw.c    ****   for (uint8_t i = 0; i < NCHANNELS; i++)
 374              		.loc 1 297 3 view .LVU83
 375              	.LBB25:
 376              		.loc 1 297 8 view .LVU84
 377              	.LVL35:
 378              		.loc 1 297 16 is_stmt 0 view .LVU85
 379 0004 0026     		movs	r6, #0
 380              		.loc 1 297 3 view .LVU86
 381 0006 1FE0     		b	.L35
 382              	.LVL36:
 383              	.L36:
 384              	.LBB26:
 298:Src/draw.c    ****   {
 299:Src/draw.c    ****     for (uint8_t j = 0; j < NLINESCH; j++)
 385              		.loc 1 299 40 discriminator 2 view .LVU87
 386 0008 0135     		adds	r5, r5, #1
 387              	.LVL37:
 388              		.loc 1 299 40 discriminator 2 view .LVU88
 389 000a EDB2     		uxtb	r5, r5
 390              	.LVL38:
 391              	.L39:
 392              		.loc 1 299 5 discriminator 1 view .LVU89
 393 000c 012D     		cmp	r5, #1
 394 000e 19D8     		bhi	.L43
 395              	.LBB27:
 300:Src/draw.c    ****     {
 301:Src/draw.c    ****       for (uint16_t x = 0; x < NCOLS; x++)
 396              		.loc 1 301 21 view .LVU90
 397 0010 0024     		movs	r4, #0
 398              	.L38:
 399              	.LVL39:
 400              		.loc 1 301 7 discriminator 1 view .LVU91
 401 0012 0F2C     		cmp	r4, #15
 402 0014 F8D8     		bhi	.L36
 302:Src/draw.c    ****       {
ARM GAS  /var/folders/hv/f19l0kw128sbpybv1h43gz3c0000gn/T//cch93GUf.s 			page 14


 303:Src/draw.c    ****         if ((x + (j * NCOLS) + (i * NLEDSCH)) > NLEDSL)
 403              		.loc 1 303 9 is_stmt 1 view .LVU92
 404              		.loc 1 303 16 is_stmt 0 view .LVU93
 405 0016 04EB0513 		add	r3, r4, r5, lsl #4
 406              		.loc 1 303 30 view .LVU94
 407 001a 03EB4613 		add	r3, r3, r6, lsl #5
 408              		.loc 1 303 12 view .LVU95
 409 001e FF2B     		cmp	r3, #255
 410 0020 F2DC     		bgt	.L36
 304:Src/draw.c    ****           break;
 305:Src/draw.c    ****         WS2812_framedata_setPixel(i, x + (j * NCOLS), arrColor[12][0], arrColor[12][1], arrColor[12
 411              		.loc 1 305 9 is_stmt 1 discriminator 2 view .LVU96
 412 0022 0C4A     		ldr	r2, .L45
 413 0024 04EB0511 		add	r1, r4, r5, lsl #4
 414 0028 92F82630 		ldrb	r3, [r2, #38]	@ zero_extendqisi2
 415 002c 0093     		str	r3, [sp]
 416 002e 92F82530 		ldrb	r3, [r2, #37]	@ zero_extendqisi2
 417 0032 92F82420 		ldrb	r2, [r2, #36]	@ zero_extendqisi2
 418 0036 89B2     		uxth	r1, r1
 419 0038 3046     		mov	r0, r6
 420 003a FFF7FEFF 		bl	WS2812_framedata_setPixel
 421              	.LVL40:
 301:Src/draw.c    ****       {
 422              		.loc 1 301 40 is_stmt 0 discriminator 2 view .LVU97
 423 003e 0134     		adds	r4, r4, #1
 424              	.LVL41:
 301:Src/draw.c    ****       {
 425              		.loc 1 301 40 discriminator 2 view .LVU98
 426 0040 A4B2     		uxth	r4, r4
 427              	.LVL42:
 301:Src/draw.c    ****       {
 428              		.loc 1 301 40 discriminator 2 view .LVU99
 429 0042 E6E7     		b	.L38
 430              	.LVL43:
 431              	.L43:
 301:Src/draw.c    ****       {
 432              		.loc 1 301 40 discriminator 2 view .LVU100
 433              	.LBE27:
 434              	.LBE26:
 297:Src/draw.c    ****   {
 435              		.loc 1 297 39 discriminator 2 view .LVU101
 436 0044 0136     		adds	r6, r6, #1
 437              	.LVL44:
 297:Src/draw.c    ****   {
 438              		.loc 1 297 39 discriminator 2 view .LVU102
 439 0046 F6B2     		uxtb	r6, r6
 440              	.LVL45:
 441              	.L35:
 297:Src/draw.c    ****   {
 442              		.loc 1 297 3 discriminator 1 view .LVU103
 443 0048 072E     		cmp	r6, #7
 444 004a 01D8     		bhi	.L44
 445              	.LBB28:
 299:Src/draw.c    ****     {
 446              		.loc 1 299 18 view .LVU104
 447 004c 0025     		movs	r5, #0
 448 004e DDE7     		b	.L39
ARM GAS  /var/folders/hv/f19l0kw128sbpybv1h43gz3c0000gn/T//cch93GUf.s 			page 15


 449              	.L44:
 450              	.LBE28:
 451              	.LBE25:
 306:Src/draw.c    ****       }
 307:Src/draw.c    ****     }
 308:Src/draw.c    ****   }
 309:Src/draw.c    **** }
 452              		.loc 1 309 1 view .LVU105
 453 0050 02B0     		add	sp, sp, #8
 454              	.LCFI6:
 455              		.cfi_def_cfa_offset 16
 456              		@ sp needed
 457 0052 70BD     		pop	{r4, r5, r6, pc}
 458              	.LVL46:
 459              	.L46:
 460              		.loc 1 309 1 view .LVU106
 461              		.align	2
 462              	.L45:
 463 0054 00000000 		.word	.LANCHOR0
 464              		.cfi_endproc
 465              	.LFE72:
 467              		.global	__aeabi_i2f
 468              		.global	__aeabi_fdiv
 469              		.section	.text.drawShapeNote,"ax",%progbits
 470              		.align	1
 471              		.global	drawShapeNote
 472              		.syntax unified
 473              		.thumb
 474              		.thumb_func
 475              		.fpu softvfp
 477              	drawShapeNote:
 478              	.LFB73:
 310:Src/draw.c    **** 
 311:Src/draw.c    **** // void move(int8_t newX, int8_t newY)
 312:Src/draw.c    **** // {
 313:Src/draw.c    **** //   uint8_t tempVector[NLEDS][3];
 314:Src/draw.c    **** //   uint8_t tempX, tempY;
 315:Src/draw.c    **** //   for (int y = 0; y < NCOLS; y++)
 316:Src/draw.c    **** //   {
 317:Src/draw.c    **** //     for (int x = 0; x < NCOLS; x++)
 318:Src/draw.c    **** //     {
 319:Src/draw.c    **** //       for (int z = 0; z < 3; z++)
 320:Src/draw.c    **** //       {
 321:Src/draw.c    **** //         tempVector[x + (y * NCOLS)][z] = backLayer[x + (y * NCOLS)][z];
 322:Src/draw.c    **** //       }
 323:Src/draw.c    **** //     }
 324:Src/draw.c    **** //   }
 325:Src/draw.c    **** 
 326:Src/draw.c    **** //   for (int y = 0; y < NCOLS; y++)
 327:Src/draw.c    **** //   {
 328:Src/draw.c    **** //     if ((y - newY) < 0)
 329:Src/draw.c    **** //     {
 330:Src/draw.c    **** //       tempY = NCOLS - (-y + newY);
 331:Src/draw.c    **** //     }
 332:Src/draw.c    **** //     else if ((y - newY) >= NCOLS)
 333:Src/draw.c    **** //     {
 334:Src/draw.c    **** //       tempY = (y - newY) - NCOLS;
ARM GAS  /var/folders/hv/f19l0kw128sbpybv1h43gz3c0000gn/T//cch93GUf.s 			page 16


 335:Src/draw.c    **** //     }
 336:Src/draw.c    **** //     else
 337:Src/draw.c    **** //       tempY = y - newY;
 338:Src/draw.c    **** 
 339:Src/draw.c    **** //     for (int x = 0; x < NCOLS; x++)
 340:Src/draw.c    **** //     {
 341:Src/draw.c    **** //       if ((x - newX) < 0)
 342:Src/draw.c    **** //       {
 343:Src/draw.c    **** //         tempX = NCOLS - (-x + newX);
 344:Src/draw.c    **** //       }
 345:Src/draw.c    **** //       else if ((x - newX) >= NCOLS)
 346:Src/draw.c    **** //       {
 347:Src/draw.c    **** //         tempX = (x - newX) - NCOLS;
 348:Src/draw.c    **** //       }
 349:Src/draw.c    **** //       else
 350:Src/draw.c    **** //         tempX = x - newX;
 351:Src/draw.c    **** 
 352:Src/draw.c    **** //       for (int z = 0; z < 3; z++)
 353:Src/draw.c    **** //       {
 354:Src/draw.c    **** //         backLayer[x + (y * NCOLS)][z] = tempVector[tempX + (tempY * NCOLS)][z];
 355:Src/draw.c    **** //       }
 356:Src/draw.c    **** //     }
 357:Src/draw.c    **** //   }
 358:Src/draw.c    **** // }
 359:Src/draw.c    **** 
 360:Src/draw.c    **** void drawShapeNote()
 361:Src/draw.c    **** {
 479              		.loc 1 361 1 is_stmt 1 view -0
 480              		.cfi_startproc
 481              		@ args = 0, pretend = 0, frame = 0
 482              		@ frame_needed = 0, uses_anonymous_args = 0
 483 0000 2DE9F84F 		push	{r3, r4, r5, r6, r7, r8, r9, r10, fp, lr}
 484              	.LCFI7:
 485              		.cfi_def_cfa_offset 40
 486              		.cfi_offset 3, -40
 487              		.cfi_offset 4, -36
 488              		.cfi_offset 5, -32
 489              		.cfi_offset 6, -28
 490              		.cfi_offset 7, -24
 491              		.cfi_offset 8, -20
 492              		.cfi_offset 9, -16
 493              		.cfi_offset 10, -12
 494              		.cfi_offset 11, -8
 495              		.cfi_offset 14, -4
 362:Src/draw.c    ****   uint8_t rz = NCOLS / 2;
 496              		.loc 1 362 3 view .LVU108
 497              	.LVL47:
 363:Src/draw.c    ****   uint16_t coords = 0;
 498              		.loc 1 363 3 view .LVU109
 364:Src/draw.c    ****   uint8_t invI;
 499              		.loc 1 364 3 view .LVU110
 365:Src/draw.c    ****   for (int8_t y = -rz; y <= rz; y++)
 500              		.loc 1 365 3 view .LVU111
 501              	.LBB29:
 502              		.loc 1 365 8 view .LVU112
 503              		.loc 1 365 15 is_stmt 0 view .LVU113
 504 0004 6FF00709 		mvn	r9, #7
ARM GAS  /var/folders/hv/f19l0kw128sbpybv1h43gz3c0000gn/T//cch93GUf.s 			page 17


 505              		.loc 1 365 3 view .LVU114
 506 0008 58E0     		b	.L48
 507              	.LVL48:
 508              	.L52:
 509              	.LBB30:
 510              	.LBB31:
 511              	.LBB32:
 366:Src/draw.c    ****   {
 367:Src/draw.c    ****     for (int8_t x = -rz; x <= rz; x++)
 368:Src/draw.c    ****     {
 369:Src/draw.c    ****       coords = (x + rz) + ((y + rz) * NCOLS);
 370:Src/draw.c    ****       invI = orientation ? MAX_DIV - 1 : 0;
 371:Src/draw.c    ****       for (int8_t i = 0; i < MAX_DIV - 1; i++)
 372:Src/draw.c    ****       {
 373:Src/draw.c    ****         float layer = ((float)(i + 1) / MAX_DIV);
 374:Src/draw.c    ****         if (callback(x, y, layer))
 375:Src/draw.c    ****         {
 376:Src/draw.c    ****           invI = orientation ? i : MAX_DIV - 1 - i;
 512              		.loc 1 376 16 discriminator 2 view .LVU115
 513 000a E7B2     		uxtb	r7, r4
 514              	.LVL49:
 515              		.loc 1 376 16 discriminator 2 view .LVU116
 516 000c 25E0     		b	.L53
 517              	.LVL50:
 518              	.L51:
 519              		.loc 1 376 16 discriminator 2 view .LVU117
 520              	.LBE32:
 371:Src/draw.c    ****       {
 521              		.loc 1 371 44 discriminator 2 view .LVU118
 522 000e 0134     		adds	r4, r4, #1
 523              	.LVL51:
 371:Src/draw.c    ****       {
 524              		.loc 1 371 44 discriminator 2 view .LVU119
 525 0010 64B2     		sxtb	r4, r4
 526              	.LVL52:
 527              	.L50:
 371:Src/draw.c    ****       {
 528              		.loc 1 371 38 discriminator 1 view .LVU120
 529 0012 2F4B     		ldr	r3, .L63
 530 0014 1D78     		ldrb	r5, [r3]	@ zero_extendqisi2
 531 0016 6B1E     		subs	r3, r5, #1
 371:Src/draw.c    ****       {
 532              		.loc 1 371 7 discriminator 1 view .LVU121
 533 0018 9C42     		cmp	r4, r3
 534 001a 1EDA     		bge	.L53
 535              	.LBB35:
 373:Src/draw.c    ****         if (callback(x, y, layer))
 536              		.loc 1 373 9 is_stmt 1 view .LVU122
 373:Src/draw.c    ****         if (callback(x, y, layer))
 537              		.loc 1 373 24 is_stmt 0 view .LVU123
 538 001c 601C     		adds	r0, r4, #1
 539 001e FFF7FEFF 		bl	__aeabi_i2f
 540              	.LVL53:
 541 0022 8346     		mov	fp, r0
 373:Src/draw.c    ****         if (callback(x, y, layer))
 542              		.loc 1 373 39 view .LVU124
 543 0024 2846     		mov	r0, r5
ARM GAS  /var/folders/hv/f19l0kw128sbpybv1h43gz3c0000gn/T//cch93GUf.s 			page 18


 544 0026 FFF7FEFF 		bl	__aeabi_i2f
 545              	.LVL54:
 373:Src/draw.c    ****         if (callback(x, y, layer))
 546              		.loc 1 373 15 view .LVU125
 547 002a 0146     		mov	r1, r0
 548 002c 5846     		mov	r0, fp
 549 002e FFF7FEFF 		bl	__aeabi_fdiv
 550              	.LVL55:
 374:Src/draw.c    ****         {
 551              		.loc 1 374 9 is_stmt 1 view .LVU126
 552              	.LBB33:
 553              	.LBI33:
 179:Src/draw.c    **** {
 554              		.loc 1 179 23 view .LVU127
 555              	.LBB34:
 181:Src/draw.c    ****   {
 556              		.loc 1 181 3 view .LVU128
 181:Src/draw.c    ****   {
 557              		.loc 1 181 7 is_stmt 0 view .LVU129
 558 0032 284B     		ldr	r3, .L63+4
 559 0034 1B68     		ldr	r3, [r3]
 181:Src/draw.c    ****   {
 560              		.loc 1 181 6 view .LVU130
 561 0036 002B     		cmp	r3, #0
 562 0038 E9D0     		beq	.L51
 183:Src/draw.c    ****   }
 563              		.loc 1 183 5 is_stmt 1 view .LVU131
 183:Src/draw.c    ****   }
 564              		.loc 1 183 13 is_stmt 0 view .LVU132
 565 003a 0246     		mov	r2, r0
 566 003c 4946     		mov	r1, r9
 567 003e 3046     		mov	r0, r6
 568              	.LVL56:
 183:Src/draw.c    ****   }
 569              		.loc 1 183 13 view .LVU133
 570 0040 9847     		blx	r3
 571              	.LVL57:
 183:Src/draw.c    ****   }
 572              		.loc 1 183 13 view .LVU134
 573              	.LBE34:
 574              	.LBE33:
 374:Src/draw.c    ****         {
 575              		.loc 1 374 12 view .LVU135
 576 0042 0028     		cmp	r0, #0
 577 0044 E3D0     		beq	.L51
 578              		.loc 1 376 11 is_stmt 1 view .LVU136
 579              		.loc 1 376 30 is_stmt 0 view .LVU137
 580 0046 244B     		ldr	r3, .L63+8
 581 0048 1B78     		ldrb	r3, [r3]	@ zero_extendqisi2
 582              		.loc 1 376 16 view .LVU138
 583 004a 002B     		cmp	r3, #0
 584 004c DDD1     		bne	.L52
 585              		.loc 1 376 48 discriminator 1 view .LVU139
 586 004e 204B     		ldr	r3, .L63
 587 0050 1F78     		ldrb	r7, [r3]	@ zero_extendqisi2
 588              	.LVL58:
 589              		.loc 1 376 48 discriminator 1 view .LVU140
ARM GAS  /var/folders/hv/f19l0kw128sbpybv1h43gz3c0000gn/T//cch93GUf.s 			page 19


 590 0052 3F1B     		subs	r7, r7, r4
 591 0054 FFB2     		uxtb	r7, r7
 592              		.loc 1 376 16 discriminator 1 view .LVU141
 593 0056 013F     		subs	r7, r7, #1
 594 0058 FFB2     		uxtb	r7, r7
 595              	.L53:
 596              	.LVL59:
 597              		.loc 1 376 16 discriminator 1 view .LVU142
 598              	.LBE35:
 599              	.LBE31:
 377:Src/draw.c    ****           break;
 378:Src/draw.c    ****         }
 379:Src/draw.c    ****       }
 380:Src/draw.c    ****       setColor(backLayer[coords], noteBuffer[invI].color);
 600              		.loc 1 380 7 is_stmt 1 view .LVU143
 601              		.loc 1 380 25 is_stmt 0 view .LVU144
 602 005a 08EB4808 		add	r8, r8, r8, lsl #1
 603              	.LVL60:
 604              		.loc 1 380 51 view .LVU145
 605 005e 07EB4707 		add	r7, r7, r7, lsl #1
 606              	.LVL61:
 607              		.loc 1 380 51 view .LVU146
 608 0062 7900     		lsls	r1, r7, #1
 609 0064 1D4B     		ldr	r3, .L63+12
 610 0066 1944     		add	r1, r1, r3
 611              		.loc 1 380 7 view .LVU147
 612 0068 0331     		adds	r1, r1, #3
 613 006a 1D48     		ldr	r0, .L63+16
 614 006c 4044     		add	r0, r0, r8
 615 006e FFF7FEFF 		bl	setColor
 616              	.LVL62:
 381:Src/draw.c    ****       for (uint8_t z = 0, invz = 2; z < 3; z++, invz--)
 617              		.loc 1 381 7 is_stmt 1 view .LVU148
 618              	.LBB36:
 619              		.loc 1 381 12 view .LVU149
 620              		.loc 1 381 20 is_stmt 0 view .LVU150
 621 0072 0023     		movs	r3, #0
 622              		.loc 1 381 7 view .LVU151
 623 0074 04E0     		b	.L55
 624              	.LVL63:
 625              	.L56:
 382:Src/draw.c    ****       {
 383:Src/draw.c    ****         textColor[z] = 150;
 626              		.loc 1 383 9 is_stmt 1 discriminator 3 view .LVU152
 627              		.loc 1 383 22 is_stmt 0 discriminator 3 view .LVU153
 628 0076 1B4A     		ldr	r2, .L63+20
 629 0078 9621     		movs	r1, #150
 630 007a D154     		strb	r1, [r2, r3]
 381:Src/draw.c    ****       for (uint8_t z = 0, invz = 2; z < 3; z++, invz--)
 631              		.loc 1 381 45 discriminator 3 view .LVU154
 632 007c 0133     		adds	r3, r3, #1
 633              	.LVL64:
 381:Src/draw.c    ****       for (uint8_t z = 0, invz = 2; z < 3; z++, invz--)
 634              		.loc 1 381 45 discriminator 3 view .LVU155
 635 007e DBB2     		uxtb	r3, r3
 636              	.LVL65:
 637              	.L55:
ARM GAS  /var/folders/hv/f19l0kw128sbpybv1h43gz3c0000gn/T//cch93GUf.s 			page 20


 381:Src/draw.c    ****       for (uint8_t z = 0, invz = 2; z < 3; z++, invz--)
 638              		.loc 1 381 7 discriminator 1 view .LVU156
 639 0080 022B     		cmp	r3, #2
 640 0082 F8D9     		bls	.L56
 641              	.LBE36:
 367:Src/draw.c    ****     {
 642              		.loc 1 367 36 discriminator 2 view .LVU157
 643 0084 0136     		adds	r6, r6, #1
 644              	.LVL66:
 367:Src/draw.c    ****     {
 645              		.loc 1 367 36 discriminator 2 view .LVU158
 646 0086 76B2     		sxtb	r6, r6
 647              	.LVL67:
 648              	.L58:
 367:Src/draw.c    ****     {
 649              		.loc 1 367 5 discriminator 1 view .LVU159
 650 0088 082E     		cmp	r6, #8
 651 008a 13DC     		bgt	.L61
 369:Src/draw.c    ****       invI = orientation ? MAX_DIV - 1 : 0;
 652              		.loc 1 369 7 is_stmt 1 view .LVU160
 369:Src/draw.c    ****       invI = orientation ? MAX_DIV - 1 : 0;
 653              		.loc 1 369 19 is_stmt 0 view .LVU161
 654 008c 06F10808 		add	r8, r6, #8
 655 0090 1FFA88F8 		uxth	r8, r8
 369:Src/draw.c    ****       invI = orientation ? MAX_DIV - 1 : 0;
 656              		.loc 1 369 31 view .LVU162
 657 0094 0AF10800 		add	r0, r10, #8
 369:Src/draw.c    ****       invI = orientation ? MAX_DIV - 1 : 0;
 658              		.loc 1 369 25 view .LVU163
 659 0098 0001     		lsls	r0, r0, #4
 660 009a 80B2     		uxth	r0, r0
 369:Src/draw.c    ****       invI = orientation ? MAX_DIV - 1 : 0;
 661              		.loc 1 369 14 view .LVU164
 662 009c 8044     		add	r8, r8, r0
 663 009e 1FFA88F8 		uxth	r8, r8
 664              	.LVL68:
 370:Src/draw.c    ****       for (int8_t i = 0; i < MAX_DIV - 1; i++)
 665              		.loc 1 370 7 is_stmt 1 view .LVU165
 370:Src/draw.c    ****       for (int8_t i = 0; i < MAX_DIV - 1; i++)
 666              		.loc 1 370 26 is_stmt 0 view .LVU166
 667 00a2 0D4B     		ldr	r3, .L63+8
 668 00a4 1F78     		ldrb	r7, [r3]	@ zero_extendqisi2
 370:Src/draw.c    ****       for (int8_t i = 0; i < MAX_DIV - 1; i++)
 669              		.loc 1 370 12 view .LVU167
 670 00a6 1FB1     		cbz	r7, .L49
 370:Src/draw.c    ****       for (int8_t i = 0; i < MAX_DIV - 1; i++)
 671              		.loc 1 370 36 discriminator 1 view .LVU168
 672 00a8 094B     		ldr	r3, .L63
 673 00aa 1F78     		ldrb	r7, [r3]	@ zero_extendqisi2
 370:Src/draw.c    ****       for (int8_t i = 0; i < MAX_DIV - 1; i++)
 674              		.loc 1 370 12 discriminator 1 view .LVU169
 675 00ac 013F     		subs	r7, r7, #1
 676 00ae FFB2     		uxtb	r7, r7
 677              	.L49:
 678              	.LVL69:
 371:Src/draw.c    ****       {
 679              		.loc 1 371 7 is_stmt 1 discriminator 4 view .LVU170
ARM GAS  /var/folders/hv/f19l0kw128sbpybv1h43gz3c0000gn/T//cch93GUf.s 			page 21


 680              	.LBB37:
 371:Src/draw.c    ****       {
 681              		.loc 1 371 12 discriminator 4 view .LVU171
 371:Src/draw.c    ****       {
 682              		.loc 1 371 19 is_stmt 0 discriminator 4 view .LVU172
 683 00b0 0024     		movs	r4, #0
 371:Src/draw.c    ****       {
 684              		.loc 1 371 7 discriminator 4 view .LVU173
 685 00b2 AEE7     		b	.L50
 686              	.LVL70:
 687              	.L61:
 371:Src/draw.c    ****       {
 688              		.loc 1 371 7 discriminator 4 view .LVU174
 689              	.LBE37:
 690              	.LBE30:
 365:Src/draw.c    ****   {
 691              		.loc 1 365 34 discriminator 2 view .LVU175
 692 00b4 09F10109 		add	r9, r9, #1
 693              	.LVL71:
 365:Src/draw.c    ****   {
 694              		.loc 1 365 34 discriminator 2 view .LVU176
 695 00b8 4FFA89F9 		sxtb	r9, r9
 696              	.LVL72:
 697              	.L48:
 365:Src/draw.c    ****   {
 698              		.loc 1 365 26 discriminator 1 view .LVU177
 699 00bc CA46     		mov	r10, r9
 365:Src/draw.c    ****   {
 700              		.loc 1 365 3 discriminator 1 view .LVU178
 701 00be B9F1080F 		cmp	r9, #8
 702 00c2 02DC     		bgt	.L62
 703              	.LBB38:
 367:Src/draw.c    ****     {
 704              		.loc 1 367 17 view .LVU179
 705 00c4 6FF00706 		mvn	r6, #7
 706 00c8 DEE7     		b	.L58
 707              	.L62:
 708              	.LBE38:
 709              	.LBE29:
 384:Src/draw.c    ****       }
 385:Src/draw.c    ****     }
 386:Src/draw.c    ****   }
 387:Src/draw.c    **** }
 710              		.loc 1 387 1 view .LVU180
 711 00ca BDE8F88F 		pop	{r3, r4, r5, r6, r7, r8, r9, r10, fp, pc}
 712              	.LVL73:
 713              	.L64:
 714              		.loc 1 387 1 view .LVU181
 715 00ce 00BF     		.align	2
 716              	.L63:
 717 00d0 00000000 		.word	.LANCHOR2
 718 00d4 00000000 		.word	callback_function
 719 00d8 00000000 		.word	.LANCHOR1
 720 00dc 00000000 		.word	noteBuffer
 721 00e0 00000000 		.word	backLayer
 722 00e4 00000000 		.word	textColor
 723              		.cfi_endproc
ARM GAS  /var/folders/hv/f19l0kw128sbpybv1h43gz3c0000gn/T//cch93GUf.s 			page 22


 724              	.LFE73:
 726              		.section	.text.drawShapeNoteGrad,"ax",%progbits
 727              		.align	1
 728              		.global	drawShapeNoteGrad
 729              		.syntax unified
 730              		.thumb
 731              		.thumb_func
 732              		.fpu softvfp
 734              	drawShapeNoteGrad:
 735              	.LFB74:
 388:Src/draw.c    **** 
 389:Src/draw.c    **** void drawShapeNoteGrad()
 390:Src/draw.c    **** {
 736              		.loc 1 390 1 is_stmt 1 view -0
 737              		.cfi_startproc
 738              		@ args = 0, pretend = 0, frame = 16
 739              		@ frame_needed = 0, uses_anonymous_args = 0
 740 0000 2DE9F04F 		push	{r4, r5, r6, r7, r8, r9, r10, fp, lr}
 741              	.LCFI8:
 742              		.cfi_def_cfa_offset 36
 743              		.cfi_offset 4, -36
 744              		.cfi_offset 5, -32
 745              		.cfi_offset 6, -28
 746              		.cfi_offset 7, -24
 747              		.cfi_offset 8, -20
 748              		.cfi_offset 9, -16
 749              		.cfi_offset 10, -12
 750              		.cfi_offset 11, -8
 751              		.cfi_offset 14, -4
 752 0004 85B0     		sub	sp, sp, #20
 753              	.LCFI9:
 754              		.cfi_def_cfa_offset 56
 391:Src/draw.c    ****   uint8_t rz = NCOLS / 2;
 755              		.loc 1 391 3 view .LVU183
 756              	.LVL74:
 392:Src/draw.c    ****   uint16_t coords = 0;
 757              		.loc 1 392 3 view .LVU184
 393:Src/draw.c    ****   uint8_t invO = orientation ? 0 : 1;
 758              		.loc 1 393 3 view .LVU185
 759              		.loc 1 393 34 is_stmt 0 view .LVU186
 760 0006 464B     		ldr	r3, .L82
 761 0008 1C78     		ldrb	r4, [r3]	@ zero_extendqisi2
 762 000a B4FA84FA 		clz	r10, r4
 763 000e 4FEA5A1A 		lsr	r10, r10, #5
 764              	.LVL75:
 394:Src/draw.c    ****   int8_t diff[3];
 765              		.loc 1 394 3 is_stmt 1 view .LVU187
 395:Src/draw.c    ****   for (uint8_t j = 0; j < 3; j++)
 766              		.loc 1 395 3 view .LVU188
 767              	.LBB39:
 768              		.loc 1 395 8 view .LVU189
 769              		.loc 1 395 16 is_stmt 0 view .LVU190
 770 0012 0023     		movs	r3, #0
 771              		.loc 1 395 3 view .LVU191
 772 0014 18E0     		b	.L66
 773              	.LVL76:
 774              	.L67:
ARM GAS  /var/folders/hv/f19l0kw128sbpybv1h43gz3c0000gn/T//cch93GUf.s 			page 23


 396:Src/draw.c    ****   {
 397:Src/draw.c    ****     diff[j] = (noteBuffer[orientation].color[j] - noteBuffer[invO].color[j]) / MAX_DIV;
 775              		.loc 1 397 5 is_stmt 1 discriminator 3 view .LVU192
 776              		.loc 1 397 45 is_stmt 0 discriminator 3 view .LVU193
 777 0016 434A     		ldr	r2, .L82+4
 778 0018 04EB4400 		add	r0, r4, r4, lsl #1
 779 001c 4100     		lsls	r1, r0, #1
 780 001e 1144     		add	r1, r1, r2
 781 0020 1944     		add	r1, r1, r3
 782 0022 C978     		ldrb	r1, [r1, #3]	@ zero_extendqisi2
 783              		.loc 1 397 73 discriminator 3 view .LVU194
 784 0024 4FEA4A00 		lsl	r0, r10, #1
 785 0028 5044     		add	r0, r0, r10
 786 002a 4500     		lsls	r5, r0, #1
 787 002c 2A44     		add	r2, r2, r5
 788 002e 1A44     		add	r2, r2, r3
 789 0030 D278     		ldrb	r2, [r2, #3]	@ zero_extendqisi2
 790              		.loc 1 397 49 discriminator 3 view .LVU195
 791 0032 8A1A     		subs	r2, r1, r2
 792              		.loc 1 397 78 discriminator 3 view .LVU196
 793 0034 3C49     		ldr	r1, .L82+8
 794 0036 0978     		ldrb	r1, [r1]	@ zero_extendqisi2
 795 0038 92FBF1F2 		sdiv	r2, r2, r1
 796              		.loc 1 397 13 discriminator 3 view .LVU197
 797 003c 04A9     		add	r1, sp, #16
 798 003e 1944     		add	r1, r1, r3
 799 0040 01F8042C 		strb	r2, [r1, #-4]
 395:Src/draw.c    ****   for (uint8_t j = 0; j < 3; j++)
 800              		.loc 1 395 31 discriminator 3 view .LVU198
 801 0044 0133     		adds	r3, r3, #1
 802              	.LVL77:
 395:Src/draw.c    ****   for (uint8_t j = 0; j < 3; j++)
 803              		.loc 1 395 31 discriminator 3 view .LVU199
 804 0046 DBB2     		uxtb	r3, r3
 805              	.LVL78:
 806              	.L66:
 395:Src/draw.c    ****   for (uint8_t j = 0; j < 3; j++)
 807              		.loc 1 395 3 discriminator 1 view .LVU200
 808 0048 022B     		cmp	r3, #2
 809 004a E4D9     		bls	.L67
 810              	.LBE39:
 811              	.LBB40:
 398:Src/draw.c    ****   }
 399:Src/draw.c    **** 
 400:Src/draw.c    ****   for (int8_t y = -rz; y <= rz; y++)
 812              		.loc 1 400 15 view .LVU201
 813 004c 6FF00703 		mvn	r3, #7
 814              	.LVL79:
 815              		.loc 1 400 15 view .LVU202
 816 0050 0193     		str	r3, [sp, #4]
 817 0052 5BE0     		b	.L68
 818              	.LVL80:
 819              	.L70:
 820              	.LBB41:
 821              	.LBB42:
 401:Src/draw.c    ****   {
 402:Src/draw.c    ****     for (int8_t x = -rz; x <= rz; x++)
ARM GAS  /var/folders/hv/f19l0kw128sbpybv1h43gz3c0000gn/T//cch93GUf.s 			page 24


 403:Src/draw.c    ****     {
 404:Src/draw.c    ****       coords = (x + rz) + ((y + rz) * NCOLS);
 405:Src/draw.c    ****       setColor(backLayer[coords], noteBuffer[orientation].color);
 406:Src/draw.c    ****       for (int8_t i = 0; i < MAX_DIV - 1; i++)
 822              		.loc 1 406 44 discriminator 2 view .LVU203
 823 0054 0134     		adds	r4, r4, #1
 824              	.LVL81:
 825              		.loc 1 406 44 discriminator 2 view .LVU204
 826 0056 64B2     		sxtb	r4, r4
 827              	.LVL82:
 828              	.L69:
 829              		.loc 1 406 38 discriminator 1 view .LVU205
 830 0058 334B     		ldr	r3, .L82+8
 831 005a 1D78     		ldrb	r5, [r3]	@ zero_extendqisi2
 832 005c 6B1E     		subs	r3, r5, #1
 833              		.loc 1 406 7 discriminator 1 view .LVU206
 834 005e 9C42     		cmp	r4, r3
 835 0060 2EDA     		bge	.L73
 836              	.LBB43:
 407:Src/draw.c    ****       {
 408:Src/draw.c    ****         float layer = ((float)(i + 1) / MAX_DIV);
 837              		.loc 1 408 9 is_stmt 1 view .LVU207
 838              		.loc 1 408 34 is_stmt 0 view .LVU208
 839 0062 661C     		adds	r6, r4, #1
 840              		.loc 1 408 24 view .LVU209
 841 0064 3046     		mov	r0, r6
 842 0066 FFF7FEFF 		bl	__aeabi_i2f
 843              	.LVL83:
 844 006a 0746     		mov	r7, r0
 845              		.loc 1 408 39 view .LVU210
 846 006c 2846     		mov	r0, r5
 847 006e FFF7FEFF 		bl	__aeabi_i2f
 848              	.LVL84:
 849              		.loc 1 408 15 view .LVU211
 850 0072 0146     		mov	r1, r0
 851 0074 3846     		mov	r0, r7
 852 0076 FFF7FEFF 		bl	__aeabi_fdiv
 853              	.LVL85:
 409:Src/draw.c    ****         if (callback(x, y, layer))
 854              		.loc 1 409 9 is_stmt 1 view .LVU212
 855              	.LBB44:
 856              	.LBI44:
 179:Src/draw.c    **** {
 857              		.loc 1 179 23 view .LVU213
 858              	.LBB45:
 181:Src/draw.c    ****   {
 859              		.loc 1 181 3 view .LVU214
 181:Src/draw.c    ****   {
 860              		.loc 1 181 7 is_stmt 0 view .LVU215
 861 007a 2C4B     		ldr	r3, .L82+12
 862 007c 1B68     		ldr	r3, [r3]
 181:Src/draw.c    ****   {
 863              		.loc 1 181 6 view .LVU216
 864 007e 002B     		cmp	r3, #0
 865 0080 E8D0     		beq	.L70
 183:Src/draw.c    ****   }
 866              		.loc 1 183 5 is_stmt 1 view .LVU217
ARM GAS  /var/folders/hv/f19l0kw128sbpybv1h43gz3c0000gn/T//cch93GUf.s 			page 25


 183:Src/draw.c    ****   }
 867              		.loc 1 183 13 is_stmt 0 view .LVU218
 868 0082 0246     		mov	r2, r0
 869 0084 0199     		ldr	r1, [sp, #4]
 870 0086 4046     		mov	r0, r8
 871              	.LVL86:
 183:Src/draw.c    ****   }
 872              		.loc 1 183 13 view .LVU219
 873 0088 9847     		blx	r3
 874              	.LVL87:
 183:Src/draw.c    ****   }
 875              		.loc 1 183 13 view .LVU220
 876              	.LBE45:
 877              	.LBE44:
 878              		.loc 1 409 12 view .LVU221
 879 008a 0028     		cmp	r0, #0
 880 008c E2D0     		beq	.L70
 881              	.LBB46:
 410:Src/draw.c    ****         {
 411:Src/draw.c    ****           for (uint8_t j = 0; j < 3; j++)
 882              		.loc 1 411 24 view .LVU222
 883 008e 0023     		movs	r3, #0
 884              	.L71:
 885              	.LVL88:
 886              		.loc 1 411 11 discriminator 1 view .LVU223
 887 0090 022B     		cmp	r3, #2
 888 0092 15D8     		bhi	.L73
 412:Src/draw.c    ****           {
 413:Src/draw.c    ****             backLayer[coords][j] = noteBuffer[invO].color[j] + ((i + 1) * diff[j]);
 889              		.loc 1 413 13 is_stmt 1 discriminator 3 view .LVU224
 890              		.loc 1 413 58 is_stmt 0 discriminator 3 view .LVU225
 891 0094 4FEA4A01 		lsl	r1, r10, #1
 892 0098 5144     		add	r1, r1, r10
 893 009a 4800     		lsls	r0, r1, #1
 894 009c 214A     		ldr	r2, .L82+4
 895 009e 0244     		add	r2, r2, r0
 896 00a0 1A44     		add	r2, r2, r3
 897 00a2 D278     		ldrb	r2, [r2, #3]	@ zero_extendqisi2
 898              		.loc 1 413 79 discriminator 3 view .LVU226
 899 00a4 04A9     		add	r1, sp, #16
 900 00a6 1944     		add	r1, r1, r3
 901 00a8 11F9041C 		ldrsb	r1, [r1, #-4]
 902              		.loc 1 413 62 discriminator 3 view .LVU227
 903 00ac 06FB0121 		mla	r1, r6, r1, r2
 904              		.loc 1 413 34 discriminator 3 view .LVU228
 905 00b0 09EB4900 		add	r0, r9, r9, lsl #1
 906 00b4 1E4A     		ldr	r2, .L82+16
 907 00b6 0244     		add	r2, r2, r0
 908 00b8 D154     		strb	r1, [r2, r3]
 411:Src/draw.c    ****           {
 909              		.loc 1 411 39 discriminator 3 view .LVU229
 910 00ba 0133     		adds	r3, r3, #1
 911              	.LVL89:
 411:Src/draw.c    ****           {
 912              		.loc 1 411 39 discriminator 3 view .LVU230
 913 00bc DBB2     		uxtb	r3, r3
 914              	.LVL90:
ARM GAS  /var/folders/hv/f19l0kw128sbpybv1h43gz3c0000gn/T//cch93GUf.s 			page 26


 411:Src/draw.c    ****           {
 915              		.loc 1 411 39 discriminator 3 view .LVU231
 916 00be E7E7     		b	.L71
 917              	.LVL91:
 918              	.L73:
 411:Src/draw.c    ****           {
 919              		.loc 1 411 39 discriminator 3 view .LVU232
 920              	.LBE46:
 921              	.LBE43:
 922              	.LBE42:
 402:Src/draw.c    ****     {
 923              		.loc 1 402 36 discriminator 2 view .LVU233
 924 00c0 08F10108 		add	r8, r8, #1
 925              	.LVL92:
 402:Src/draw.c    ****     {
 926              		.loc 1 402 36 discriminator 2 view .LVU234
 927 00c4 4FFA88F8 		sxtb	r8, r8
 928              	.LVL93:
 929              	.L76:
 402:Src/draw.c    ****     {
 930              		.loc 1 402 5 discriminator 1 view .LVU235
 931 00c8 B8F1080F 		cmp	r8, #8
 932 00cc 1ADC     		bgt	.L80
 404:Src/draw.c    ****       setColor(backLayer[coords], noteBuffer[orientation].color);
 933              		.loc 1 404 7 is_stmt 1 view .LVU236
 404:Src/draw.c    ****       setColor(backLayer[coords], noteBuffer[orientation].color);
 934              		.loc 1 404 19 is_stmt 0 view .LVU237
 935 00ce 08F10809 		add	r9, r8, #8
 936 00d2 1FFA89F9 		uxth	r9, r9
 404:Src/draw.c    ****       setColor(backLayer[coords], noteBuffer[orientation].color);
 937              		.loc 1 404 31 view .LVU238
 938 00d6 0BF10803 		add	r3, fp, #8
 404:Src/draw.c    ****       setColor(backLayer[coords], noteBuffer[orientation].color);
 939              		.loc 1 404 25 view .LVU239
 940 00da 1B01     		lsls	r3, r3, #4
 941 00dc 9BB2     		uxth	r3, r3
 404:Src/draw.c    ****       setColor(backLayer[coords], noteBuffer[orientation].color);
 942              		.loc 1 404 14 view .LVU240
 943 00de 9944     		add	r9, r9, r3
 944 00e0 1FFA89F9 		uxth	r9, r9
 405:Src/draw.c    ****       for (int8_t i = 0; i < MAX_DIV - 1; i++)
 945              		.loc 1 405 7 is_stmt 1 view .LVU241
 405:Src/draw.c    ****       for (int8_t i = 0; i < MAX_DIV - 1; i++)
 946              		.loc 1 405 25 is_stmt 0 view .LVU242
 947 00e4 09EB4902 		add	r2, r9, r9, lsl #1
 405:Src/draw.c    ****       for (int8_t i = 0; i < MAX_DIV - 1; i++)
 948              		.loc 1 405 58 view .LVU243
 949 00e8 0D4B     		ldr	r3, .L82
 950 00ea 1B78     		ldrb	r3, [r3]	@ zero_extendqisi2
 951 00ec 03EB4303 		add	r3, r3, r3, lsl #1
 952 00f0 5900     		lsls	r1, r3, #1
 953 00f2 0C4B     		ldr	r3, .L82+4
 954 00f4 1944     		add	r1, r1, r3
 405:Src/draw.c    ****       for (int8_t i = 0; i < MAX_DIV - 1; i++)
 955              		.loc 1 405 7 view .LVU244
 956 00f6 0331     		adds	r1, r1, #3
 957 00f8 0D48     		ldr	r0, .L82+16
ARM GAS  /var/folders/hv/f19l0kw128sbpybv1h43gz3c0000gn/T//cch93GUf.s 			page 27


 958 00fa 1044     		add	r0, r0, r2
 959 00fc FFF7FEFF 		bl	setColor
 960              	.LVL94:
 406:Src/draw.c    ****       {
 961              		.loc 1 406 7 is_stmt 1 view .LVU245
 962              	.LBB47:
 406:Src/draw.c    ****       {
 963              		.loc 1 406 12 view .LVU246
 406:Src/draw.c    ****       {
 964              		.loc 1 406 19 is_stmt 0 view .LVU247
 965 0100 0024     		movs	r4, #0
 406:Src/draw.c    ****       {
 966              		.loc 1 406 7 view .LVU248
 967 0102 A9E7     		b	.L69
 968              	.LVL95:
 969              	.L80:
 406:Src/draw.c    ****       {
 970              		.loc 1 406 7 view .LVU249
 971              	.LBE47:
 972              	.LBE41:
 400:Src/draw.c    ****   {
 973              		.loc 1 400 34 discriminator 2 view .LVU250
 974 0104 019B     		ldr	r3, [sp, #4]
 975 0106 0133     		adds	r3, r3, #1
 976 0108 5BB2     		sxtb	r3, r3
 977 010a 0193     		str	r3, [sp, #4]
 978              	.LVL96:
 979              	.L68:
 400:Src/draw.c    ****   {
 980              		.loc 1 400 26 discriminator 1 view .LVU251
 981 010c 019B     		ldr	r3, [sp, #4]
 982 010e 9B46     		mov	fp, r3
 400:Src/draw.c    ****   {
 983              		.loc 1 400 3 discriminator 1 view .LVU252
 984 0110 082B     		cmp	r3, #8
 985 0112 02DC     		bgt	.L81
 986              	.LBB48:
 402:Src/draw.c    ****     {
 987              		.loc 1 402 17 view .LVU253
 988 0114 6FF00708 		mvn	r8, #7
 989 0118 D6E7     		b	.L76
 990              	.L81:
 991              	.LBE48:
 992              	.LBE40:
 414:Src/draw.c    ****           }
 415:Src/draw.c    ****           break;
 416:Src/draw.c    ****         }
 417:Src/draw.c    ****       }
 418:Src/draw.c    ****     }
 419:Src/draw.c    ****   }
 420:Src/draw.c    **** }
 993              		.loc 1 420 1 view .LVU254
 994 011a 05B0     		add	sp, sp, #20
 995              	.LCFI10:
 996              		.cfi_def_cfa_offset 36
 997              		@ sp needed
 998 011c BDE8F08F 		pop	{r4, r5, r6, r7, r8, r9, r10, fp, pc}
ARM GAS  /var/folders/hv/f19l0kw128sbpybv1h43gz3c0000gn/T//cch93GUf.s 			page 28


 999              	.LVL97:
 1000              	.L83:
 1001              		.loc 1 420 1 view .LVU255
 1002              		.align	2
 1003              	.L82:
 1004 0120 00000000 		.word	.LANCHOR1
 1005 0124 00000000 		.word	noteBuffer
 1006 0128 00000000 		.word	.LANCHOR2
 1007 012c 00000000 		.word	callback_function
 1008 0130 00000000 		.word	backLayer
 1009              		.cfi_endproc
 1010              	.LFE74:
 1012              		.global	__aeabi_fmul
 1013              		.global	__aeabi_fcmple
 1014              		.section	.text.circle,"ax",%progbits
 1015              		.align	1
 1016              		.global	circle
 1017              		.syntax unified
 1018              		.thumb
 1019              		.thumb_func
 1020              		.fpu softvfp
 1022              	circle:
 1023              	.LVL98:
 1024              	.LFB75:
 421:Src/draw.c    **** uint8_t circle(int8_t x, int8_t y, float layer)
 422:Src/draw.c    **** {
 1025              		.loc 1 422 1 is_stmt 1 view -0
 1026              		.cfi_startproc
 1027              		@ args = 0, pretend = 0, frame = 0
 1028              		@ frame_needed = 0, uses_anonymous_args = 0
 1029              		.loc 1 422 1 is_stmt 0 view .LVU257
 1030 0000 38B5     		push	{r3, r4, r5, lr}
 1031              	.LCFI11:
 1032              		.cfi_def_cfa_offset 16
 1033              		.cfi_offset 3, -16
 1034              		.cfi_offset 4, -12
 1035              		.cfi_offset 5, -8
 1036              		.cfi_offset 14, -4
 423:Src/draw.c    ****   float z = ((float)NCOLS / 2);
 1037              		.loc 1 423 3 is_stmt 1 view .LVU258
 1038              	.LVL99:
 424:Src/draw.c    ****   return ((x * x) + (y * y) <= (z * z) * layer);
 1039              		.loc 1 424 3 view .LVU259
 1040              		.loc 1 424 24 is_stmt 0 view .LVU260
 1041 0002 01FB01F1 		mul	r1, r1, r1
 1042              	.LVL100:
 1043              		.loc 1 424 19 view .LVU261
 1044 0006 00FB0014 		mla	r4, r0, r0, r1
 1045              		.loc 1 424 40 view .LVU262
 1046 000a 4FF08541 		mov	r1, #1115684864
 1047 000e 1046     		mov	r0, r2
 1048              	.LVL101:
 1049              		.loc 1 424 40 view .LVU263
 1050 0010 FFF7FEFF 		bl	__aeabi_fmul
 1051              	.LVL102:
 1052              		.loc 1 424 40 view .LVU264
 1053 0014 0546     		mov	r5, r0
ARM GAS  /var/folders/hv/f19l0kw128sbpybv1h43gz3c0000gn/T//cch93GUf.s 			page 29


 1054              		.loc 1 424 29 view .LVU265
 1055 0016 2046     		mov	r0, r4
 1056 0018 FFF7FEFF 		bl	__aeabi_i2f
 1057              	.LVL103:
 1058 001c 4FF00104 		mov	r4, #1
 1059 0020 2946     		mov	r1, r5
 1060 0022 FFF7FEFF 		bl	__aeabi_fcmple
 1061              	.LVL104:
 1062 0026 08B9     		cbnz	r0, .L85
 1063 0028 4FF00004 		mov	r4, #0
 1064              	.L85:
 425:Src/draw.c    **** }
 1065              		.loc 1 425 1 view .LVU266
 1066 002c 04F00100 		and	r0, r4, #1
 1067 0030 38BD     		pop	{r3, r4, r5, pc}
 1068              		.cfi_endproc
 1069              	.LFE75:
 1071              		.global	__aeabi_fcmpge
 1072              		.section	.text.square,"ax",%progbits
 1073              		.align	1
 1074              		.global	square
 1075              		.syntax unified
 1076              		.thumb
 1077              		.thumb_func
 1078              		.fpu softvfp
 1080              	square:
 1081              	.LVL105:
 1082              	.LFB76:
 426:Src/draw.c    **** 
 427:Src/draw.c    **** uint8_t square(int8_t x, int8_t y, float layer)
 428:Src/draw.c    **** {
 1083              		.loc 1 428 1 is_stmt 1 view -0
 1084              		.cfi_startproc
 1085              		@ args = 0, pretend = 0, frame = 0
 1086              		@ frame_needed = 0, uses_anonymous_args = 0
 1087              		.loc 1 428 1 is_stmt 0 view .LVU268
 1088 0000 F8B5     		push	{r3, r4, r5, r6, r7, lr}
 1089              	.LCFI12:
 1090              		.cfi_def_cfa_offset 24
 1091              		.cfi_offset 3, -24
 1092              		.cfi_offset 4, -20
 1093              		.cfi_offset 5, -16
 1094              		.cfi_offset 6, -12
 1095              		.cfi_offset 7, -8
 1096              		.cfi_offset 14, -4
 1097 0002 0546     		mov	r5, r0
 1098 0004 0F46     		mov	r7, r1
 429:Src/draw.c    ****   float z = ((float)NCOLS / 2);
 1099              		.loc 1 429 3 is_stmt 1 view .LVU269
 1100              	.LVL106:
 430:Src/draw.c    ****   float perc = layer * z;
 1101              		.loc 1 430 3 view .LVU270
 1102              		.loc 1 430 9 is_stmt 0 view .LVU271
 1103 0006 4FF08241 		mov	r1, #1090519040
 1104              	.LVL107:
 1105              		.loc 1 430 9 view .LVU272
 1106 000a 1046     		mov	r0, r2
ARM GAS  /var/folders/hv/f19l0kw128sbpybv1h43gz3c0000gn/T//cch93GUf.s 			page 30


 1107              	.LVL108:
 1108              		.loc 1 430 9 view .LVU273
 1109 000c FFF7FEFF 		bl	__aeabi_fmul
 1110              	.LVL109:
 1111              		.loc 1 430 9 view .LVU274
 1112 0010 0446     		mov	r4, r0
 1113              	.LVL110:
 431:Src/draw.c    ****   return ((x >= -perc && x <= perc) && (y >= -perc && y <= perc));
 1114              		.loc 1 431 3 is_stmt 1 view .LVU275
 1115              		.loc 1 431 14 is_stmt 0 view .LVU276
 1116 0012 2846     		mov	r0, r5
 1117              	.LVL111:
 1118              		.loc 1 431 14 view .LVU277
 1119 0014 FFF7FEFF 		bl	__aeabi_i2f
 1120              	.LVL112:
 1121 0018 0646     		mov	r6, r0
 1122              		.loc 1 431 17 view .LVU278
 1123 001a 04F10045 		add	r5, r4, #-2147483648
 1124              		.loc 1 431 37 view .LVU279
 1125 001e 2946     		mov	r1, r5
 1126 0020 FFF7FEFF 		bl	__aeabi_fcmpge
 1127              	.LVL113:
 1128 0024 A0B1     		cbz	r0, .L99
 1129              		.loc 1 431 23 discriminator 1 view .LVU280
 1130 0026 2146     		mov	r1, r4
 1131 0028 3046     		mov	r0, r6
 1132 002a FFF7FEFF 		bl	__aeabi_fcmple
 1133              	.LVL114:
 1134 002e 88B1     		cbz	r0, .L100
 1135              		.loc 1 431 43 discriminator 3 view .LVU281
 1136 0030 3846     		mov	r0, r7
 1137 0032 FFF7FEFF 		bl	__aeabi_i2f
 1138              	.LVL115:
 1139 0036 0646     		mov	r6, r0
 1140              		.loc 1 431 37 discriminator 3 view .LVU282
 1141 0038 0146     		mov	r1, r0
 1142 003a 2846     		mov	r0, r5
 1143 003c FFF7FEFF 		bl	__aeabi_fcmple
 1144              	.LVL116:
 1145 0040 50B1     		cbz	r0, .L101
 1146              		.loc 1 431 52 discriminator 5 view .LVU283
 1147 0042 2146     		mov	r1, r4
 1148 0044 3046     		mov	r0, r6
 1149 0046 FFF7FEFF 		bl	__aeabi_fcmple
 1150              	.LVL117:
 1151 004a 10B1     		cbz	r0, .L88
 1152              		.loc 1 431 37 view .LVU284
 1153 004c 0120     		movs	r0, #1
 1154 004e 00E0     		b	.L88
 1155              	.L99:
 1156 0050 0020     		movs	r0, #0
 1157              	.L88:
 432:Src/draw.c    **** }
 1158              		.loc 1 432 1 discriminator 10 view .LVU285
 1159 0052 F8BD     		pop	{r3, r4, r5, r6, r7, pc}
 1160              	.LVL118:
 1161              	.L100:
ARM GAS  /var/folders/hv/f19l0kw128sbpybv1h43gz3c0000gn/T//cch93GUf.s 			page 31


 431:Src/draw.c    ****   return ((x >= -perc && x <= perc) && (y >= -perc && y <= perc));
 1162              		.loc 1 431 37 view .LVU286
 1163 0054 0020     		movs	r0, #0
 1164 0056 FCE7     		b	.L88
 1165              	.L101:
 1166 0058 0020     		movs	r0, #0
 1167 005a FAE7     		b	.L88
 1168              		.cfi_endproc
 1169              	.LFE76:
 1171              		.global	__aeabi_i2d
 1172              		.global	__aeabi_dmul
 1173              		.global	__aeabi_f2d
 1174              		.global	__aeabi_dadd
 1175              		.global	__aeabi_d2f
 1176              		.global	__aeabi_fcmpgt
 1177              		.global	__aeabi_fcmplt
 1178              		.global	__aeabi_dcmplt
 1179              		.section	.text.triangle,"ax",%progbits
 1180              		.align	1
 1181              		.global	triangle
 1182              		.syntax unified
 1183              		.thumb
 1184              		.thumb_func
 1185              		.fpu softvfp
 1187              	triangle:
 1188              	.LVL119:
 1189              	.LFB77:
 433:Src/draw.c    **** 
 434:Src/draw.c    **** uint8_t triangle(int8_t x, int8_t y, float layer)
 435:Src/draw.c    **** {
 1190              		.loc 1 435 1 is_stmt 1 view -0
 1191              		.cfi_startproc
 1192              		@ args = 0, pretend = 0, frame = 0
 1193              		@ frame_needed = 0, uses_anonymous_args = 0
 1194              		.loc 1 435 1 is_stmt 0 view .LVU288
 1195 0000 2DE9F047 		push	{r4, r5, r6, r7, r8, r9, r10, lr}
 1196              	.LCFI13:
 1197              		.cfi_def_cfa_offset 32
 1198              		.cfi_offset 4, -32
 1199              		.cfi_offset 5, -28
 1200              		.cfi_offset 6, -24
 1201              		.cfi_offset 7, -20
 1202              		.cfi_offset 8, -16
 1203              		.cfi_offset 9, -12
 1204              		.cfi_offset 10, -8
 1205              		.cfi_offset 14, -4
 1206 0004 8246     		mov	r10, r0
 1207 0006 0C46     		mov	r4, r1
 436:Src/draw.c    ****   float z = ((float)NCOLS / 2);
 1208              		.loc 1 436 3 is_stmt 1 view .LVU289
 1209              	.LVL120:
 437:Src/draw.c    ****   float perc = layer * z;
 1210              		.loc 1 437 3 view .LVU290
 1211              		.loc 1 437 9 is_stmt 0 view .LVU291
 1212 0008 4FF08241 		mov	r1, #1090519040
 1213              	.LVL121:
 1214              		.loc 1 437 9 view .LVU292
ARM GAS  /var/folders/hv/f19l0kw128sbpybv1h43gz3c0000gn/T//cch93GUf.s 			page 32


 1215 000c 1046     		mov	r0, r2
 1216              	.LVL122:
 1217              		.loc 1 437 9 view .LVU293
 1218 000e FFF7FEFF 		bl	__aeabi_fmul
 1219              	.LVL123:
 1220              		.loc 1 437 9 view .LVU294
 1221 0012 0646     		mov	r6, r0
 1222              	.LVL124:
 438:Src/draw.c    ****   float offset = z / 7;
 1223              		.loc 1 438 3 is_stmt 1 view .LVU295
 439:Src/draw.c    ****   float m = y * 0.7 + perc;
 1224              		.loc 1 439 3 view .LVU296
 1225              		.loc 1 439 15 is_stmt 0 view .LVU297
 1226 0014 2046     		mov	r0, r4
 1227              	.LVL125:
 1228              		.loc 1 439 15 view .LVU298
 1229 0016 FFF7FEFF 		bl	__aeabi_i2d
 1230              	.LVL126:
 1231 001a 8046     		mov	r8, r0
 1232 001c 8946     		mov	r9, r1
 1233 001e 1EA3     		adr	r3, .L115
 1234 0020 D3E90023 		ldrd	r2, [r3]
 1235 0024 FFF7FEFF 		bl	__aeabi_dmul
 1236              	.LVL127:
 1237 0028 0446     		mov	r4, r0
 1238 002a 0D46     		mov	r5, r1
 1239              		.loc 1 439 21 view .LVU299
 1240 002c 3046     		mov	r0, r6
 1241 002e FFF7FEFF 		bl	__aeabi_f2d
 1242              	.LVL128:
 1243 0032 0646     		mov	r6, r0
 1244              	.LVL129:
 1245              		.loc 1 439 21 view .LVU300
 1246 0034 0F46     		mov	r7, r1
 1247 0036 0246     		mov	r2, r0
 1248 0038 0B46     		mov	r3, r1
 1249 003a 2046     		mov	r0, r4
 1250 003c 2946     		mov	r1, r5
 1251 003e FFF7FEFF 		bl	__aeabi_dadd
 1252              	.LVL130:
 1253              		.loc 1 439 9 view .LVU301
 1254 0042 FFF7FEFF 		bl	__aeabi_d2f
 1255              	.LVL131:
 1256 0046 0446     		mov	r4, r0
 1257              	.LVL132:
 440:Src/draw.c    ****   return ((x > -m) && (x < m)) && (y < perc * 0.9 + offset);
 1258              		.loc 1 440 3 is_stmt 1 view .LVU302
 1259              		.loc 1 440 14 is_stmt 0 view .LVU303
 1260 0048 5046     		mov	r0, r10
 1261              	.LVL133:
 1262              		.loc 1 440 14 view .LVU304
 1263 004a FFF7FEFF 		bl	__aeabi_i2f
 1264              	.LVL134:
 1265 004e 0546     		mov	r5, r0
 1266              		.loc 1 440 16 view .LVU305
 1267 0050 04F10041 		add	r1, r4, #-2147483648
 1268              		.loc 1 440 32 view .LVU306
ARM GAS  /var/folders/hv/f19l0kw128sbpybv1h43gz3c0000gn/T//cch93GUf.s 			page 33


 1269 0054 FFF7FEFF 		bl	__aeabi_fcmpgt
 1270              	.LVL135:
 1271 0058 C8B1     		cbz	r0, .L112
 1272              		.loc 1 440 20 discriminator 1 view .LVU307
 1273 005a 2146     		mov	r1, r4
 1274 005c 2846     		mov	r0, r5
 1275 005e FFF7FEFF 		bl	__aeabi_fcmplt
 1276              	.LVL136:
 1277 0062 B8B1     		cbz	r0, .L113
 1278              		.loc 1 440 45 discriminator 3 view .LVU308
 1279 0064 0EA3     		adr	r3, .L115+8
 1280 0066 D3E90023 		ldrd	r2, [r3]
 1281 006a 3046     		mov	r0, r6
 1282 006c 3946     		mov	r1, r7
 1283 006e FFF7FEFF 		bl	__aeabi_dmul
 1284              	.LVL137:
 1285              		.loc 1 440 51 discriminator 3 view .LVU309
 1286 0072 0DA3     		adr	r3, .L115+16
 1287 0074 D3E90023 		ldrd	r2, [r3]
 1288 0078 FFF7FEFF 		bl	__aeabi_dadd
 1289              	.LVL138:
 1290              		.loc 1 440 32 discriminator 3 view .LVU310
 1291 007c 0246     		mov	r2, r0
 1292 007e 0B46     		mov	r3, r1
 1293 0080 4046     		mov	r0, r8
 1294 0082 4946     		mov	r1, r9
 1295 0084 FFF7FEFF 		bl	__aeabi_dcmplt
 1296              	.LVL139:
 1297 0088 10B1     		cbz	r0, .L104
 1298              		.loc 1 440 32 view .LVU311
 1299 008a 0120     		movs	r0, #1
 1300 008c 00E0     		b	.L104
 1301              	.L112:
 1302 008e 0020     		movs	r0, #0
 1303              	.L104:
 441:Src/draw.c    **** }
 1304              		.loc 1 441 1 discriminator 8 view .LVU312
 1305 0090 BDE8F087 		pop	{r4, r5, r6, r7, r8, r9, r10, pc}
 1306              	.LVL140:
 1307              	.L113:
 440:Src/draw.c    ****   return ((x > -m) && (x < m)) && (y < perc * 0.9 + offset);
 1308              		.loc 1 440 32 view .LVU313
 1309 0094 0020     		movs	r0, #0
 1310 0096 FBE7     		b	.L104
 1311              	.L116:
 1312              		.align	3
 1313              	.L115:
 1314 0098 66666666 		.word	1717986918
 1315 009c 6666E63F 		.word	1072064102
 1316 00a0 CDCCCCCC 		.word	3435973837
 1317 00a4 CCCCEC3F 		.word	1072483532
 1318 00a8 000000A0 		.word	2684354560
 1319 00ac 2449F23F 		.word	1072843044
 1320              		.cfi_endproc
 1321              	.LFE77:
 1323              		.global	__aeabi_fsub
 1324              		.section	.text.cross,"ax",%progbits
ARM GAS  /var/folders/hv/f19l0kw128sbpybv1h43gz3c0000gn/T//cch93GUf.s 			page 34


 1325              		.align	1
 1326              		.global	cross
 1327              		.syntax unified
 1328              		.thumb
 1329              		.thumb_func
 1330              		.fpu softvfp
 1332              	cross:
 1333              	.LVL141:
 1334              	.LFB78:
 442:Src/draw.c    **** 
 443:Src/draw.c    **** uint8_t cross(int8_t x, int8_t y, float layer)
 444:Src/draw.c    **** {
 1335              		.loc 1 444 1 is_stmt 1 view -0
 1336              		.cfi_startproc
 1337              		@ args = 0, pretend = 0, frame = 0
 1338              		@ frame_needed = 0, uses_anonymous_args = 0
 1339              		.loc 1 444 1 is_stmt 0 view .LVU315
 1340 0000 F8B5     		push	{r3, r4, r5, r6, r7, lr}
 1341              	.LCFI14:
 1342              		.cfi_def_cfa_offset 24
 1343              		.cfi_offset 3, -24
 1344              		.cfi_offset 4, -20
 1345              		.cfi_offset 5, -16
 1346              		.cfi_offset 6, -12
 1347              		.cfi_offset 7, -8
 1348              		.cfi_offset 14, -4
 1349 0002 0546     		mov	r5, r0
 1350 0004 0E46     		mov	r6, r1
 445:Src/draw.c    ****   float z = ((float)NCOLS / 2);
 1351              		.loc 1 445 3 is_stmt 1 view .LVU316
 1352              	.LVL142:
 446:Src/draw.c    ****   float perc = z - layer * z;
 1353              		.loc 1 446 3 view .LVU317
 1354              		.loc 1 446 26 is_stmt 0 view .LVU318
 1355 0006 4FF08241 		mov	r1, #1090519040
 1356              	.LVL143:
 1357              		.loc 1 446 26 view .LVU319
 1358 000a 1046     		mov	r0, r2
 1359              	.LVL144:
 1360              		.loc 1 446 26 view .LVU320
 1361 000c FFF7FEFF 		bl	__aeabi_fmul
 1362              	.LVL145:
 1363              		.loc 1 446 9 view .LVU321
 1364 0010 0146     		mov	r1, r0
 1365 0012 4FF08240 		mov	r0, #1090519040
 1366 0016 FFF7FEFF 		bl	__aeabi_fsub
 1367              	.LVL146:
 1368 001a 0446     		mov	r4, r0
 1369              	.LVL147:
 447:Src/draw.c    ****   return ((x <= -perc || x >= perc) && (y <= -perc || y >= perc));
 1370              		.loc 1 447 3 is_stmt 1 view .LVU322
 1371              		.loc 1 447 14 is_stmt 0 view .LVU323
 1372 001c 2846     		mov	r0, r5
 1373              	.LVL148:
 1374              		.loc 1 447 14 view .LVU324
 1375 001e FFF7FEFF 		bl	__aeabi_i2f
 1376              	.LVL149:
ARM GAS  /var/folders/hv/f19l0kw128sbpybv1h43gz3c0000gn/T//cch93GUf.s 			page 35


 1377 0022 0746     		mov	r7, r0
 1378              		.loc 1 447 17 view .LVU325
 1379 0024 04F10045 		add	r5, r4, #-2147483648
 1380              		.loc 1 447 37 view .LVU326
 1381 0028 2946     		mov	r1, r5
 1382 002a FFF7FEFF 		bl	__aeabi_fcmple
 1383              	.LVL150:
 1384 002e 20B9     		cbnz	r0, .L118
 1385              		.loc 1 447 23 discriminator 2 view .LVU327
 1386 0030 2146     		mov	r1, r4
 1387 0032 3846     		mov	r0, r7
 1388 0034 FFF7FEFF 		bl	__aeabi_fcmpge
 1389              	.LVL151:
 1390 0038 78B1     		cbz	r0, .L124
 1391              	.L118:
 1392              		.loc 1 447 43 discriminator 3 view .LVU328
 1393 003a 3046     		mov	r0, r6
 1394 003c FFF7FEFF 		bl	__aeabi_i2f
 1395              	.LVL152:
 1396 0040 0646     		mov	r6, r0
 1397              		.loc 1 447 37 discriminator 3 view .LVU329
 1398 0042 0146     		mov	r1, r0
 1399 0044 2846     		mov	r0, r5
 1400 0046 FFF7FEFF 		bl	__aeabi_fcmpge
 1401              	.LVL153:
 1402 004a 40B9     		cbnz	r0, .L122
 1403              		.loc 1 447 52 discriminator 6 view .LVU330
 1404 004c 2146     		mov	r1, r4
 1405 004e 3046     		mov	r0, r6
 1406 0050 FFF7FEFF 		bl	__aeabi_fcmpge
 1407              	.LVL154:
 1408 0054 20B1     		cbz	r0, .L119
 1409              		.loc 1 447 37 view .LVU331
 1410 0056 0120     		movs	r0, #1
 1411 0058 02E0     		b	.L119
 1412              	.L124:
 1413              		.loc 1 447 37 view .LVU332
 1414 005a 0020     		movs	r0, #0
 1415 005c 00E0     		b	.L119
 1416              	.L122:
 1417 005e 0120     		movs	r0, #1
 1418              	.L119:
 448:Src/draw.c    **** }
 1419              		.loc 1 448 1 discriminator 10 view .LVU333
 1420 0060 F8BD     		pop	{r3, r4, r5, r6, r7, pc}
 1421              		.loc 1 448 1 discriminator 10 view .LVU334
 1422              		.cfi_endproc
 1423              	.LFE78:
 1425              		.section	.text.horizontal,"ax",%progbits
 1426              		.align	1
 1427              		.global	horizontal
 1428              		.syntax unified
 1429              		.thumb
 1430              		.thumb_func
 1431              		.fpu softvfp
 1433              	horizontal:
 1434              	.LVL155:
ARM GAS  /var/folders/hv/f19l0kw128sbpybv1h43gz3c0000gn/T//cch93GUf.s 			page 36


 1435              	.LFB79:
 449:Src/draw.c    **** 
 450:Src/draw.c    **** uint8_t horizontal(int8_t x, int8_t y, float layer)
 451:Src/draw.c    **** {
 1436              		.loc 1 451 1 is_stmt 1 view -0
 1437              		.cfi_startproc
 1438              		@ args = 0, pretend = 0, frame = 0
 1439              		@ frame_needed = 0, uses_anonymous_args = 0
 1440              		.loc 1 451 1 is_stmt 0 view .LVU336
 1441 0000 F8B5     		push	{r3, r4, r5, r6, r7, lr}
 1442              	.LCFI15:
 1443              		.cfi_def_cfa_offset 24
 1444              		.cfi_offset 3, -24
 1445              		.cfi_offset 4, -20
 1446              		.cfi_offset 5, -16
 1447              		.cfi_offset 6, -12
 1448              		.cfi_offset 7, -8
 1449              		.cfi_offset 14, -4
 1450 0002 0546     		mov	r5, r0
 1451 0004 0E46     		mov	r6, r1
 452:Src/draw.c    ****   float z = ((float)NCOLS / 2);
 1452              		.loc 1 452 3 is_stmt 1 view .LVU337
 1453              	.LVL156:
 453:Src/draw.c    ****   float perc = z - layer * z;
 1454              		.loc 1 453 3 view .LVU338
 1455              		.loc 1 453 26 is_stmt 0 view .LVU339
 1456 0006 4FF08241 		mov	r1, #1090519040
 1457              	.LVL157:
 1458              		.loc 1 453 26 view .LVU340
 1459 000a 1046     		mov	r0, r2
 1460              	.LVL158:
 1461              		.loc 1 453 26 view .LVU341
 1462 000c FFF7FEFF 		bl	__aeabi_fmul
 1463              	.LVL159:
 1464              		.loc 1 453 9 view .LVU342
 1465 0010 0146     		mov	r1, r0
 1466 0012 4FF08240 		mov	r0, #1090519040
 1467 0016 FFF7FEFF 		bl	__aeabi_fsub
 1468              	.LVL160:
 1469 001a 0446     		mov	r4, r0
 1470              	.LVL161:
 454:Src/draw.c    ****   return ((x >= -perc || x <= perc) && (y <= -perc || y >= perc));
 1471              		.loc 1 454 3 is_stmt 1 view .LVU343
 1472              		.loc 1 454 14 is_stmt 0 view .LVU344
 1473 001c 2846     		mov	r0, r5
 1474              	.LVL162:
 1475              		.loc 1 454 14 view .LVU345
 1476 001e FFF7FEFF 		bl	__aeabi_i2f
 1477              	.LVL163:
 1478 0022 0746     		mov	r7, r0
 1479              		.loc 1 454 17 view .LVU346
 1480 0024 04F10045 		add	r5, r4, #-2147483648
 1481              		.loc 1 454 37 view .LVU347
 1482 0028 2946     		mov	r1, r5
 1483 002a FFF7FEFF 		bl	__aeabi_fcmpge
 1484              	.LVL164:
 1485 002e 20B9     		cbnz	r0, .L127
ARM GAS  /var/folders/hv/f19l0kw128sbpybv1h43gz3c0000gn/T//cch93GUf.s 			page 37


 1486              		.loc 1 454 23 discriminator 2 view .LVU348
 1487 0030 2146     		mov	r1, r4
 1488 0032 3846     		mov	r0, r7
 1489 0034 FFF7FEFF 		bl	__aeabi_fcmple
 1490              	.LVL165:
 1491 0038 78B1     		cbz	r0, .L133
 1492              	.L127:
 1493              		.loc 1 454 43 discriminator 3 view .LVU349
 1494 003a 3046     		mov	r0, r6
 1495 003c FFF7FEFF 		bl	__aeabi_i2f
 1496              	.LVL166:
 1497 0040 0646     		mov	r6, r0
 1498              		.loc 1 454 37 discriminator 3 view .LVU350
 1499 0042 0146     		mov	r1, r0
 1500 0044 2846     		mov	r0, r5
 1501 0046 FFF7FEFF 		bl	__aeabi_fcmpge
 1502              	.LVL167:
 1503 004a 40B9     		cbnz	r0, .L131
 1504              		.loc 1 454 52 discriminator 6 view .LVU351
 1505 004c 2146     		mov	r1, r4
 1506 004e 3046     		mov	r0, r6
 1507 0050 FFF7FEFF 		bl	__aeabi_fcmpge
 1508              	.LVL168:
 1509 0054 20B1     		cbz	r0, .L128
 1510              		.loc 1 454 37 view .LVU352
 1511 0056 0120     		movs	r0, #1
 1512 0058 02E0     		b	.L128
 1513              	.L133:
 1514              		.loc 1 454 37 view .LVU353
 1515 005a 0020     		movs	r0, #0
 1516 005c 00E0     		b	.L128
 1517              	.L131:
 1518 005e 0120     		movs	r0, #1
 1519              	.L128:
 455:Src/draw.c    **** }
 1520              		.loc 1 455 1 discriminator 10 view .LVU354
 1521 0060 F8BD     		pop	{r3, r4, r5, r6, r7, pc}
 1522              		.loc 1 455 1 discriminator 10 view .LVU355
 1523              		.cfi_endproc
 1524              	.LFE79:
 1526              		.section	.text.vertical,"ax",%progbits
 1527              		.align	1
 1528              		.global	vertical
 1529              		.syntax unified
 1530              		.thumb
 1531              		.thumb_func
 1532              		.fpu softvfp
 1534              	vertical:
 1535              	.LVL169:
 1536              	.LFB80:
 456:Src/draw.c    **** 
 457:Src/draw.c    **** uint8_t vertical(int8_t x, int8_t y, float layer)
 458:Src/draw.c    **** {
 1537              		.loc 1 458 1 is_stmt 1 view -0
 1538              		.cfi_startproc
 1539              		@ args = 0, pretend = 0, frame = 0
 1540              		@ frame_needed = 0, uses_anonymous_args = 0
ARM GAS  /var/folders/hv/f19l0kw128sbpybv1h43gz3c0000gn/T//cch93GUf.s 			page 38


 1541              		.loc 1 458 1 is_stmt 0 view .LVU357
 1542 0000 F8B5     		push	{r3, r4, r5, r6, r7, lr}
 1543              	.LCFI16:
 1544              		.cfi_def_cfa_offset 24
 1545              		.cfi_offset 3, -24
 1546              		.cfi_offset 4, -20
 1547              		.cfi_offset 5, -16
 1548              		.cfi_offset 6, -12
 1549              		.cfi_offset 7, -8
 1550              		.cfi_offset 14, -4
 1551 0002 0546     		mov	r5, r0
 1552 0004 0E46     		mov	r6, r1
 459:Src/draw.c    ****   float z = ((float)NCOLS / 2);
 1553              		.loc 1 459 3 is_stmt 1 view .LVU358
 1554              	.LVL170:
 460:Src/draw.c    ****   float perc = z - layer * z;
 1555              		.loc 1 460 3 view .LVU359
 1556              		.loc 1 460 26 is_stmt 0 view .LVU360
 1557 0006 4FF08241 		mov	r1, #1090519040
 1558              	.LVL171:
 1559              		.loc 1 460 26 view .LVU361
 1560 000a 1046     		mov	r0, r2
 1561              	.LVL172:
 1562              		.loc 1 460 26 view .LVU362
 1563 000c FFF7FEFF 		bl	__aeabi_fmul
 1564              	.LVL173:
 1565              		.loc 1 460 9 view .LVU363
 1566 0010 0146     		mov	r1, r0
 1567 0012 4FF08240 		mov	r0, #1090519040
 1568 0016 FFF7FEFF 		bl	__aeabi_fsub
 1569              	.LVL174:
 1570 001a 0446     		mov	r4, r0
 1571              	.LVL175:
 461:Src/draw.c    ****   return ((x <= -perc || x >= perc) && (y >= -perc || y <= perc));
 1572              		.loc 1 461 3 is_stmt 1 view .LVU364
 1573              		.loc 1 461 14 is_stmt 0 view .LVU365
 1574 001c 2846     		mov	r0, r5
 1575              	.LVL176:
 1576              		.loc 1 461 14 view .LVU366
 1577 001e FFF7FEFF 		bl	__aeabi_i2f
 1578              	.LVL177:
 1579 0022 0746     		mov	r7, r0
 1580              		.loc 1 461 17 view .LVU367
 1581 0024 04F10045 		add	r5, r4, #-2147483648
 1582              		.loc 1 461 37 view .LVU368
 1583 0028 2946     		mov	r1, r5
 1584 002a FFF7FEFF 		bl	__aeabi_fcmple
 1585              	.LVL178:
 1586 002e 20B9     		cbnz	r0, .L136
 1587              		.loc 1 461 23 discriminator 2 view .LVU369
 1588 0030 2146     		mov	r1, r4
 1589 0032 3846     		mov	r0, r7
 1590 0034 FFF7FEFF 		bl	__aeabi_fcmpge
 1591              	.LVL179:
 1592 0038 78B1     		cbz	r0, .L142
 1593              	.L136:
 1594              		.loc 1 461 43 discriminator 3 view .LVU370
ARM GAS  /var/folders/hv/f19l0kw128sbpybv1h43gz3c0000gn/T//cch93GUf.s 			page 39


 1595 003a 3046     		mov	r0, r6
 1596 003c FFF7FEFF 		bl	__aeabi_i2f
 1597              	.LVL180:
 1598 0040 0646     		mov	r6, r0
 1599              		.loc 1 461 37 discriminator 3 view .LVU371
 1600 0042 0146     		mov	r1, r0
 1601 0044 2846     		mov	r0, r5
 1602 0046 FFF7FEFF 		bl	__aeabi_fcmple
 1603              	.LVL181:
 1604 004a 40B9     		cbnz	r0, .L140
 1605              		.loc 1 461 52 discriminator 6 view .LVU372
 1606 004c 2146     		mov	r1, r4
 1607 004e 3046     		mov	r0, r6
 1608 0050 FFF7FEFF 		bl	__aeabi_fcmple
 1609              	.LVL182:
 1610 0054 20B1     		cbz	r0, .L137
 1611              		.loc 1 461 37 view .LVU373
 1612 0056 0120     		movs	r0, #1
 1613 0058 02E0     		b	.L137
 1614              	.L142:
 1615              		.loc 1 461 37 view .LVU374
 1616 005a 0020     		movs	r0, #0
 1617 005c 00E0     		b	.L137
 1618              	.L140:
 1619 005e 0120     		movs	r0, #1
 1620              	.L137:
 462:Src/draw.c    **** }
 1621              		.loc 1 462 1 discriminator 10 view .LVU375
 1622 0060 F8BD     		pop	{r3, r4, r5, r6, r7, pc}
 1623              		.loc 1 462 1 discriminator 10 view .LVU376
 1624              		.cfi_endproc
 1625              	.LFE80:
 1627              		.section	.text.drawLine,"ax",%progbits
 1628              		.align	1
 1629              		.global	drawLine
 1630              		.syntax unified
 1631              		.thumb
 1632              		.thumb_func
 1633              		.fpu softvfp
 1635              	drawLine:
 1636              	.LVL183:
 1637              	.LFB81:
 463:Src/draw.c    **** 
 464:Src/draw.c    **** void drawLine(uint8_t px, uint8_t py, uint8_t *color)
 465:Src/draw.c    **** {
 1638              		.loc 1 465 1 is_stmt 1 view -0
 1639              		.cfi_startproc
 1640              		@ args = 0, pretend = 0, frame = 0
 1641              		@ frame_needed = 0, uses_anonymous_args = 0
 1642              		.loc 1 465 1 is_stmt 0 view .LVU378
 1643 0000 2DE9F041 		push	{r4, r5, r6, r7, r8, lr}
 1644              	.LCFI17:
 1645              		.cfi_def_cfa_offset 24
 1646              		.cfi_offset 4, -24
 1647              		.cfi_offset 5, -20
 1648              		.cfi_offset 6, -16
 1649              		.cfi_offset 7, -12
ARM GAS  /var/folders/hv/f19l0kw128sbpybv1h43gz3c0000gn/T//cch93GUf.s 			page 40


 1650              		.cfi_offset 8, -8
 1651              		.cfi_offset 14, -4
 1652 0004 0646     		mov	r6, r0
 1653 0006 0F46     		mov	r7, r1
 1654 0008 9046     		mov	r8, r2
 466:Src/draw.c    ****   for (int y = 0; y <= NCOLS; y++)
 1655              		.loc 1 466 3 is_stmt 1 view .LVU379
 1656              	.LBB49:
 1657              		.loc 1 466 8 view .LVU380
 1658              	.LVL184:
 1659              		.loc 1 466 12 is_stmt 0 view .LVU381
 1660 000a 0025     		movs	r5, #0
 1661              		.loc 1 466 3 view .LVU382
 1662 000c 11E0     		b	.L145
 1663              	.LVL185:
 1664              	.L146:
 1665              	.LBB50:
 467:Src/draw.c    ****   {
 468:Src/draw.c    ****     for (int x = 0; x <= NCOLS; x++)
 469:Src/draw.c    ****     {
 470:Src/draw.c    ****       if (x == px || y == py)
 471:Src/draw.c    ****       {
 472:Src/draw.c    ****         setColor(backLayer[x + (y * NCOLS)], color);
 1666              		.loc 1 472 9 is_stmt 1 view .LVU383
 1667              		.loc 1 472 30 is_stmt 0 view .LVU384
 1668 000e 04EB0510 		add	r0, r4, r5, lsl #4
 1669              		.loc 1 472 27 view .LVU385
 1670 0012 00EB4000 		add	r0, r0, r0, lsl #1
 1671              		.loc 1 472 9 view .LVU386
 1672 0016 4146     		mov	r1, r8
 1673 0018 094B     		ldr	r3, .L154
 1674 001a 1844     		add	r0, r0, r3
 1675 001c FFF7FEFF 		bl	setColor
 1676              	.LVL186:
 1677              	.L147:
 468:Src/draw.c    ****     {
 1678              		.loc 1 468 34 discriminator 2 view .LVU387
 1679 0020 0134     		adds	r4, r4, #1
 1680              	.LVL187:
 1681              	.L149:
 468:Src/draw.c    ****     {
 1682              		.loc 1 468 5 discriminator 1 view .LVU388
 1683 0022 102C     		cmp	r4, #16
 1684 0024 04DC     		bgt	.L152
 470:Src/draw.c    ****       {
 1685              		.loc 1 470 7 is_stmt 1 view .LVU389
 470:Src/draw.c    ****       {
 1686              		.loc 1 470 10 is_stmt 0 view .LVU390
 1687 0026 A642     		cmp	r6, r4
 1688 0028 F1D0     		beq	.L146
 470:Src/draw.c    ****       {
 1689              		.loc 1 470 19 discriminator 1 view .LVU391
 1690 002a AF42     		cmp	r7, r5
 1691 002c F8D1     		bne	.L147
 470:Src/draw.c    ****       {
 1692              		.loc 1 470 19 discriminator 1 view .LVU392
 1693 002e EEE7     		b	.L146
ARM GAS  /var/folders/hv/f19l0kw128sbpybv1h43gz3c0000gn/T//cch93GUf.s 			page 41


 1694              	.L152:
 470:Src/draw.c    ****       {
 1695              		.loc 1 470 19 discriminator 1 view .LVU393
 1696              	.LBE50:
 466:Src/draw.c    ****   {
 1697              		.loc 1 466 32 discriminator 2 view .LVU394
 1698 0030 0135     		adds	r5, r5, #1
 1699              	.LVL188:
 1700              	.L145:
 466:Src/draw.c    ****   {
 1701              		.loc 1 466 3 discriminator 1 view .LVU395
 1702 0032 102D     		cmp	r5, #16
 1703 0034 01DC     		bgt	.L153
 1704              	.LBB51:
 468:Src/draw.c    ****     {
 1705              		.loc 1 468 14 view .LVU396
 1706 0036 0024     		movs	r4, #0
 1707 0038 F3E7     		b	.L149
 1708              	.L153:
 1709              	.LBE51:
 1710              	.LBE49:
 473:Src/draw.c    ****       }
 474:Src/draw.c    ****     }
 475:Src/draw.c    ****   }
 476:Src/draw.c    **** }
 1711              		.loc 1 476 1 view .LVU397
 1712 003a BDE8F081 		pop	{r4, r5, r6, r7, r8, pc}
 1713              	.LVL189:
 1714              	.L155:
 1715              		.loc 1 476 1 view .LVU398
 1716 003e 00BF     		.align	2
 1717              	.L154:
 1718 0040 00000000 		.word	backLayer
 1719              		.cfi_endproc
 1720              	.LFE81:
 1722              		.section	.text.drawPixel,"ax",%progbits
 1723              		.align	1
 1724              		.global	drawPixel
 1725              		.syntax unified
 1726              		.thumb
 1727              		.thumb_func
 1728              		.fpu softvfp
 1730              	drawPixel:
 1731              	.LVL190:
 1732              	.LFB82:
 477:Src/draw.c    **** 
 478:Src/draw.c    **** void drawPixel(uint8_t px, uint8_t py, uint8_t *color)
 479:Src/draw.c    **** {
 1733              		.loc 1 479 1 is_stmt 1 view -0
 1734              		.cfi_startproc
 1735              		@ args = 0, pretend = 0, frame = 0
 1736              		@ frame_needed = 0, uses_anonymous_args = 0
 1737              		.loc 1 479 1 is_stmt 0 view .LVU400
 1738 0000 2DE9F041 		push	{r4, r5, r6, r7, r8, lr}
 1739              	.LCFI18:
 1740              		.cfi_def_cfa_offset 24
 1741              		.cfi_offset 4, -24
ARM GAS  /var/folders/hv/f19l0kw128sbpybv1h43gz3c0000gn/T//cch93GUf.s 			page 42


 1742              		.cfi_offset 5, -20
 1743              		.cfi_offset 6, -16
 1744              		.cfi_offset 7, -12
 1745              		.cfi_offset 8, -8
 1746              		.cfi_offset 14, -4
 1747 0004 0546     		mov	r5, r0
 1748 0006 0F46     		mov	r7, r1
 1749 0008 9046     		mov	r8, r2
 480:Src/draw.c    ****   for (int y = 0; y <= NCOLS; y++)
 1750              		.loc 1 480 3 is_stmt 1 view .LVU401
 1751              	.LBB52:
 1752              		.loc 1 480 8 view .LVU402
 1753              	.LVL191:
 1754              		.loc 1 480 12 is_stmt 0 view .LVU403
 1755 000a 0026     		movs	r6, #0
 1756              		.loc 1 480 3 view .LVU404
 1757 000c 11E0     		b	.L157
 1758              	.LVL192:
 1759              	.L158:
 1760              	.LBB53:
 481:Src/draw.c    ****   {
 482:Src/draw.c    ****     for (int x = 0; x <= NCOLS; x++)
 1761              		.loc 1 482 34 discriminator 2 view .LVU405
 1762 000e 0134     		adds	r4, r4, #1
 1763              	.LVL193:
 1764              	.L160:
 1765              		.loc 1 482 5 discriminator 1 view .LVU406
 1766 0010 102C     		cmp	r4, #16
 1767 0012 0DDC     		bgt	.L163
 483:Src/draw.c    ****     {
 484:Src/draw.c    ****       if (x == px && y == py)
 1768              		.loc 1 484 7 is_stmt 1 view .LVU407
 1769              		.loc 1 484 10 is_stmt 0 view .LVU408
 1770 0014 A542     		cmp	r5, r4
 1771 0016 FAD1     		bne	.L158
 1772              		.loc 1 484 19 discriminator 1 view .LVU409
 1773 0018 B742     		cmp	r7, r6
 1774 001a F8D1     		bne	.L158
 485:Src/draw.c    ****       {
 486:Src/draw.c    ****         setColor(backLayer[x + (y * NCOLS)], color);
 1775              		.loc 1 486 9 is_stmt 1 view .LVU410
 1776              		.loc 1 486 30 is_stmt 0 view .LVU411
 1777 001c 04EB0610 		add	r0, r4, r6, lsl #4
 1778              		.loc 1 486 27 view .LVU412
 1779 0020 00EB4000 		add	r0, r0, r0, lsl #1
 1780              		.loc 1 486 9 view .LVU413
 1781 0024 4146     		mov	r1, r8
 1782 0026 064B     		ldr	r3, .L165
 1783 0028 1844     		add	r0, r0, r3
 1784 002a FFF7FEFF 		bl	setColor
 1785              	.LVL194:
 1786 002e EEE7     		b	.L158
 1787              	.L163:
 1788              		.loc 1 486 9 view .LVU414
 1789              	.LBE53:
 480:Src/draw.c    ****   {
 1790              		.loc 1 480 32 discriminator 2 view .LVU415
ARM GAS  /var/folders/hv/f19l0kw128sbpybv1h43gz3c0000gn/T//cch93GUf.s 			page 43


 1791 0030 0136     		adds	r6, r6, #1
 1792              	.LVL195:
 1793              	.L157:
 480:Src/draw.c    ****   {
 1794              		.loc 1 480 3 discriminator 1 view .LVU416
 1795 0032 102E     		cmp	r6, #16
 1796 0034 01DC     		bgt	.L164
 1797              	.LBB54:
 482:Src/draw.c    ****     {
 1798              		.loc 1 482 14 view .LVU417
 1799 0036 0024     		movs	r4, #0
 1800 0038 EAE7     		b	.L160
 1801              	.L164:
 1802              	.LBE54:
 1803              	.LBE52:
 487:Src/draw.c    ****       }
 488:Src/draw.c    ****     }
 489:Src/draw.c    ****   }
 490:Src/draw.c    **** }
 1804              		.loc 1 490 1 view .LVU418
 1805 003a BDE8F081 		pop	{r4, r5, r6, r7, r8, pc}
 1806              	.LVL196:
 1807              	.L166:
 1808              		.loc 1 490 1 view .LVU419
 1809 003e 00BF     		.align	2
 1810              	.L165:
 1811 0040 00000000 		.word	backLayer
 1812              		.cfi_endproc
 1813              	.LFE82:
 1815              		.section	.text.drawColor,"ax",%progbits
 1816              		.align	1
 1817              		.global	drawColor
 1818              		.syntax unified
 1819              		.thumb
 1820              		.thumb_func
 1821              		.fpu softvfp
 1823              	drawColor:
 1824              	.LVL197:
 1825              	.LFB83:
 491:Src/draw.c    **** 
 492:Src/draw.c    **** void drawColor(uint8_t *color)
 493:Src/draw.c    **** {
 1826              		.loc 1 493 1 is_stmt 1 view -0
 1827              		.cfi_startproc
 1828              		@ args = 0, pretend = 0, frame = 0
 1829              		@ frame_needed = 0, uses_anonymous_args = 0
 1830              		.loc 1 493 1 is_stmt 0 view .LVU421
 1831 0000 70B5     		push	{r4, r5, r6, lr}
 1832              	.LCFI19:
 1833              		.cfi_def_cfa_offset 16
 1834              		.cfi_offset 4, -16
 1835              		.cfi_offset 5, -12
 1836              		.cfi_offset 6, -8
 1837              		.cfi_offset 14, -4
 1838 0002 0646     		mov	r6, r0
 494:Src/draw.c    ****   for (int y = 0; y <= NCOLS; y++)
 1839              		.loc 1 494 3 is_stmt 1 view .LVU422
ARM GAS  /var/folders/hv/f19l0kw128sbpybv1h43gz3c0000gn/T//cch93GUf.s 			page 44


 1840              	.LBB55:
 1841              		.loc 1 494 8 view .LVU423
 1842              	.LVL198:
 1843              		.loc 1 494 12 is_stmt 0 view .LVU424
 1844 0004 0025     		movs	r5, #0
 1845              		.loc 1 494 3 view .LVU425
 1846 0006 0CE0     		b	.L168
 1847              	.LVL199:
 1848              	.L169:
 1849              	.LBB56:
 495:Src/draw.c    ****   {
 496:Src/draw.c    ****     for (int x = 0; x <= NCOLS; x++)
 497:Src/draw.c    ****     {
 498:Src/draw.c    ****       setColor(backLayer[x + (y * NCOLS)], color);
 1850              		.loc 1 498 7 is_stmt 1 discriminator 3 view .LVU426
 1851              		.loc 1 498 28 is_stmt 0 discriminator 3 view .LVU427
 1852 0008 04EB0510 		add	r0, r4, r5, lsl #4
 1853              		.loc 1 498 25 discriminator 3 view .LVU428
 1854 000c 00EB4000 		add	r0, r0, r0, lsl #1
 1855              		.loc 1 498 7 discriminator 3 view .LVU429
 1856 0010 3146     		mov	r1, r6
 1857 0012 064B     		ldr	r3, .L174
 1858 0014 1844     		add	r0, r0, r3
 1859 0016 FFF7FEFF 		bl	setColor
 1860              	.LVL200:
 496:Src/draw.c    ****     {
 1861              		.loc 1 496 34 discriminator 3 view .LVU430
 1862 001a 0134     		adds	r4, r4, #1
 1863              	.LVL201:
 1864              	.L170:
 496:Src/draw.c    ****     {
 1865              		.loc 1 496 5 discriminator 1 view .LVU431
 1866 001c 102C     		cmp	r4, #16
 1867 001e F3DD     		ble	.L169
 1868              	.LBE56:
 494:Src/draw.c    ****   for (int y = 0; y <= NCOLS; y++)
 1869              		.loc 1 494 32 discriminator 2 view .LVU432
 1870 0020 0135     		adds	r5, r5, #1
 1871              	.LVL202:
 1872              	.L168:
 494:Src/draw.c    ****   for (int y = 0; y <= NCOLS; y++)
 1873              		.loc 1 494 3 discriminator 1 view .LVU433
 1874 0022 102D     		cmp	r5, #16
 1875 0024 01DC     		bgt	.L173
 1876              	.LBB57:
 496:Src/draw.c    ****     {
 1877              		.loc 1 496 14 view .LVU434
 1878 0026 0024     		movs	r4, #0
 1879 0028 F8E7     		b	.L170
 1880              	.L173:
 1881              	.LBE57:
 1882              	.LBE55:
 499:Src/draw.c    ****     }
 500:Src/draw.c    ****   }
 501:Src/draw.c    **** }
 1883              		.loc 1 501 1 view .LVU435
 1884 002a 70BD     		pop	{r4, r5, r6, pc}
ARM GAS  /var/folders/hv/f19l0kw128sbpybv1h43gz3c0000gn/T//cch93GUf.s 			page 45


 1885              	.LVL203:
 1886              	.L175:
 1887              		.loc 1 501 1 view .LVU436
 1888              		.align	2
 1889              	.L174:
 1890 002c 00000000 		.word	backLayer
 1891              		.cfi_endproc
 1892              	.LFE83:
 1894              		.section	.text.getFontLine,"ax",%progbits
 1895              		.align	1
 1896              		.global	getFontLine
 1897              		.syntax unified
 1898              		.thumb
 1899              		.thumb_func
 1900              		.fpu softvfp
 1902              	getFontLine:
 1903              	.LVL204:
 1904              	.LFB86:
 502:Src/draw.c    **** 
 503:Src/draw.c    **** void checkSequence(void)
 504:Src/draw.c    **** {
 505:Src/draw.c    ****   uint8_t arrayLen = ARRAY_LEN(noteSequence);
 506:Src/draw.c    ****   uint8_t cnt = 0;
 507:Src/draw.c    ****   // uint8_t blue[3] = {1, 1, 20};
 508:Src/draw.c    ****   for (uint8_t j = 0; j < arrayLen; j++)
 509:Src/draw.c    ****   {
 510:Src/draw.c    ****     uint8_t len = ARRAY_LEN(noteSequence[j].note);
 511:Src/draw.c    ****     for (uint8_t i = 0; i < len; i++)
 512:Src/draw.c    ****     {
 513:Src/draw.c    ****       if (noteBuffer[i].note.symbol == noteSequence[j].note[len - 1 - i].symbol)
 514:Src/draw.c    ****       {
 515:Src/draw.c    ****         cnt++;
 516:Src/draw.c    ****         if (cnt == len)
 517:Src/draw.c    ****         {
 518:Src/draw.c    ****           clearText();
 519:Src/draw.c    ****           // drawString(noteSequence[j].word, 1, 24, 1, 0);
 520:Src/draw.c    ****           drawCenter(noteSequence[j].word, 1, 0);
 521:Src/draw.c    ****         }
 522:Src/draw.c    ****       }
 523:Src/draw.c    ****       else
 524:Src/draw.c    ****         break;
 525:Src/draw.c    ****     }
 526:Src/draw.c    ****   }
 527:Src/draw.c    **** }
 528:Src/draw.c    **** 
 529:Src/draw.c    **** void drawNote(void)
 530:Src/draw.c    **** {
 531:Src/draw.c    ****   // uint8_t red[3] = {20, 1, 1};
 532:Src/draw.c    ****   // uint8_t green[3] = {1, 20, 1};
 533:Src/draw.c    ****   // drawStringArray(1, 1, 1, 1);
 534:Src/draw.c    **** 
 535:Src/draw.c    ****   checkSequence();
 536:Src/draw.c    **** 
 537:Src/draw.c    ****   // drawString(noteBuffer[0], 1, 1, 1, 0);
 538:Src/draw.c    ****   // setTextColor(noteBuffer[0].color);
 539:Src/draw.c    ****   // drawColor(noteBuffer[0].color);
 540:Src/draw.c    ****   // drawLetter(note.symbol, 1, 10);
ARM GAS  /var/folders/hv/f19l0kw128sbpybv1h43gz3c0000gn/T//cch93GUf.s 			page 46


 541:Src/draw.c    **** }
 542:Src/draw.c    **** 
 543:Src/draw.c    **** /* Draw Strings */
 544:Src/draw.c    **** 
 545:Src/draw.c    **** unsigned char getFontLine(unsigned char data, int line_num)
 546:Src/draw.c    **** {
 1905              		.loc 1 546 1 is_stmt 1 view -0
 1906              		.cfi_startproc
 1907              		@ args = 0, pretend = 0, frame = 0
 1908              		@ frame_needed = 0, uses_anonymous_args = 0
 1909              		@ link register save eliminated.
 547:Src/draw.c    ****   const uint8_t index = (data - 32);
 1910              		.loc 1 547 3 view .LVU438
 1911              		.loc 1 547 17 is_stmt 0 view .LVU439
 1912 0000 2038     		subs	r0, r0, #32
 1913              	.LVL205:
 1914              		.loc 1 547 17 view .LVU440
 1915 0002 C0B2     		uxtb	r0, r0
 548:Src/draw.c    ****   unsigned char pixel = 0;
 1916              		.loc 1 548 3 is_stmt 1 view .LVU441
 1917              	.LVL206:
 549:Src/draw.c    ****   if ((font4x6[index][1] & 1) == 1)
 1918              		.loc 1 549 3 view .LVU442
 1919              		.loc 1 549 22 is_stmt 0 view .LVU443
 1920 0004 164B     		ldr	r3, .L189
 1921 0006 03EB4003 		add	r3, r3, r0, lsl #1
 1922 000a 5B78     		ldrb	r3, [r3, #1]	@ zero_extendqisi2
 1923              		.loc 1 549 6 view .LVU444
 1924 000c 13F0010F 		tst	r3, #1
 1925 0010 00D0     		beq	.L177
 550:Src/draw.c    ****     line_num -= 1;
 1926              		.loc 1 550 5 is_stmt 1 view .LVU445
 1927              		.loc 1 550 14 is_stmt 0 view .LVU446
 1928 0012 0139     		subs	r1, r1, #1
 1929              	.LVL207:
 1930              	.L177:
 551:Src/draw.c    ****   if (line_num == 0)
 1931              		.loc 1 551 3 is_stmt 1 view .LVU447
 1932              		.loc 1 551 6 is_stmt 0 view .LVU448
 1933 0014 31B9     		cbnz	r1, .L178
 552:Src/draw.c    ****   {
 553:Src/draw.c    ****     pixel = (font4x6[index][0]) >> 4;
 1934              		.loc 1 553 5 is_stmt 1 view .LVU449
 1935              		.loc 1 553 28 is_stmt 0 view .LVU450
 1936 0016 124B     		ldr	r3, .L189
 1937 0018 13F81000 		ldrb	r0, [r3, r0, lsl #1]	@ zero_extendqisi2
 1938              		.loc 1 553 11 view .LVU451
 1939 001c 0009     		lsrs	r0, r0, #4
 1940              	.LVL208:
 1941              	.L179:
 554:Src/draw.c    ****   }
 555:Src/draw.c    ****   else if (line_num == 1)
 556:Src/draw.c    ****   {
 557:Src/draw.c    ****     pixel = (font4x6[index][0]) >> 1;
 558:Src/draw.c    ****   }
 559:Src/draw.c    ****   else if (line_num == 2)
 560:Src/draw.c    ****   {
ARM GAS  /var/folders/hv/f19l0kw128sbpybv1h43gz3c0000gn/T//cch93GUf.s 			page 47


 561:Src/draw.c    ****     // Split over 2 bytes
 562:Src/draw.c    ****     return (((font4x6[index][0]) & 0x03) << 2) | (((font4x6[index][1]) & 0x02));
 563:Src/draw.c    ****   }
 564:Src/draw.c    ****   else if (line_num == 3)
 565:Src/draw.c    ****   {
 566:Src/draw.c    ****     pixel = (font4x6[index][1]) >> 4;
 567:Src/draw.c    ****   }
 568:Src/draw.c    ****   else if (line_num == 4)
 569:Src/draw.c    ****   {
 570:Src/draw.c    ****     pixel = (font4x6[index][1]) >> 1;
 571:Src/draw.c    ****   }
 572:Src/draw.c    ****   return pixel & 0xE;
 1942              		.loc 1 572 3 is_stmt 1 view .LVU452
 1943              		.loc 1 572 16 is_stmt 0 view .LVU453
 1944 001e 00F00E00 		and	r0, r0, #14
 1945              	.LVL209:
 573:Src/draw.c    **** }
 1946              		.loc 1 573 1 view .LVU454
 1947 0022 7047     		bx	lr
 1948              	.LVL210:
 1949              	.L178:
 555:Src/draw.c    ****   {
 1950              		.loc 1 555 8 is_stmt 1 view .LVU455
 555:Src/draw.c    ****   {
 1951              		.loc 1 555 11 is_stmt 0 view .LVU456
 1952 0024 0129     		cmp	r1, #1
 1953 0026 07D0     		beq	.L185
 559:Src/draw.c    ****   {
 1954              		.loc 1 559 8 is_stmt 1 view .LVU457
 559:Src/draw.c    ****   {
 1955              		.loc 1 559 11 is_stmt 0 view .LVU458
 1956 0028 0229     		cmp	r1, #2
 1957 002a 0AD0     		beq	.L186
 564:Src/draw.c    ****   {
 1958              		.loc 1 564 8 is_stmt 1 view .LVU459
 564:Src/draw.c    ****   {
 1959              		.loc 1 564 11 is_stmt 0 view .LVU460
 1960 002c 0329     		cmp	r1, #3
 1961 002e 12D0     		beq	.L187
 568:Src/draw.c    ****   {
 1962              		.loc 1 568 8 is_stmt 1 view .LVU461
 568:Src/draw.c    ****   {
 1963              		.loc 1 568 11 is_stmt 0 view .LVU462
 1964 0030 0429     		cmp	r1, #4
 1965 0032 12D0     		beq	.L188
 548:Src/draw.c    ****   if ((font4x6[index][1] & 1) == 1)
 1966              		.loc 1 548 17 view .LVU463
 1967 0034 0020     		movs	r0, #0
 1968 0036 F2E7     		b	.L179
 1969              	.L185:
 557:Src/draw.c    ****   }
 1970              		.loc 1 557 5 is_stmt 1 view .LVU464
 557:Src/draw.c    ****   }
 1971              		.loc 1 557 28 is_stmt 0 view .LVU465
 1972 0038 094B     		ldr	r3, .L189
 1973 003a 13F81000 		ldrb	r0, [r3, r0, lsl #1]	@ zero_extendqisi2
 557:Src/draw.c    ****   }
ARM GAS  /var/folders/hv/f19l0kw128sbpybv1h43gz3c0000gn/T//cch93GUf.s 			page 48


 1974              		.loc 1 557 11 view .LVU466
 1975 003e 4008     		lsrs	r0, r0, #1
 1976              	.LVL211:
 557:Src/draw.c    ****   }
 1977              		.loc 1 557 11 view .LVU467
 1978 0040 EDE7     		b	.L179
 1979              	.LVL212:
 1980              	.L186:
 562:Src/draw.c    ****   }
 1981              		.loc 1 562 5 is_stmt 1 view .LVU468
 562:Src/draw.c    ****   }
 1982              		.loc 1 562 29 is_stmt 0 view .LVU469
 1983 0042 074A     		ldr	r2, .L189
 1984 0044 12F81000 		ldrb	r0, [r2, r0, lsl #1]	@ zero_extendqisi2
 562:Src/draw.c    ****   }
 1985              		.loc 1 562 42 view .LVU470
 1986 0048 8000     		lsls	r0, r0, #2
 1987 004a 00F00C00 		and	r0, r0, #12
 562:Src/draw.c    ****   }
 1988              		.loc 1 562 72 view .LVU471
 1989 004e 03F00203 		and	r3, r3, #2
 562:Src/draw.c    ****   }
 1990              		.loc 1 562 48 view .LVU472
 1991 0052 1843     		orrs	r0, r0, r3
 1992 0054 7047     		bx	lr
 1993              	.L187:
 566:Src/draw.c    ****   }
 1994              		.loc 1 566 5 is_stmt 1 view .LVU473
 566:Src/draw.c    ****   }
 1995              		.loc 1 566 11 is_stmt 0 view .LVU474
 1996 0056 1809     		lsrs	r0, r3, #4
 1997              	.LVL213:
 566:Src/draw.c    ****   }
 1998              		.loc 1 566 11 view .LVU475
 1999 0058 E1E7     		b	.L179
 2000              	.LVL214:
 2001              	.L188:
 570:Src/draw.c    ****   }
 2002              		.loc 1 570 5 is_stmt 1 view .LVU476
 570:Src/draw.c    ****   }
 2003              		.loc 1 570 11 is_stmt 0 view .LVU477
 2004 005a 5808     		lsrs	r0, r3, #1
 2005              	.LVL215:
 570:Src/draw.c    ****   }
 2006              		.loc 1 570 11 view .LVU478
 2007 005c DFE7     		b	.L179
 2008              	.L190:
 2009 005e 00BF     		.align	2
 2010              	.L189:
 2011 0060 00000000 		.word	.LANCHOR3
 2012              		.cfi_endproc
 2013              	.LFE86:
 2015              		.section	.text.drawLetter,"ax",%progbits
 2016              		.align	1
 2017              		.global	drawLetter
 2018              		.syntax unified
 2019              		.thumb
ARM GAS  /var/folders/hv/f19l0kw128sbpybv1h43gz3c0000gn/T//cch93GUf.s 			page 49


 2020              		.thumb_func
 2021              		.fpu softvfp
 2023              	drawLetter:
 2024              	.LVL216:
 2025              	.LFB87:
 574:Src/draw.c    **** 
 575:Src/draw.c    **** void drawLetter(char letter, uint8_t px, uint8_t py)
 576:Src/draw.c    **** {
 2026              		.loc 1 576 1 is_stmt 1 view -0
 2027              		.cfi_startproc
 2028              		@ args = 0, pretend = 0, frame = 0
 2029              		@ frame_needed = 0, uses_anonymous_args = 0
 2030              		.loc 1 576 1 is_stmt 0 view .LVU480
 2031 0000 2DE9F047 		push	{r4, r5, r6, r7, r8, r9, r10, lr}
 2032              	.LCFI20:
 2033              		.cfi_def_cfa_offset 32
 2034              		.cfi_offset 4, -32
 2035              		.cfi_offset 5, -28
 2036              		.cfi_offset 6, -24
 2037              		.cfi_offset 7, -20
 2038              		.cfi_offset 8, -16
 2039              		.cfi_offset 9, -12
 2040              		.cfi_offset 10, -8
 2041              		.cfi_offset 14, -4
 2042 0004 8146     		mov	r9, r0
 2043 0006 0C46     		mov	r4, r1
 2044 0008 9046     		mov	r8, r2
 577:Src/draw.c    ****   uint8_t fill;
 2045              		.loc 1 577 3 is_stmt 1 view .LVU481
 578:Src/draw.c    ****   for (uint8_t y = py, l = 0; y <= (py + 5); y++, l++)
 2046              		.loc 1 578 3 view .LVU482
 2047              	.LBB58:
 2048              		.loc 1 578 8 view .LVU483
 2049              	.LVL217:
 2050              		.loc 1 578 16 is_stmt 0 view .LVU484
 2051 000a 1546     		mov	r5, r2
 2052              		.loc 1 578 24 view .LVU485
 2053 000c 0027     		movs	r7, #0
 2054              		.loc 1 578 3 view .LVU486
 2055 000e 30E0     		b	.L192
 2056              	.LVL218:
 2057              	.L196:
 2058              	.LBB59:
 579:Src/draw.c    ****   {
 580:Src/draw.c    ****     if (y > NCOLSL)
 581:Src/draw.c    ****       break;
 582:Src/draw.c    ****     fill = getFontLine(letter, l);
 583:Src/draw.c    ****     for (uint8_t x = px, aX = 3; x <= (px + 3); x++, aX--)
 584:Src/draw.c    ****     {
 585:Src/draw.c    ****       if (fill & (1u << aX))
 586:Src/draw.c    ****       {
 587:Src/draw.c    **** #if COLOR_1BIT
 588:Src/draw.c    ****         BIT_SET(textLayer[DIV_8(x + (y * NCOLS))], REST_8(x + (y * NCOLS)));
 2059              		.loc 1 588 9 view .LVU487
 2060 0010 4FEAEC0C 		asr	ip, ip, #3
 2061 0014 D3F1000E 		rsbs	lr, r3, #0
 2062 0018 03F00703 		and	r3, r3, #7
ARM GAS  /var/folders/hv/f19l0kw128sbpybv1h43gz3c0000gn/T//cch93GUf.s 			page 50


 2063 001c 0EF0070E 		and	lr, lr, #7
 2064 0020 58BF     		it	pl
 2065 0022 CEF10003 		rsbpl	r3, lr, #0
 2066 0026 4FF0010E 		mov	lr, #1
 2067 002a 0EFA03FE 		lsl	lr, lr, r3
 2068 002e DFF864A0 		ldr	r10, .L201
 2069 0032 1AF80C30 		ldrb	r3, [r10, ip]	@ zero_extendqisi2
 2070 0036 43EA0E03 		orr	r3, r3, lr
 2071 003a 0AF80C30 		strb	r3, [r10, ip]
 2072              	.L195:
 583:Src/draw.c    ****     {
 2073              		.loc 1 583 50 discriminator 2 view .LVU488
 2074 003e 0132     		adds	r2, r2, #1
 2075              	.LVL219:
 583:Src/draw.c    ****     {
 2076              		.loc 1 583 50 discriminator 2 view .LVU489
 2077 0040 D2B2     		uxtb	r2, r2
 2078              	.LVL220:
 583:Src/draw.c    ****     {
 2079              		.loc 1 583 56 discriminator 2 view .LVU490
 2080 0042 0139     		subs	r1, r1, #1
 2081              	.LVL221:
 583:Src/draw.c    ****     {
 2082              		.loc 1 583 56 discriminator 2 view .LVU491
 2083 0044 C9B2     		uxtb	r1, r1
 2084              	.LVL222:
 2085              	.L194:
 583:Src/draw.c    ****     {
 2086              		.loc 1 583 36 discriminator 1 view .LVU492
 2087 0046 1346     		mov	r3, r2
 583:Src/draw.c    ****     {
 2088              		.loc 1 583 43 discriminator 1 view .LVU493
 2089 0048 04F1030C 		add	ip, r4, #3
 583:Src/draw.c    ****     {
 2090              		.loc 1 583 5 discriminator 1 view .LVU494
 2091 004c 6245     		cmp	r2, ip
 2092 004e 0CDC     		bgt	.L200
 585:Src/draw.c    ****       {
 2093              		.loc 1 585 7 is_stmt 1 view .LVU495
 585:Src/draw.c    ****       {
 2094              		.loc 1 585 11 is_stmt 0 view .LVU496
 2095 0050 20FA01FC 		lsr	ip, r0, r1
 585:Src/draw.c    ****       {
 2096              		.loc 1 585 10 view .LVU497
 2097 0054 1CF0010F 		tst	ip, #1
 2098 0058 F1D0     		beq	.L195
 2099              		.loc 1 588 9 is_stmt 1 view .LVU498
 2100 005a 03EB0613 		add	r3, r3, r6, lsl #4
 2101 005e 9C46     		mov	ip, r3
 2102 0060 002B     		cmp	r3, #0
 2103 0062 D5DA     		bge	.L196
 2104 0064 03F1070C 		add	ip, r3, #7
 2105 0068 D2E7     		b	.L196
 2106              	.L200:
 2107              	.LBE59:
 578:Src/draw.c    ****   {
 2108              		.loc 1 578 47 is_stmt 0 discriminator 2 view .LVU499
ARM GAS  /var/folders/hv/f19l0kw128sbpybv1h43gz3c0000gn/T//cch93GUf.s 			page 51


 2109 006a 0135     		adds	r5, r5, #1
 2110              	.LVL223:
 578:Src/draw.c    ****   {
 2111              		.loc 1 578 47 discriminator 2 view .LVU500
 2112 006c EDB2     		uxtb	r5, r5
 2113              	.LVL224:
 578:Src/draw.c    ****   {
 2114              		.loc 1 578 52 discriminator 2 view .LVU501
 2115 006e 0137     		adds	r7, r7, #1
 2116              	.LVL225:
 578:Src/draw.c    ****   {
 2117              		.loc 1 578 52 discriminator 2 view .LVU502
 2118 0070 FFB2     		uxtb	r7, r7
 2119              	.LVL226:
 2120              	.L192:
 578:Src/draw.c    ****   {
 2121              		.loc 1 578 33 discriminator 1 view .LVU503
 2122 0072 2E46     		mov	r6, r5
 578:Src/draw.c    ****   {
 2123              		.loc 1 578 40 discriminator 1 view .LVU504
 2124 0074 08F10503 		add	r3, r8, #5
 578:Src/draw.c    ****   {
 2125              		.loc 1 578 3 discriminator 1 view .LVU505
 2126 0078 9D42     		cmp	r5, r3
 2127 007a 08DC     		bgt	.L191
 580:Src/draw.c    ****       break;
 2128              		.loc 1 580 5 is_stmt 1 view .LVU506
 580:Src/draw.c    ****       break;
 2129              		.loc 1 580 8 is_stmt 0 view .LVU507
 2130 007c 0F2D     		cmp	r5, #15
 2131 007e 06D8     		bhi	.L191
 582:Src/draw.c    ****     for (uint8_t x = px, aX = 3; x <= (px + 3); x++, aX--)
 2132              		.loc 1 582 5 is_stmt 1 view .LVU508
 582:Src/draw.c    ****     for (uint8_t x = px, aX = 3; x <= (px + 3); x++, aX--)
 2133              		.loc 1 582 12 is_stmt 0 view .LVU509
 2134 0080 3946     		mov	r1, r7
 2135 0082 4846     		mov	r0, r9
 2136 0084 FFF7FEFF 		bl	getFontLine
 2137              	.LVL227:
 583:Src/draw.c    ****     {
 2138              		.loc 1 583 5 is_stmt 1 view .LVU510
 2139              	.LBB60:
 583:Src/draw.c    ****     {
 2140              		.loc 1 583 10 view .LVU511
 583:Src/draw.c    ****     {
 2141              		.loc 1 583 18 is_stmt 0 view .LVU512
 2142 0088 2246     		mov	r2, r4
 583:Src/draw.c    ****     {
 2143              		.loc 1 583 26 view .LVU513
 2144 008a 0321     		movs	r1, #3
 583:Src/draw.c    ****     {
 2145              		.loc 1 583 5 view .LVU514
 2146 008c DBE7     		b	.L194
 2147              	.LVL228:
 2148              	.L191:
 583:Src/draw.c    ****     {
 2149              		.loc 1 583 5 view .LVU515
ARM GAS  /var/folders/hv/f19l0kw128sbpybv1h43gz3c0000gn/T//cch93GUf.s 			page 52


 2150              	.LBE60:
 2151              	.LBE58:
 589:Src/draw.c    **** #else
 590:Src/draw.c    ****         setColor(textLayer[x + (y * NCOLS)], textColor);
 591:Src/draw.c    **** #endif
 592:Src/draw.c    ****       }
 593:Src/draw.c    ****     }
 594:Src/draw.c    ****   }
 595:Src/draw.c    **** }
 2152              		.loc 1 595 1 view .LVU516
 2153 008e BDE8F087 		pop	{r4, r5, r6, r7, r8, r9, r10, pc}
 2154              	.LVL229:
 2155              	.L202:
 2156              		.loc 1 595 1 view .LVU517
 2157 0092 00BF     		.align	2
 2158              	.L201:
 2159 0094 00000000 		.word	textLayer
 2160              		.cfi_endproc
 2161              	.LFE87:
 2163              		.section	.text.drawString,"ax",%progbits
 2164              		.align	1
 2165              		.global	drawString
 2166              		.syntax unified
 2167              		.thumb
 2168              		.thumb_func
 2169              		.fpu softvfp
 2171              	drawString:
 2172              	.LVL230:
 2173              	.LFB89:
 596:Src/draw.c    **** 
 597:Src/draw.c    **** void drawCenter(char *frase, uint8_t spacex, uint8_t spacey)
 598:Src/draw.c    **** {
 599:Src/draw.c    ****   uint8_t len = strlen(frase) * (3 + spacex);
 600:Src/draw.c    ****   int8_t px = (NCOLS - len) / 2;
 601:Src/draw.c    ****   len = (5 + spacey);
 602:Src/draw.c    ****   int8_t py = (NCOLS - len) / 2;
 603:Src/draw.c    ****   px = px < 0 ? 0 : px;
 604:Src/draw.c    ****   drawString(frase, px, py, spacex, spacey);
 605:Src/draw.c    **** }
 606:Src/draw.c    **** 
 607:Src/draw.c    **** void drawString(char *frase, uint8_t px, uint8_t py, uint8_t spacex, uint8_t spacey)
 608:Src/draw.c    **** {
 2174              		.loc 1 608 1 is_stmt 1 view -0
 2175              		.cfi_startproc
 2176              		@ args = 4, pretend = 0, frame = 0
 2177              		@ frame_needed = 0, uses_anonymous_args = 0
 2178              		.loc 1 608 1 is_stmt 0 view .LVU519
 2179 0000 2DE9F84F 		push	{r3, r4, r5, r6, r7, r8, r9, r10, fp, lr}
 2180              	.LCFI21:
 2181              		.cfi_def_cfa_offset 40
 2182              		.cfi_offset 3, -40
 2183              		.cfi_offset 4, -36
 2184              		.cfi_offset 5, -32
 2185              		.cfi_offset 6, -28
 2186              		.cfi_offset 7, -24
 2187              		.cfi_offset 8, -20
 2188              		.cfi_offset 9, -16
ARM GAS  /var/folders/hv/f19l0kw128sbpybv1h43gz3c0000gn/T//cch93GUf.s 			page 53


 2189              		.cfi_offset 10, -12
 2190              		.cfi_offset 11, -8
 2191              		.cfi_offset 14, -4
 2192 0004 0746     		mov	r7, r0
 2193 0006 8846     		mov	r8, r1
 2194 0008 9346     		mov	fp, r2
 2195 000a 9A46     		mov	r10, r3
 2196 000c 9DF82890 		ldrb	r9, [sp, #40]	@ zero_extendqisi2
 609:Src/draw.c    ****   uint8_t posX, incX = 0, posY, nLine = 0;
 2197              		.loc 1 609 3 is_stmt 1 view .LVU520
 2198              	.LVL231:
 610:Src/draw.c    ****   for (size_t i = 0; i < strlen(frase); i++)
 2199              		.loc 1 610 3 view .LVU521
 2200              	.LBB61:
 2201              		.loc 1 610 8 view .LVU522
 2202              		.loc 1 610 15 is_stmt 0 view .LVU523
 2203 0010 0025     		movs	r5, #0
 2204              	.LBE61:
 609:Src/draw.c    ****   uint8_t posX, incX = 0, posY, nLine = 0;
 2205              		.loc 1 609 33 view .LVU524
 2206 0012 2E46     		mov	r6, r5
 609:Src/draw.c    ****   uint8_t posX, incX = 0, posY, nLine = 0;
 2207              		.loc 1 609 17 view .LVU525
 2208 0014 2C46     		mov	r4, r5
 2209              	.LBB62:
 2210              		.loc 1 610 3 view .LVU526
 2211 0016 0CE0     		b	.L204
 2212              	.LVL232:
 2213              	.L205:
 611:Src/draw.c    ****   {
 612:Src/draw.c    ****     // posX = (char)frase[i] == (char)32 ? (i * 3) + px - 1 : (i * (3 + spacex)) + px;
 613:Src/draw.c    ****     posX = incX * (3 + spacex) + px;
 614:Src/draw.c    ****     if (posX + ((3 + spacex)) > NCOLS - 2)
 615:Src/draw.c    ****     {
 616:Src/draw.c    ****       posX = px;
 617:Src/draw.c    ****       nLine++;
 618:Src/draw.c    ****       incX = 0;
 619:Src/draw.c    ****     }
 620:Src/draw.c    ****     posY = nLine * (5 + spacey) + py;
 2214              		.loc 1 620 5 is_stmt 1 discriminator 2 view .LVU527
 2215              		.loc 1 620 33 is_stmt 0 discriminator 2 view .LVU528
 2216 0018 09F10502 		add	r2, r9, #5
 2217 001c 02FB06F2 		mul	r2, r2, r6
 2218 0020 D2B2     		uxtb	r2, r2
 2219              		.loc 1 620 10 discriminator 2 view .LVU529
 2220 0022 5A44     		add	r2, r2, fp
 2221              	.LVL233:
 621:Src/draw.c    ****     drawLetter(frase[i], posX, posY);
 2222              		.loc 1 621 5 is_stmt 1 discriminator 2 view .LVU530
 2223 0024 D2B2     		uxtb	r2, r2
 2224              		.loc 1 621 5 is_stmt 0 discriminator 2 view .LVU531
 2225 0026 785D     		ldrb	r0, [r7, r5]	@ zero_extendqisi2
 2226 0028 FFF7FEFF 		bl	drawLetter
 2227              	.LVL234:
 622:Src/draw.c    ****     // posX = (posI - (nLine * (NCOLS - 3))) + 1;
 623:Src/draw.c    ****     incX++;
 2228              		.loc 1 623 5 is_stmt 1 discriminator 2 view .LVU532
ARM GAS  /var/folders/hv/f19l0kw128sbpybv1h43gz3c0000gn/T//cch93GUf.s 			page 54


 2229              		.loc 1 623 9 is_stmt 0 discriminator 2 view .LVU533
 2230 002c 0134     		adds	r4, r4, #1
 2231              	.LVL235:
 2232              		.loc 1 623 9 discriminator 2 view .LVU534
 2233 002e E4B2     		uxtb	r4, r4
 2234              	.LVL236:
 610:Src/draw.c    ****   {
 2235              		.loc 1 610 42 discriminator 2 view .LVU535
 2236 0030 0135     		adds	r5, r5, #1
 2237              	.LVL237:
 2238              	.L204:
 610:Src/draw.c    ****   {
 2239              		.loc 1 610 26 discriminator 1 view .LVU536
 2240 0032 3846     		mov	r0, r7
 2241 0034 FFF7FEFF 		bl	strlen
 2242              	.LVL238:
 610:Src/draw.c    ****   {
 2243              		.loc 1 610 3 discriminator 1 view .LVU537
 2244 0038 A842     		cmp	r0, r5
 2245 003a 0ED9     		bls	.L208
 613:Src/draw.c    ****     if (posX + ((3 + spacex)) > NCOLS - 2)
 2246              		.loc 1 613 5 is_stmt 1 view .LVU538
 613:Src/draw.c    ****     if (posX + ((3 + spacex)) > NCOLS - 2)
 2247              		.loc 1 613 32 is_stmt 0 view .LVU539
 2248 003c 0AF10303 		add	r3, r10, #3
 2249 0040 03FB04F1 		mul	r1, r3, r4
 2250 0044 C9B2     		uxtb	r1, r1
 613:Src/draw.c    ****     if (posX + ((3 + spacex)) > NCOLS - 2)
 2251              		.loc 1 613 10 view .LVU540
 2252 0046 4144     		add	r1, r1, r8
 2253 0048 C9B2     		uxtb	r1, r1
 2254              	.LVL239:
 614:Src/draw.c    ****     {
 2255              		.loc 1 614 5 is_stmt 1 view .LVU541
 614:Src/draw.c    ****     {
 2256              		.loc 1 614 14 is_stmt 0 view .LVU542
 2257 004a 0B44     		add	r3, r3, r1
 614:Src/draw.c    ****     {
 2258              		.loc 1 614 8 view .LVU543
 2259 004c 0E2B     		cmp	r3, #14
 2260 004e E3DD     		ble	.L205
 616:Src/draw.c    ****       nLine++;
 2261              		.loc 1 616 7 is_stmt 1 view .LVU544
 2262              	.LVL240:
 617:Src/draw.c    ****       incX = 0;
 2263              		.loc 1 617 7 view .LVU545
 617:Src/draw.c    ****       incX = 0;
 2264              		.loc 1 617 12 is_stmt 0 view .LVU546
 2265 0050 0136     		adds	r6, r6, #1
 2266              	.LVL241:
 617:Src/draw.c    ****       incX = 0;
 2267              		.loc 1 617 12 view .LVU547
 2268 0052 F6B2     		uxtb	r6, r6
 2269              	.LVL242:
 618:Src/draw.c    ****     }
 2270              		.loc 1 618 7 is_stmt 1 view .LVU548
 616:Src/draw.c    ****       nLine++;
ARM GAS  /var/folders/hv/f19l0kw128sbpybv1h43gz3c0000gn/T//cch93GUf.s 			page 55


 2271              		.loc 1 616 12 is_stmt 0 view .LVU549
 2272 0054 4146     		mov	r1, r8
 618:Src/draw.c    ****     }
 2273              		.loc 1 618 12 view .LVU550
 2274 0056 0024     		movs	r4, #0
 2275 0058 DEE7     		b	.L205
 2276              	.LVL243:
 2277              	.L208:
 618:Src/draw.c    ****     }
 2278              		.loc 1 618 12 view .LVU551
 2279              	.LBE62:
 624:Src/draw.c    ****   }
 625:Src/draw.c    **** }
 2280              		.loc 1 625 1 view .LVU552
 2281 005a BDE8F88F 		pop	{r3, r4, r5, r6, r7, r8, r9, r10, fp, pc}
 2282              		.loc 1 625 1 view .LVU553
 2283              		.cfi_endproc
 2284              	.LFE89:
 2286              		.section	.text.drawCenter,"ax",%progbits
 2287              		.align	1
 2288              		.global	drawCenter
 2289              		.syntax unified
 2290              		.thumb
 2291              		.thumb_func
 2292              		.fpu softvfp
 2294              	drawCenter:
 2295              	.LVL244:
 2296              	.LFB88:
 598:Src/draw.c    ****   uint8_t len = strlen(frase) * (3 + spacex);
 2297              		.loc 1 598 1 is_stmt 1 view -0
 2298              		.cfi_startproc
 2299              		@ args = 0, pretend = 0, frame = 0
 2300              		@ frame_needed = 0, uses_anonymous_args = 0
 598:Src/draw.c    ****   uint8_t len = strlen(frase) * (3 + spacex);
 2301              		.loc 1 598 1 is_stmt 0 view .LVU555
 2302 0000 70B5     		push	{r4, r5, r6, lr}
 2303              	.LCFI22:
 2304              		.cfi_def_cfa_offset 16
 2305              		.cfi_offset 4, -16
 2306              		.cfi_offset 5, -12
 2307              		.cfi_offset 6, -8
 2308              		.cfi_offset 14, -4
 2309 0002 82B0     		sub	sp, sp, #8
 2310              	.LCFI23:
 2311              		.cfi_def_cfa_offset 24
 2312 0004 0646     		mov	r6, r0
 2313 0006 0C46     		mov	r4, r1
 2314 0008 1546     		mov	r5, r2
 599:Src/draw.c    ****   int8_t px = (NCOLS - len) / 2;
 2315              		.loc 1 599 3 is_stmt 1 view .LVU556
 599:Src/draw.c    ****   int8_t px = (NCOLS - len) / 2;
 2316              		.loc 1 599 17 is_stmt 0 view .LVU557
 2317 000a FFF7FEFF 		bl	strlen
 2318              	.LVL245:
 599:Src/draw.c    ****   int8_t px = (NCOLS - len) / 2;
 2319              		.loc 1 599 11 view .LVU558
 2320 000e E31C     		adds	r3, r4, #3
ARM GAS  /var/folders/hv/f19l0kw128sbpybv1h43gz3c0000gn/T//cch93GUf.s 			page 56


 2321 0010 03FB00F0 		mul	r0, r3, r0
 2322 0014 C0B2     		uxtb	r0, r0
 2323              	.LVL246:
 600:Src/draw.c    ****   len = (5 + spacey);
 2324              		.loc 1 600 3 is_stmt 1 view .LVU559
 600:Src/draw.c    ****   len = (5 + spacey);
 2325              		.loc 1 600 22 is_stmt 0 view .LVU560
 2326 0016 C0F11000 		rsb	r0, r0, #16
 2327              	.LVL247:
 600:Src/draw.c    ****   len = (5 + spacey);
 2328              		.loc 1 600 29 view .LVU561
 2329 001a 00EBD071 		add	r1, r0, r0, lsr #31
 600:Src/draw.c    ****   len = (5 + spacey);
 2330              		.loc 1 600 10 view .LVU562
 2331 001e 41F34701 		sbfx	r1, r1, #1, #8
 2332              	.LVL248:
 601:Src/draw.c    ****   int8_t py = (NCOLS - len) / 2;
 2333              		.loc 1 601 3 is_stmt 1 view .LVU563
 601:Src/draw.c    ****   int8_t py = (NCOLS - len) / 2;
 2334              		.loc 1 601 7 is_stmt 0 view .LVU564
 2335 0022 6A1D     		adds	r2, r5, #5
 2336 0024 D2B2     		uxtb	r2, r2
 2337              	.LVL249:
 602:Src/draw.c    ****   px = px < 0 ? 0 : px;
 2338              		.loc 1 602 3 is_stmt 1 view .LVU565
 602:Src/draw.c    ****   px = px < 0 ? 0 : px;
 2339              		.loc 1 602 22 is_stmt 0 view .LVU566
 2340 0026 C2F11002 		rsb	r2, r2, #16
 2341              	.LVL250:
 602:Src/draw.c    ****   px = px < 0 ? 0 : px;
 2342              		.loc 1 602 29 view .LVU567
 2343 002a 02EBD272 		add	r2, r2, r2, lsr #31
 2344              	.LVL251:
 603:Src/draw.c    ****   drawString(frase, px, py, spacex, spacey);
 2345              		.loc 1 603 3 is_stmt 1 view .LVU568
 603:Src/draw.c    ****   drawString(frase, px, py, spacex, spacey);
 2346              		.loc 1 603 6 is_stmt 0 view .LVU569
 2347 002e 21EAE171 		bic	r1, r1, r1, asr #31
 2348              	.LVL252:
 604:Src/draw.c    **** }
 2349              		.loc 1 604 3 is_stmt 1 view .LVU570
 2350 0032 0095     		str	r5, [sp]
 2351 0034 2346     		mov	r3, r4
 2352 0036 C2F34702 		ubfx	r2, r2, #1, #8
 2353              	.LVL253:
 604:Src/draw.c    **** }
 2354              		.loc 1 604 3 is_stmt 0 view .LVU571
 2355 003a C9B2     		uxtb	r1, r1
 604:Src/draw.c    **** }
 2356              		.loc 1 604 3 view .LVU572
 2357 003c 3046     		mov	r0, r6
 2358 003e FFF7FEFF 		bl	drawString
 2359              	.LVL254:
 605:Src/draw.c    **** 
 2360              		.loc 1 605 1 view .LVU573
 2361 0042 02B0     		add	sp, sp, #8
 2362              	.LCFI24:
ARM GAS  /var/folders/hv/f19l0kw128sbpybv1h43gz3c0000gn/T//cch93GUf.s 			page 57


 2363              		.cfi_def_cfa_offset 16
 2364              		@ sp needed
 2365 0044 70BD     		pop	{r4, r5, r6, pc}
 605:Src/draw.c    **** 
 2366              		.loc 1 605 1 view .LVU574
 2367              		.cfi_endproc
 2368              	.LFE88:
 2370              		.section	.text.checkSequence,"ax",%progbits
 2371              		.align	1
 2372              		.global	checkSequence
 2373              		.syntax unified
 2374              		.thumb
 2375              		.thumb_func
 2376              		.fpu softvfp
 2378              	checkSequence:
 2379              	.LFB84:
 504:Src/draw.c    ****   uint8_t arrayLen = ARRAY_LEN(noteSequence);
 2380              		.loc 1 504 1 is_stmt 1 view -0
 2381              		.cfi_startproc
 2382              		@ args = 0, pretend = 0, frame = 0
 2383              		@ frame_needed = 0, uses_anonymous_args = 0
 2384 0000 F8B5     		push	{r3, r4, r5, r6, r7, lr}
 2385              	.LCFI25:
 2386              		.cfi_def_cfa_offset 24
 2387              		.cfi_offset 3, -24
 2388              		.cfi_offset 4, -20
 2389              		.cfi_offset 5, -16
 2390              		.cfi_offset 6, -12
 2391              		.cfi_offset 7, -8
 2392              		.cfi_offset 14, -4
 505:Src/draw.c    ****   uint8_t cnt = 0;
 2393              		.loc 1 505 3 view .LVU576
 2394              	.LVL255:
 506:Src/draw.c    ****   // uint8_t blue[3] = {1, 1, 20};
 2395              		.loc 1 506 3 view .LVU577
 508:Src/draw.c    ****   {
 2396              		.loc 1 508 3 view .LVU578
 2397              	.LBB63:
 508:Src/draw.c    ****   {
 2398              		.loc 1 508 8 view .LVU579
 508:Src/draw.c    ****   {
 2399              		.loc 1 508 16 is_stmt 0 view .LVU580
 2400 0002 0025     		movs	r5, #0
 2401              	.LBE63:
 506:Src/draw.c    ****   // uint8_t blue[3] = {1, 1, 20};
 2402              		.loc 1 506 11 view .LVU581
 2403 0004 2E46     		mov	r6, r5
 2404              	.LBB68:
 508:Src/draw.c    ****   {
 2405              		.loc 1 508 3 view .LVU582
 2406 0006 2AE0     		b	.L212
 2407              	.LVL256:
 2408              	.L219:
 2409              	.LBB64:
 2410              	.LBB65:
 518:Src/draw.c    ****           // drawString(noteSequence[j].word, 1, 24, 1, 0);
 2411              		.loc 1 518 11 is_stmt 1 view .LVU583
ARM GAS  /var/folders/hv/f19l0kw128sbpybv1h43gz3c0000gn/T//cch93GUf.s 			page 58


 2412 0008 FFF7FEFF 		bl	clearText
 2413              	.LVL257:
 520:Src/draw.c    ****         }
 2414              		.loc 1 520 11 view .LVU584
 520:Src/draw.c    ****         }
 2415              		.loc 1 520 37 is_stmt 0 view .LVU585
 2416 000c 05EBC500 		add	r0, r5, r5, lsl #3
 2417 0010 05EB4000 		add	r0, r5, r0, lsl #1
 2418 0014 0830     		adds	r0, r0, #8
 2419 0016 144F     		ldr	r7, .L221
 2420 0018 3844     		add	r0, r0, r7
 520:Src/draw.c    ****         }
 2421              		.loc 1 520 11 view .LVU586
 2422 001a 0022     		movs	r2, #0
 2423 001c 0121     		movs	r1, #1
 2424 001e 0844     		add	r0, r0, r1
 2425 0020 FFF7FEFF 		bl	drawCenter
 2426              	.LVL258:
 2427              	.L214:
 511:Src/draw.c    ****     {
 2428              		.loc 1 511 35 discriminator 2 view .LVU587
 2429 0024 0134     		adds	r4, r4, #1
 2430              	.LVL259:
 511:Src/draw.c    ****     {
 2431              		.loc 1 511 35 discriminator 2 view .LVU588
 2432 0026 E4B2     		uxtb	r4, r4
 2433              	.LVL260:
 2434              	.L216:
 511:Src/draw.c    ****     {
 2435              		.loc 1 511 5 discriminator 1 view .LVU589
 2436 0028 022C     		cmp	r4, #2
 2437 002a 16D8     		bhi	.L213
 513:Src/draw.c    ****       {
 2438              		.loc 1 513 7 is_stmt 1 view .LVU590
 513:Src/draw.c    ****       {
 2439              		.loc 1 513 29 is_stmt 0 view .LVU591
 2440 002c 04EB4402 		add	r2, r4, r4, lsl #1
 2441 0030 5300     		lsls	r3, r2, #1
 2442 0032 0E4A     		ldr	r2, .L221+4
 2443 0034 D15C     		ldrb	r1, [r2, r3]	@ zero_extendqisi2
 513:Src/draw.c    ****       {
 2444              		.loc 1 513 69 view .LVU592
 2445 0036 C4F10203 		rsb	r3, r4, #2
 513:Src/draw.c    ****       {
 2446              		.loc 1 513 73 view .LVU593
 2447 003a 03EB4303 		add	r3, r3, r3, lsl #1
 2448 003e 05EBC502 		add	r2, r5, r5, lsl #3
 2449 0042 05EB4202 		add	r2, r5, r2, lsl #1
 2450 0046 1344     		add	r3, r3, r2
 2451 0048 074A     		ldr	r2, .L221
 2452 004a D35C     		ldrb	r3, [r2, r3]	@ zero_extendqisi2
 513:Src/draw.c    ****       {
 2453              		.loc 1 513 10 view .LVU594
 2454 004c 9942     		cmp	r1, r3
 2455 004e 04D1     		bne	.L213
 515:Src/draw.c    ****         if (cnt == len)
 2456              		.loc 1 515 9 is_stmt 1 view .LVU595
ARM GAS  /var/folders/hv/f19l0kw128sbpybv1h43gz3c0000gn/T//cch93GUf.s 			page 59


 515:Src/draw.c    ****         if (cnt == len)
 2457              		.loc 1 515 12 is_stmt 0 view .LVU596
 2458 0050 0136     		adds	r6, r6, #1
 2459              	.LVL261:
 515:Src/draw.c    ****         if (cnt == len)
 2460              		.loc 1 515 12 view .LVU597
 2461 0052 F6B2     		uxtb	r6, r6
 2462              	.LVL262:
 516:Src/draw.c    ****         {
 2463              		.loc 1 516 9 is_stmt 1 view .LVU598
 516:Src/draw.c    ****         {
 2464              		.loc 1 516 12 is_stmt 0 view .LVU599
 2465 0054 032E     		cmp	r6, #3
 2466 0056 E5D1     		bne	.L214
 2467 0058 D6E7     		b	.L219
 2468              	.L213:
 516:Src/draw.c    ****         {
 2469              		.loc 1 516 12 view .LVU600
 2470              	.LBE65:
 2471              	.LBE64:
 508:Src/draw.c    ****   {
 2472              		.loc 1 508 38 discriminator 2 view .LVU601
 2473 005a 0135     		adds	r5, r5, #1
 2474              	.LVL263:
 508:Src/draw.c    ****   {
 2475              		.loc 1 508 38 discriminator 2 view .LVU602
 2476 005c EDB2     		uxtb	r5, r5
 2477              	.LVL264:
 2478              	.L212:
 508:Src/draw.c    ****   {
 2479              		.loc 1 508 3 discriminator 1 view .LVU603
 2480 005e 052D     		cmp	r5, #5
 2481 0060 01D8     		bhi	.L220
 2482              	.LBB67:
 2483              	.LBB66:
 511:Src/draw.c    ****     {
 2484              		.loc 1 511 18 view .LVU604
 2485 0062 0024     		movs	r4, #0
 2486 0064 E0E7     		b	.L216
 2487              	.L220:
 2488              	.LBE66:
 2489              	.LBE67:
 2490              	.LBE68:
 527:Src/draw.c    **** 
 2491              		.loc 1 527 1 view .LVU605
 2492 0066 F8BD     		pop	{r3, r4, r5, r6, r7, pc}
 2493              	.LVL265:
 2494              	.L222:
 527:Src/draw.c    **** 
 2495              		.loc 1 527 1 view .LVU606
 2496              		.align	2
 2497              	.L221:
 2498 0068 00000000 		.word	noteSequence
 2499 006c 00000000 		.word	noteBuffer
 2500              		.cfi_endproc
 2501              	.LFE84:
 2503              		.section	.text.drawNote,"ax",%progbits
ARM GAS  /var/folders/hv/f19l0kw128sbpybv1h43gz3c0000gn/T//cch93GUf.s 			page 60


 2504              		.align	1
 2505              		.global	drawNote
 2506              		.syntax unified
 2507              		.thumb
 2508              		.thumb_func
 2509              		.fpu softvfp
 2511              	drawNote:
 2512              	.LFB85:
 530:Src/draw.c    ****   // uint8_t red[3] = {20, 1, 1};
 2513              		.loc 1 530 1 is_stmt 1 view -0
 2514              		.cfi_startproc
 2515              		@ args = 0, pretend = 0, frame = 0
 2516              		@ frame_needed = 0, uses_anonymous_args = 0
 2517 0000 08B5     		push	{r3, lr}
 2518              	.LCFI26:
 2519              		.cfi_def_cfa_offset 8
 2520              		.cfi_offset 3, -8
 2521              		.cfi_offset 14, -4
 535:Src/draw.c    **** 
 2522              		.loc 1 535 3 view .LVU608
 2523 0002 FFF7FEFF 		bl	checkSequence
 2524              	.LVL266:
 541:Src/draw.c    **** 
 2525              		.loc 1 541 1 is_stmt 0 view .LVU609
 2526 0006 08BD     		pop	{r3, pc}
 2527              		.cfi_endproc
 2528              	.LFE85:
 2530              		.section	.text.drawStringArray,"ax",%progbits
 2531              		.align	1
 2532              		.global	drawStringArray
 2533              		.syntax unified
 2534              		.thumb
 2535              		.thumb_func
 2536              		.fpu softvfp
 2538              	drawStringArray:
 2539              	.LVL267:
 2540              	.LFB90:
 626:Src/draw.c    **** 
 627:Src/draw.c    **** void drawStringArray(uint8_t px, uint8_t py, uint8_t spacex, uint8_t spacey)
 628:Src/draw.c    **** {
 2541              		.loc 1 628 1 is_stmt 1 view -0
 2542              		.cfi_startproc
 2543              		@ args = 0, pretend = 0, frame = 8
 2544              		@ frame_needed = 0, uses_anonymous_args = 0
 2545              		.loc 1 628 1 is_stmt 0 view .LVU611
 2546 0000 2DE9F04F 		push	{r4, r5, r6, r7, r8, r9, r10, fp, lr}
 2547              	.LCFI27:
 2548              		.cfi_def_cfa_offset 36
 2549              		.cfi_offset 4, -36
 2550              		.cfi_offset 5, -32
 2551              		.cfi_offset 6, -28
 2552              		.cfi_offset 7, -24
 2553              		.cfi_offset 8, -20
 2554              		.cfi_offset 9, -16
 2555              		.cfi_offset 10, -12
 2556              		.cfi_offset 11, -8
 2557              		.cfi_offset 14, -4
ARM GAS  /var/folders/hv/f19l0kw128sbpybv1h43gz3c0000gn/T//cch93GUf.s 			page 61


 2558 0004 83B0     		sub	sp, sp, #12
 2559              	.LCFI28:
 2560              		.cfi_def_cfa_offset 48
 2561 0006 8246     		mov	r10, r0
 2562 0008 8B46     		mov	fp, r1
 2563 000a 0092     		str	r2, [sp]
 2564 000c 0193     		str	r3, [sp, #4]
 629:Src/draw.c    ****   uint8_t posX, incX = 0, posY, nLine = 0;
 2565              		.loc 1 629 3 is_stmt 1 view .LVU612
 2566              	.LVL268:
 630:Src/draw.c    ****   char temp;
 2567              		.loc 1 630 3 view .LVU613
 631:Src/draw.c    ****   for (uint8_t j = 0; j < ARRAY_LEN(noteBuffer); j++)
 2568              		.loc 1 631 3 view .LVU614
 2569              	.LBB69:
 2570              		.loc 1 631 8 view .LVU615
 2571              		.loc 1 631 16 is_stmt 0 view .LVU616
 2572 000e 0027     		movs	r7, #0
 2573              	.LBE69:
 629:Src/draw.c    ****   uint8_t posX, incX = 0, posY, nLine = 0;
 2574              		.loc 1 629 33 view .LVU617
 2575 0010 B846     		mov	r8, r7
 629:Src/draw.c    ****   uint8_t posX, incX = 0, posY, nLine = 0;
 2576              		.loc 1 629 17 view .LVU618
 2577 0012 B946     		mov	r9, r7
 2578              	.LBB72:
 2579              		.loc 1 631 3 view .LVU619
 2580 0014 2CE0     		b	.L226
 2581              	.LVL269:
 2582              	.L228:
 2583              	.LBB70:
 632:Src/draw.c    ****   {
 633:Src/draw.c    ****     setTextColor(noteBuffer[j].color);
 634:Src/draw.c    ****     for (uint8_t i = 0; i < 3; i++)
 635:Src/draw.c    ****     {
 636:Src/draw.c    ****       posX = incX * (3 + spacex) + px;
 637:Src/draw.c    ****       if (posX + ((3 + spacex)) > NCOLS - 2)
 638:Src/draw.c    ****       {
 639:Src/draw.c    ****         posX = px;
 640:Src/draw.c    ****         nLine++;
 641:Src/draw.c    ****         incX = 0;
 642:Src/draw.c    ****       }
 643:Src/draw.c    ****       posY = nLine * (5 + spacey) + py;
 2584              		.loc 1 643 7 is_stmt 1 view .LVU620
 2585              		.loc 1 643 35 is_stmt 0 view .LVU621
 2586 0016 019B     		ldr	r3, [sp, #4]
 2587 0018 5C1D     		adds	r4, r3, #5
 2588 001a 04FB08F4 		mul	r4, r4, r8
 2589 001e E4B2     		uxtb	r4, r4
 2590              		.loc 1 643 12 view .LVU622
 2591 0020 5C44     		add	r4, r4, fp
 2592 0022 E4B2     		uxtb	r4, r4
 2593              	.LVL270:
 644:Src/draw.c    ****       temp = getNoteBuffer(j, i);
 2594              		.loc 1 644 7 is_stmt 1 view .LVU623
 2595              		.loc 1 644 14 is_stmt 0 view .LVU624
 2596 0024 3146     		mov	r1, r6
ARM GAS  /var/folders/hv/f19l0kw128sbpybv1h43gz3c0000gn/T//cch93GUf.s 			page 62


 2597 0026 3846     		mov	r0, r7
 2598 0028 FFF7FEFF 		bl	getNoteBuffer
 2599              	.LVL271:
 645:Src/draw.c    ****       if (temp)
 2600              		.loc 1 645 7 is_stmt 1 view .LVU625
 2601              		.loc 1 645 10 is_stmt 0 view .LVU626
 2602 002c A8B9     		cbnz	r0, .L233
 2603              	.LVL272:
 2604              	.L229:
 634:Src/draw.c    ****     {
 2605              		.loc 1 634 33 discriminator 2 view .LVU627
 2606 002e 0136     		adds	r6, r6, #1
 2607              	.LVL273:
 634:Src/draw.c    ****     {
 2608              		.loc 1 634 33 discriminator 2 view .LVU628
 2609 0030 F6B2     		uxtb	r6, r6
 2610              	.LVL274:
 2611              	.L227:
 634:Src/draw.c    ****     {
 2612              		.loc 1 634 5 discriminator 1 view .LVU629
 2613 0032 022E     		cmp	r6, #2
 2614 0034 1AD8     		bhi	.L234
 636:Src/draw.c    ****       if (posX + ((3 + spacex)) > NCOLS - 2)
 2615              		.loc 1 636 7 is_stmt 1 view .LVU630
 636:Src/draw.c    ****       if (posX + ((3 + spacex)) > NCOLS - 2)
 2616              		.loc 1 636 34 is_stmt 0 view .LVU631
 2617 0036 009B     		ldr	r3, [sp]
 2618 0038 0333     		adds	r3, r3, #3
 2619 003a 03FB09F5 		mul	r5, r3, r9
 2620 003e EDB2     		uxtb	r5, r5
 636:Src/draw.c    ****       if (posX + ((3 + spacex)) > NCOLS - 2)
 2621              		.loc 1 636 12 view .LVU632
 2622 0040 5544     		add	r5, r5, r10
 2623 0042 EDB2     		uxtb	r5, r5
 2624              	.LVL275:
 637:Src/draw.c    ****       {
 2625              		.loc 1 637 7 is_stmt 1 view .LVU633
 637:Src/draw.c    ****       {
 2626              		.loc 1 637 16 is_stmt 0 view .LVU634
 2627 0044 2B44     		add	r3, r3, r5
 637:Src/draw.c    ****       {
 2628              		.loc 1 637 10 view .LVU635
 2629 0046 0E2B     		cmp	r3, #14
 2630 0048 E5DD     		ble	.L228
 639:Src/draw.c    ****         nLine++;
 2631              		.loc 1 639 9 is_stmt 1 view .LVU636
 2632              	.LVL276:
 640:Src/draw.c    ****         incX = 0;
 2633              		.loc 1 640 9 view .LVU637
 640:Src/draw.c    ****         incX = 0;
 2634              		.loc 1 640 14 is_stmt 0 view .LVU638
 2635 004a 08F10108 		add	r8, r8, #1
 2636              	.LVL277:
 640:Src/draw.c    ****         incX = 0;
 2637              		.loc 1 640 14 view .LVU639
 2638 004e 5FFA88F8 		uxtb	r8, r8
 2639              	.LVL278:
ARM GAS  /var/folders/hv/f19l0kw128sbpybv1h43gz3c0000gn/T//cch93GUf.s 			page 63


 641:Src/draw.c    ****       }
 2640              		.loc 1 641 9 is_stmt 1 view .LVU640
 639:Src/draw.c    ****         nLine++;
 2641              		.loc 1 639 14 is_stmt 0 view .LVU641
 2642 0052 5546     		mov	r5, r10
 641:Src/draw.c    ****       }
 2643              		.loc 1 641 14 view .LVU642
 2644 0054 4FF00009 		mov	r9, #0
 2645 0058 DDE7     		b	.L228
 2646              	.LVL279:
 2647              	.L233:
 646:Src/draw.c    ****       {
 647:Src/draw.c    ****         drawLetter(temp, posX, posY);
 2648              		.loc 1 647 9 is_stmt 1 view .LVU643
 2649 005a 2246     		mov	r2, r4
 2650 005c 2946     		mov	r1, r5
 2651 005e FFF7FEFF 		bl	drawLetter
 2652              	.LVL280:
 648:Src/draw.c    ****         incX++;
 2653              		.loc 1 648 9 view .LVU644
 2654              		.loc 1 648 13 is_stmt 0 view .LVU645
 2655 0062 09F10109 		add	r9, r9, #1
 2656              	.LVL281:
 2657              		.loc 1 648 13 view .LVU646
 2658 0066 5FFA89F9 		uxtb	r9, r9
 2659              	.LVL282:
 2660              		.loc 1 648 13 view .LVU647
 2661 006a E0E7     		b	.L229
 2662              	.LVL283:
 2663              	.L234:
 2664              		.loc 1 648 13 view .LVU648
 2665              	.LBE70:
 631:Src/draw.c    ****   {
 2666              		.loc 1 631 51 discriminator 2 view .LVU649
 2667 006c 0137     		adds	r7, r7, #1
 2668              	.LVL284:
 631:Src/draw.c    ****   {
 2669              		.loc 1 631 51 discriminator 2 view .LVU650
 2670 006e FFB2     		uxtb	r7, r7
 2671              	.LVL285:
 2672              	.L226:
 631:Src/draw.c    ****   {
 2673              		.loc 1 631 3 discriminator 1 view .LVU651
 2674 0070 092F     		cmp	r7, #9
 2675 0072 09D8     		bhi	.L235
 633:Src/draw.c    ****     for (uint8_t i = 0; i < 3; i++)
 2676              		.loc 1 633 5 is_stmt 1 view .LVU652
 633:Src/draw.c    ****     for (uint8_t i = 0; i < 3; i++)
 2677              		.loc 1 633 31 is_stmt 0 view .LVU653
 2678 0074 07EB4703 		add	r3, r7, r7, lsl #1
 2679 0078 5800     		lsls	r0, r3, #1
 2680 007a 054B     		ldr	r3, .L236
 2681 007c 1844     		add	r0, r0, r3
 633:Src/draw.c    ****     for (uint8_t i = 0; i < 3; i++)
 2682              		.loc 1 633 5 view .LVU654
 2683 007e 0330     		adds	r0, r0, #3
 2684 0080 FFF7FEFF 		bl	setTextColor
ARM GAS  /var/folders/hv/f19l0kw128sbpybv1h43gz3c0000gn/T//cch93GUf.s 			page 64


 2685              	.LVL286:
 634:Src/draw.c    ****     {
 2686              		.loc 1 634 5 is_stmt 1 view .LVU655
 2687              	.LBB71:
 634:Src/draw.c    ****     {
 2688              		.loc 1 634 10 view .LVU656
 634:Src/draw.c    ****     {
 2689              		.loc 1 634 18 is_stmt 0 view .LVU657
 2690 0084 0026     		movs	r6, #0
 634:Src/draw.c    ****     {
 2691              		.loc 1 634 5 view .LVU658
 2692 0086 D4E7     		b	.L227
 2693              	.LVL287:
 2694              	.L235:
 634:Src/draw.c    ****     {
 2695              		.loc 1 634 5 view .LVU659
 2696              	.LBE71:
 2697              	.LBE72:
 649:Src/draw.c    ****       }
 650:Src/draw.c    ****     }
 651:Src/draw.c    ****   }
 652:Src/draw.c    **** }
 2698              		.loc 1 652 1 view .LVU660
 2699 0088 03B0     		add	sp, sp, #12
 2700              	.LCFI29:
 2701              		.cfi_def_cfa_offset 36
 2702              		@ sp needed
 2703 008a BDE8F08F 		pop	{r4, r5, r6, r7, r8, r9, r10, fp, pc}
 2704              	.LVL288:
 2705              	.L237:
 2706              		.loc 1 652 1 view .LVU661
 2707 008e 00BF     		.align	2
 2708              	.L236:
 2709 0090 00000000 		.word	noteBuffer
 2710              		.cfi_endproc
 2711              	.LFE90:
 2713              		.section	.text.drawScrollingString,"ax",%progbits
 2714              		.align	1
 2715              		.global	drawScrollingString
 2716              		.syntax unified
 2717              		.thumb
 2718              		.thumb_func
 2719              		.fpu softvfp
 2721              	drawScrollingString:
 2722              	.LVL289:
 2723              	.LFB91:
 653:Src/draw.c    **** 
 654:Src/draw.c    **** void drawScrollingString(char *frase, uint16_t interval_ms, uint8_t space, uint8_t offX, uint8_t of
 655:Src/draw.c    **** {
 2724              		.loc 1 655 1 is_stmt 1 view -0
 2725              		.cfi_startproc
 2726              		@ args = 4, pretend = 0, frame = 40
 2727              		@ frame_needed = 0, uses_anonymous_args = 0
 2728              		.loc 1 655 1 is_stmt 0 view .LVU663
 2729 0000 2DE9F04F 		push	{r4, r5, r6, r7, r8, r9, r10, fp, lr}
 2730              	.LCFI30:
 2731              		.cfi_def_cfa_offset 36
ARM GAS  /var/folders/hv/f19l0kw128sbpybv1h43gz3c0000gn/T//cch93GUf.s 			page 65


 2732              		.cfi_offset 4, -36
 2733              		.cfi_offset 5, -32
 2734              		.cfi_offset 6, -28
 2735              		.cfi_offset 7, -24
 2736              		.cfi_offset 8, -20
 2737              		.cfi_offset 9, -16
 2738              		.cfi_offset 10, -12
 2739              		.cfi_offset 11, -8
 2740              		.cfi_offset 14, -4
 2741 0004 8BB0     		sub	sp, sp, #44
 2742              	.LCFI31:
 2743              		.cfi_def_cfa_offset 80
 2744 0006 0390     		str	r0, [sp, #12]
 2745 0008 0991     		str	r1, [sp, #36]
 2746 000a 9946     		mov	r9, r3
 2747 000c 9DF85030 		ldrb	r3, [sp, #80]	@ zero_extendqisi2
 2748              	.LVL290:
 2749              		.loc 1 655 1 view .LVU664
 2750 0010 0293     		str	r3, [sp, #8]
 656:Src/draw.c    ****   int8_t posX, posY;
 2751              		.loc 1 656 3 is_stmt 1 view .LVU665
 657:Src/draw.c    ****   uint8_t fill, width = 3 + space;
 2752              		.loc 1 657 3 view .LVU666
 2753              		.loc 1 657 17 is_stmt 0 view .LVU667
 2754 0012 0332     		adds	r2, r2, #3
 2755              	.LVL291:
 2756              		.loc 1 657 17 view .LVU668
 2757 0014 5FFA82FA 		uxtb	r10, r2
 2758              	.LVL292:
 658:Src/draw.c    ****   for (uint8_t letter = 0; letter < strlen(frase); letter++)
 2759              		.loc 1 658 3 is_stmt 1 view .LVU669
 2760              	.LBB73:
 2761              		.loc 1 658 8 view .LVU670
 2762              		.loc 1 658 16 is_stmt 0 view .LVU671
 2763 0018 0023     		movs	r3, #0
 2764 001a 0893     		str	r3, [sp, #32]
 2765              		.loc 1 658 3 view .LVU672
 2766 001c 87E0     		b	.L239
 2767              	.LVL293:
 2768              	.L246:
 2769              	.LBB74:
 2770              	.LBB75:
 2771              	.LBB76:
 2772              	.LBB77:
 659:Src/draw.c    ****   {
 660:Src/draw.c    ****     for (uint8_t pos = 0; pos < 3; pos++)
 661:Src/draw.c    ****     {
 662:Src/draw.c    ****       clearText();
 663:Src/draw.c    ****       for (uint8_t i = letter, idx = 0; i < strlen(frase); i++, idx++)
 664:Src/draw.c    ****       {
 665:Src/draw.c    ****         posX = (idx * width) + offX;
 666:Src/draw.c    ****         posY = offY;
 667:Src/draw.c    **** 
 668:Src/draw.c    ****         for (int8_t y = posY, l = 0; y < (posY + 5); y++, l++)
 669:Src/draw.c    ****         {
 670:Src/draw.c    ****           if (y >= (NCOLS - offY))
 671:Src/draw.c    ****             break;
ARM GAS  /var/folders/hv/f19l0kw128sbpybv1h43gz3c0000gn/T//cch93GUf.s 			page 66


 672:Src/draw.c    ****           fill = getFontLine(frase[i], l);
 673:Src/draw.c    ****           for (int8_t x = posX - pos, aX = 3; x < (posX + width) - pos; x++, aX--)
 674:Src/draw.c    ****           {
 675:Src/draw.c    ****             if (x >= (NCOLS - offX))
 676:Src/draw.c    ****               break;
 677:Src/draw.c    ****             if (x >= offX)
 678:Src/draw.c    ****             {
 679:Src/draw.c    ****               if (fill & (1u << aX))
 680:Src/draw.c    ****               {
 681:Src/draw.c    **** #if COLOR_1BIT
 682:Src/draw.c    ****                 BIT_SET(textLayer[DIV_8(x + (y * NCOLS))], REST_8(x + (y * NCOLS)));
 2773              		.loc 1 682 17 view .LVU673
 2774 001e C910     		asrs	r1, r1, #3
 2775 0020 D0F1000C 		rsbs	ip, r0, #0
 2776 0024 00F00700 		and	r0, r0, #7
 2777 0028 0CF0070C 		and	ip, ip, #7
 2778 002c 58BF     		it	pl
 2779 002e CCF10000 		rsbpl	r0, ip, #0
 2780 0032 4FF0010E 		mov	lr, #1
 2781 0036 0EFA00FE 		lsl	lr, lr, r0
 2782 003a DFF814C1 		ldr	ip, .L257
 2783 003e 1CF80100 		ldrb	r0, [ip, r1]	@ zero_extendqisi2
 2784 0042 40EA0E00 		orr	r0, r0, lr
 2785 0046 0CF80100 		strb	r0, [ip, r1]
 2786              	.L245:
 673:Src/draw.c    ****           {
 2787              		.loc 1 673 74 discriminator 2 view .LVU674
 2788 004a 0133     		adds	r3, r3, #1
 2789              	.LVL294:
 673:Src/draw.c    ****           {
 2790              		.loc 1 673 74 discriminator 2 view .LVU675
 2791 004c 5BB2     		sxtb	r3, r3
 2792              	.LVL295:
 673:Src/draw.c    ****           {
 2793              		.loc 1 673 80 discriminator 2 view .LVU676
 2794 004e 013A     		subs	r2, r2, #1
 2795              	.LVL296:
 673:Src/draw.c    ****           {
 2796              		.loc 1 673 80 discriminator 2 view .LVU677
 2797 0050 52B2     		sxtb	r2, r2
 2798              	.LVL297:
 2799              	.L243:
 673:Src/draw.c    ****           {
 2800              		.loc 1 673 49 discriminator 1 view .LVU678
 2801 0052 1846     		mov	r0, r3
 673:Src/draw.c    ****           {
 2802              		.loc 1 673 57 discriminator 1 view .LVU679
 2803 0054 04EB0901 		add	r1, r4, r9
 673:Src/draw.c    ****           {
 2804              		.loc 1 673 66 discriminator 1 view .LVU680
 2805 0058 A1EB0A01 		sub	r1, r1, r10
 673:Src/draw.c    ****           {
 2806              		.loc 1 673 11 discriminator 1 view .LVU681
 2807 005c 8B42     		cmp	r3, r1
 2808 005e 11DA     		bge	.L244
 675:Src/draw.c    ****               break;
 2809              		.loc 1 675 13 is_stmt 1 view .LVU682
ARM GAS  /var/folders/hv/f19l0kw128sbpybv1h43gz3c0000gn/T//cch93GUf.s 			page 67


 675:Src/draw.c    ****               break;
 2810              		.loc 1 675 29 is_stmt 0 view .LVU683
 2811 0060 C8F11001 		rsb	r1, r8, #16
 675:Src/draw.c    ****               break;
 2812              		.loc 1 675 16 view .LVU684
 2813 0064 9942     		cmp	r1, r3
 2814 0066 0DDD     		ble	.L244
 677:Src/draw.c    ****             {
 2815              		.loc 1 677 13 is_stmt 1 view .LVU685
 677:Src/draw.c    ****             {
 2816              		.loc 1 677 16 is_stmt 0 view .LVU686
 2817 0068 8045     		cmp	r8, r0
 2818 006a EEDC     		bgt	.L245
 679:Src/draw.c    ****               {
 2819              		.loc 1 679 15 is_stmt 1 view .LVU687
 679:Src/draw.c    ****               {
 2820              		.loc 1 679 19 is_stmt 0 view .LVU688
 2821 006c 2BFA02F1 		lsr	r1, fp, r2
 679:Src/draw.c    ****               {
 2822              		.loc 1 679 18 view .LVU689
 2823 0070 11F0010F 		tst	r1, #1
 2824 0074 E9D0     		beq	.L245
 2825              		.loc 1 682 17 is_stmt 1 view .LVU690
 2826 0076 00EB0710 		add	r0, r0, r7, lsl #4
 2827 007a 0146     		mov	r1, r0
 2828 007c 0028     		cmp	r0, #0
 2829 007e CEDA     		bge	.L246
 2830 0080 C11D     		adds	r1, r0, #7
 2831 0082 CCE7     		b	.L246
 2832              	.L244:
 2833              	.LBE77:
 668:Src/draw.c    ****         {
 2834              		.loc 1 668 55 is_stmt 0 discriminator 2 view .LVU691
 2835 0084 0135     		adds	r5, r5, #1
 2836              	.LVL298:
 668:Src/draw.c    ****         {
 2837              		.loc 1 668 55 discriminator 2 view .LVU692
 2838 0086 6DB2     		sxtb	r5, r5
 2839              	.LVL299:
 668:Src/draw.c    ****         {
 2840              		.loc 1 668 60 discriminator 2 view .LVU693
 2841 0088 0136     		adds	r6, r6, #1
 2842              	.LVL300:
 668:Src/draw.c    ****         {
 2843              		.loc 1 668 60 discriminator 2 view .LVU694
 2844 008a 76B2     		sxtb	r6, r6
 2845              	.LVL301:
 2846              	.L241:
 668:Src/draw.c    ****         {
 2847              		.loc 1 668 40 discriminator 1 view .LVU695
 2848 008c 019B     		ldr	r3, [sp, #4]
 2849 008e 0433     		adds	r3, r3, #4
 2850 0090 2F46     		mov	r7, r5
 668:Src/draw.c    ****         {
 2851              		.loc 1 668 9 discriminator 1 view .LVU696
 2852 0092 AB42     		cmp	r3, r5
 2853 0094 11DB     		blt	.L242
ARM GAS  /var/folders/hv/f19l0kw128sbpybv1h43gz3c0000gn/T//cch93GUf.s 			page 68


 670:Src/draw.c    ****             break;
 2854              		.loc 1 670 11 is_stmt 1 view .LVU697
 670:Src/draw.c    ****             break;
 2855              		.loc 1 670 27 is_stmt 0 view .LVU698
 2856 0096 029B     		ldr	r3, [sp, #8]
 2857 0098 C3F11003 		rsb	r3, r3, #16
 670:Src/draw.c    ****             break;
 2858              		.loc 1 670 14 view .LVU699
 2859 009c AB42     		cmp	r3, r5
 2860 009e 0CDD     		ble	.L242
 672:Src/draw.c    ****           for (int8_t x = posX - pos, aX = 3; x < (posX + width) - pos; x++, aX--)
 2861              		.loc 1 672 11 is_stmt 1 view .LVU700
 672:Src/draw.c    ****           for (int8_t x = posX - pos, aX = 3; x < (posX + width) - pos; x++, aX--)
 2862              		.loc 1 672 18 is_stmt 0 view .LVU701
 2863 00a0 3146     		mov	r1, r6
 2864 00a2 039B     		ldr	r3, [sp, #12]
 2865 00a4 049A     		ldr	r2, [sp, #16]
 2866 00a6 985C     		ldrb	r0, [r3, r2]	@ zero_extendqisi2
 2867 00a8 FFF7FEFF 		bl	getFontLine
 2868              	.LVL302:
 2869 00ac 8346     		mov	fp, r0
 2870              	.LVL303:
 673:Src/draw.c    ****           {
 2871              		.loc 1 673 11 is_stmt 1 view .LVU702
 2872              	.LBB78:
 673:Src/draw.c    ****           {
 2873              		.loc 1 673 16 view .LVU703
 673:Src/draw.c    ****           {
 2874              		.loc 1 673 32 is_stmt 0 view .LVU704
 2875 00ae 059B     		ldr	r3, [sp, #20]
 2876 00b0 A3EB0A03 		sub	r3, r3, r10
 673:Src/draw.c    ****           {
 2877              		.loc 1 673 23 view .LVU705
 2878 00b4 5BB2     		sxtb	r3, r3
 2879              	.LVL304:
 673:Src/draw.c    ****           {
 2880              		.loc 1 673 39 view .LVU706
 2881 00b6 0322     		movs	r2, #3
 673:Src/draw.c    ****           {
 2882              		.loc 1 673 11 view .LVU707
 2883 00b8 CBE7     		b	.L243
 2884              	.LVL305:
 2885              	.L242:
 673:Src/draw.c    ****           {
 2886              		.loc 1 673 11 view .LVU708
 2887              	.LBE78:
 2888              	.LBE76:
 663:Src/draw.c    ****       {
 2889              		.loc 1 663 61 discriminator 2 view .LVU709
 2890 00ba 069B     		ldr	r3, [sp, #24]
 2891 00bc 0133     		adds	r3, r3, #1
 2892 00be DBB2     		uxtb	r3, r3
 2893 00c0 0693     		str	r3, [sp, #24]
 2894              	.LVL306:
 663:Src/draw.c    ****       {
 2895              		.loc 1 663 68 discriminator 2 view .LVU710
 2896 00c2 079B     		ldr	r3, [sp, #28]
ARM GAS  /var/folders/hv/f19l0kw128sbpybv1h43gz3c0000gn/T//cch93GUf.s 			page 69


 2897 00c4 0133     		adds	r3, r3, #1
 2898 00c6 DBB2     		uxtb	r3, r3
 2899 00c8 0793     		str	r3, [sp, #28]
 2900              	.LVL307:
 2901              	.L240:
 663:Src/draw.c    ****       {
 2902              		.loc 1 663 43 discriminator 1 view .LVU711
 2903 00ca 069C     		ldr	r4, [sp, #24]
 2904 00cc 0494     		str	r4, [sp, #16]
 663:Src/draw.c    ****       {
 2905              		.loc 1 663 45 discriminator 1 view .LVU712
 2906 00ce 0398     		ldr	r0, [sp, #12]
 2907 00d0 FFF7FEFF 		bl	strlen
 2908              	.LVL308:
 663:Src/draw.c    ****       {
 2909              		.loc 1 663 7 discriminator 1 view .LVU713
 2910 00d4 8442     		cmp	r4, r0
 2911 00d6 0DD2     		bcs	.L254
 665:Src/draw.c    ****         posY = offY;
 2912              		.loc 1 665 9 is_stmt 1 view .LVU714
 665:Src/draw.c    ****         posY = offY;
 2913              		.loc 1 665 21 is_stmt 0 view .LVU715
 2914 00d8 079B     		ldr	r3, [sp, #28]
 2915 00da 09FB03F3 		mul	r3, r9, r3
 2916 00de DBB2     		uxtb	r3, r3
 665:Src/draw.c    ****         posY = offY;
 2917              		.loc 1 665 30 view .LVU716
 2918 00e0 4344     		add	r3, r3, r8
 2919 00e2 DBB2     		uxtb	r3, r3
 2920 00e4 0593     		str	r3, [sp, #20]
 665:Src/draw.c    ****         posY = offY;
 2921              		.loc 1 665 14 view .LVU717
 2922 00e6 5CB2     		sxtb	r4, r3
 2923              	.LVL309:
 666:Src/draw.c    **** 
 2924              		.loc 1 666 9 is_stmt 1 view .LVU718
 666:Src/draw.c    **** 
 2925              		.loc 1 666 14 is_stmt 0 view .LVU719
 2926 00e8 9DF90830 		ldrsb	r3, [sp, #8]
 2927 00ec 0193     		str	r3, [sp, #4]
 2928              	.LVL310:
 668:Src/draw.c    ****         {
 2929              		.loc 1 668 9 is_stmt 1 view .LVU720
 2930              	.LBB79:
 668:Src/draw.c    ****         {
 2931              		.loc 1 668 14 view .LVU721
 668:Src/draw.c    ****         {
 2932              		.loc 1 668 21 is_stmt 0 view .LVU722
 2933 00ee 1D46     		mov	r5, r3
 668:Src/draw.c    ****         {
 2934              		.loc 1 668 31 view .LVU723
 2935 00f0 0026     		movs	r6, #0
 668:Src/draw.c    ****         {
 2936              		.loc 1 668 9 view .LVU724
 2937 00f2 CBE7     		b	.L241
 2938              	.LVL311:
 2939              	.L254:
ARM GAS  /var/folders/hv/f19l0kw128sbpybv1h43gz3c0000gn/T//cch93GUf.s 			page 70


 668:Src/draw.c    ****         {
 2940              		.loc 1 668 9 view .LVU725
 2941              	.LBE79:
 2942              	.LBE75:
 683:Src/draw.c    **** #else
 684:Src/draw.c    ****                 setColor(textLayer[x + (y * NCOLS)], textColor);
 685:Src/draw.c    **** #endif
 686:Src/draw.c    ****               }
 687:Src/draw.c    ****             }
 688:Src/draw.c    ****           }
 689:Src/draw.c    ****         }
 690:Src/draw.c    ****       }
 691:Src/draw.c    ****       fillFramebuffer();
 2943              		.loc 1 691 7 is_stmt 1 discriminator 2 view .LVU726
 2944 00f4 FFF7FEFF 		bl	fillFramebuffer
 2945              	.LVL312:
 692:Src/draw.c    ****       WS2812_sendbuf(24 * NLEDSCH);
 2946              		.loc 1 692 7 discriminator 2 view .LVU727
 2947 00f8 4FF44070 		mov	r0, #768
 2948 00fc FFF7FEFF 		bl	WS2812_sendbuf
 2949              	.LVL313:
 693:Src/draw.c    ****       LL_mDelay(interval_ms);
 2950              		.loc 1 693 7 discriminator 2 view .LVU728
 2951 0100 0998     		ldr	r0, [sp, #36]
 2952 0102 FFF7FEFF 		bl	LL_mDelay
 2953              	.LVL314:
 660:Src/draw.c    ****     {
 2954              		.loc 1 660 39 is_stmt 0 discriminator 2 view .LVU729
 2955 0106 0AF10103 		add	r3, r10, #1
 2956 010a 5FFA83FA 		uxtb	r10, r3
 2957              	.LVL315:
 2958              	.L251:
 660:Src/draw.c    ****     {
 2959              		.loc 1 660 5 discriminator 1 view .LVU730
 2960 010e BAF1020F 		cmp	r10, #2
 2961 0112 06D8     		bhi	.L255
 662:Src/draw.c    ****       for (uint8_t i = letter, idx = 0; i < strlen(frase); i++, idx++)
 2962              		.loc 1 662 7 is_stmt 1 view .LVU731
 2963 0114 FFF7FEFF 		bl	clearText
 2964              	.LVL316:
 663:Src/draw.c    ****       {
 2965              		.loc 1 663 7 view .LVU732
 2966              	.LBB80:
 663:Src/draw.c    ****       {
 2967              		.loc 1 663 12 view .LVU733
 663:Src/draw.c    ****       {
 2968              		.loc 1 663 20 is_stmt 0 view .LVU734
 2969 0118 089B     		ldr	r3, [sp, #32]
 2970 011a 0693     		str	r3, [sp, #24]
 663:Src/draw.c    ****       {
 2971              		.loc 1 663 32 view .LVU735
 2972 011c 0023     		movs	r3, #0
 2973 011e 0793     		str	r3, [sp, #28]
 663:Src/draw.c    ****       {
 2974              		.loc 1 663 7 view .LVU736
 2975 0120 D3E7     		b	.L240
 2976              	.LVL317:
ARM GAS  /var/folders/hv/f19l0kw128sbpybv1h43gz3c0000gn/T//cch93GUf.s 			page 71


 2977              	.L255:
 663:Src/draw.c    ****       {
 2978              		.loc 1 663 7 view .LVU737
 2979 0122 CA46     		mov	r10, r9
 2980              	.LVL318:
 663:Src/draw.c    ****       {
 2981              		.loc 1 663 7 view .LVU738
 2982 0124 C146     		mov	r9, r8
 2983              	.LVL319:
 663:Src/draw.c    ****       {
 2984              		.loc 1 663 7 view .LVU739
 2985              	.LBE80:
 2986              	.LBE74:
 658:Src/draw.c    ****   {
 2987              		.loc 1 658 58 discriminator 2 view .LVU740
 2988 0126 089B     		ldr	r3, [sp, #32]
 2989 0128 0133     		adds	r3, r3, #1
 2990 012a DBB2     		uxtb	r3, r3
 2991 012c 0893     		str	r3, [sp, #32]
 2992              	.LVL320:
 2993              	.L239:
 658:Src/draw.c    ****   {
 2994              		.loc 1 658 37 discriminator 1 view .LVU741
 2995 012e 0398     		ldr	r0, [sp, #12]
 2996 0130 FFF7FEFF 		bl	strlen
 2997              	.LVL321:
 658:Src/draw.c    ****   {
 2998              		.loc 1 658 3 discriminator 1 view .LVU742
 2999 0134 089B     		ldr	r3, [sp, #32]
 3000 0136 8342     		cmp	r3, r0
 3001 0138 06D2     		bcs	.L256
 3002              	.LBB81:
 660:Src/draw.c    ****     {
 3003              		.loc 1 660 18 view .LVU743
 3004 013a 4FF00008 		mov	r8, #0
 3005 013e 4B46     		mov	r3, r9
 3006 0140 D146     		mov	r9, r10
 3007 0142 C246     		mov	r10, r8
 3008              	.LVL322:
 660:Src/draw.c    ****     {
 3009              		.loc 1 660 18 view .LVU744
 3010 0144 9846     		mov	r8, r3
 3011 0146 E2E7     		b	.L251
 3012              	.LVL323:
 3013              	.L256:
 660:Src/draw.c    ****     {
 3014              		.loc 1 660 18 view .LVU745
 3015              	.LBE81:
 3016              	.LBE73:
 694:Src/draw.c    ****     }
 695:Src/draw.c    ****   }
 696:Src/draw.c    **** }...
 3017              		.loc 1 696 1 view .LVU746
 3018 0148 0BB0     		add	sp, sp, #44
 3019              	.LCFI32:
 3020              		.cfi_def_cfa_offset 36
 3021              		@ sp needed
ARM GAS  /var/folders/hv/f19l0kw128sbpybv1h43gz3c0000gn/T//cch93GUf.s 			page 72


 3022 014a BDE8F08F 		pop	{r4, r5, r6, r7, r8, r9, r10, fp, pc}
 3023              	.LVL324:
 3024              	.L258:
 3025              		.loc 1 696 1 view .LVU747
 3026 014e 00BF     		.align	2
 3027              	.L257:
 3028 0150 00000000 		.word	textLayer
 3029              		.cfi_endproc
 3030              	.LFE91:
 3032              		.comm	callback_function,4,4
 3033              		.global	MODE_TEXT
 3034              		.global	MODE_BACK
 3035              		.global	MAX_BRIGHT
 3036              		.global	MAX_DIV
 3037              		.global	orientation
 3038              		.global	font4x6
 3039              		.global	arrColor
 3040              		.global	arr
 3041              		.global	letterColor
 3042              		.global	currColor
 3043              		.comm	WS2812_IO_framedata,1536,4
 3044              		.comm	noteBuffer,60,4
 3045              		.comm	noteSequence,114,4
 3046              		.comm	note,3,4
 3047              		.comm	textColor,3,4
 3048              		.comm	backColor,3,4
 3049              		.comm	textLayer,32,4
 3050              		.comm	backLayer,768,4
 3051              		.section	.bss.arr,"aw",%nobits
 3052              		.align	2
 3055              	arr:
 3056 0000 000000   		.space	3
 3057              		.section	.bss.orientation,"aw",%nobits
 3058              		.set	.LANCHOR1,. + 0
 3061              	orientation:
 3062 0000 00       		.space	1
 3063              		.section	.data.MAX_BRIGHT,"aw"
 3064              		.align	2
 3067              	MAX_BRIGHT:
 3068 0000 0000003F 		.word	1056964608
 3069              		.section	.data.MAX_DIV,"aw"
 3070              		.set	.LANCHOR2,. + 0
 3073              	MAX_DIV:
 3074 0000 03       		.byte	3
 3075              		.section	.data.MODE_BACK,"aw"
 3078              	MODE_BACK:
 3079 0000 01       		.byte	1
 3080              		.section	.data.MODE_TEXT,"aw"
 3083              	MODE_TEXT:
 3084 0000 01       		.byte	1
 3085              		.section	.data.arrColor,"aw"
 3086              		.align	2
 3087              		.set	.LANCHOR0,. + 0
 3090              	arrColor:
 3091 0000 4E       		.byte	78
 3092 0001 4E       		.byte	78
 3093 0002 4E       		.byte	78
ARM GAS  /var/folders/hv/f19l0kw128sbpybv1h43gz3c0000gn/T//cch93GUf.s 			page 73


 3094 0003 74       		.byte	116
 3095 0004 63       		.byte	99
 3096 0005 5E       		.byte	94
 3097 0006 65       		.byte	101
 3098 0007 69       		.byte	105
 3099 0008 69       		.byte	105
 3100 0009 48       		.byte	72
 3101 000a 48       		.byte	72
 3102 000b 24       		.byte	36
 3103 000c 27       		.byte	39
 3104 000d 27       		.byte	39
 3105 000e 27       		.byte	39
 3106 000f 3A       		.byte	58
 3107 0010 31       		.byte	49
 3108 0011 2F       		.byte	47
 3109 0012 32       		.byte	50
 3110 0013 35       		.byte	53
 3111 0014 35       		.byte	53
 3112 0015 24       		.byte	36
 3113 0016 24       		.byte	36
 3114 0017 12       		.byte	18
 3115 0018 75       		.byte	117
 3116 0019 75       		.byte	117
 3117 001a 75       		.byte	117
 3118 001b AE       		.byte	-82
 3119 001c 94       		.byte	-108
 3120 001d 8D       		.byte	-115
 3121 001e 97       		.byte	-105
 3122 001f 9E       		.byte	-98
 3123 0020 9E       		.byte	-98
 3124 0021 6C       		.byte	108
 3125 0022 6C       		.byte	108
 3126 0023 36       		.byte	54
 3127 0024 00       		.byte	0
 3128 0025 00       		.byte	0
 3129 0026 00       		.byte	0
 3130              		.section	.data.currColor,"aw"
 3131              		.align	2
 3134              	currColor:
 3135 0000 3C       		.byte	60
 3136 0001 19       		.byte	25
 3137 0002 00       		.byte	0
 3138              		.section	.data.letterColor,"aw"
 3139              		.align	2
 3142              	letterColor:
 3143 0000 00       		.byte	0
 3144 0001 0A       		.byte	10
 3145 0002 00       		.byte	0
 3146              		.section	.rodata.font4x6,"a"
 3147              		.align	2
 3148              		.set	.LANCHOR3,. + 0
 3151              	font4x6:
 3152 0000 00       		.byte	0
 3153 0001 00       		.byte	0
 3154 0002 49       		.byte	73
 3155 0003 08       		.byte	8
 3156 0004 B4       		.byte	-76
ARM GAS  /var/folders/hv/f19l0kw128sbpybv1h43gz3c0000gn/T//cch93GUf.s 			page 74


 3157 0005 00       		.byte	0
 3158 0006 BE       		.byte	-66
 3159 0007 F6       		.byte	-10
 3160 0008 7B       		.byte	123
 3161 0009 7A       		.byte	122
 3162 000a A5       		.byte	-91
 3163 000b 94       		.byte	-108
 3164 000c 55       		.byte	85
 3165 000d B8       		.byte	-72
 3166 000e 48       		.byte	72
 3167 000f 00       		.byte	0
 3168 0010 29       		.byte	41
 3169 0011 44       		.byte	68
 3170 0012 44       		.byte	68
 3171 0013 2A       		.byte	42
 3172 0014 15       		.byte	21
 3173 0015 A0       		.byte	-96
 3174 0016 0B       		.byte	11
 3175 0017 42       		.byte	66
 3176 0018 00       		.byte	0
 3177 0019 50       		.byte	80
 3178 001a 03       		.byte	3
 3179 001b 02       		.byte	2
 3180 001c 00       		.byte	0
 3181 001d 08       		.byte	8
 3182 001e 25       		.byte	37
 3183 001f 90       		.byte	-112
 3184 0020 76       		.byte	118
 3185 0021 BA       		.byte	-70
 3186 0022 59       		.byte	89
 3187 0023 5C       		.byte	92
 3188 0024 C5       		.byte	-59
 3189 0025 9E       		.byte	-98
 3190 0026 C5       		.byte	-59
 3191 0027 38       		.byte	56
 3192 0028 92       		.byte	-110
 3193 0029 E6       		.byte	-26
 3194 002a F3       		.byte	-13
 3195 002b 3A       		.byte	58
 3196 002c 73       		.byte	115
 3197 002d BA       		.byte	-70
 3198 002e E5       		.byte	-27
 3199 002f 90       		.byte	-112
 3200 0030 77       		.byte	119
 3201 0031 BA       		.byte	-70
 3202 0032 77       		.byte	119
 3203 0033 3A       		.byte	58
 3204 0034 08       		.byte	8
 3205 0035 40       		.byte	64
 3206 0036 08       		.byte	8
 3207 0037 50       		.byte	80
 3208 0038 2A       		.byte	42
 3209 0039 44       		.byte	68
 3210 003a 1C       		.byte	28
 3211 003b E0       		.byte	-32
 3212 003c 88       		.byte	-120
 3213 003d 52       		.byte	82
ARM GAS  /var/folders/hv/f19l0kw128sbpybv1h43gz3c0000gn/T//cch93GUf.s 			page 75


 3214 003e E5       		.byte	-27
 3215 003f 08       		.byte	8
 3216 0040 56       		.byte	86
 3217 0041 8E       		.byte	-114
 3218 0042 77       		.byte	119
 3219 0043 B6       		.byte	-74
 3220 0044 77       		.byte	119
 3221 0045 B8       		.byte	-72
 3222 0046 72       		.byte	114
 3223 0047 8C       		.byte	-116
 3224 0048 D6       		.byte	-42
 3225 0049 BA       		.byte	-70
 3226 004a 73       		.byte	115
 3227 004b 9E       		.byte	-98
 3228 004c 73       		.byte	115
 3229 004d 92       		.byte	-110
 3230 004e 72       		.byte	114
 3231 004f AE       		.byte	-82
 3232 0050 B7       		.byte	-73
 3233 0051 B6       		.byte	-74
 3234 0052 E9       		.byte	-23
 3235 0053 5C       		.byte	92
 3236 0054 64       		.byte	100
 3237 0055 AA       		.byte	-86
 3238 0056 B7       		.byte	-73
 3239 0057 B4       		.byte	-76
 3240 0058 92       		.byte	-110
 3241 0059 9C       		.byte	-100
 3242 005a BE       		.byte	-66
 3243 005b B6       		.byte	-74
 3244 005c D6       		.byte	-42
 3245 005d B6       		.byte	-74
 3246 005e 56       		.byte	86
 3247 005f AA       		.byte	-86
 3248 0060 D7       		.byte	-41
 3249 0061 92       		.byte	-110
 3250 0062 76       		.byte	118
 3251 0063 EE       		.byte	-18
 3252 0064 77       		.byte	119
 3253 0065 B4       		.byte	-76
 3254 0066 71       		.byte	113
 3255 0067 38       		.byte	56
 3256 0068 E9       		.byte	-23
 3257 0069 48       		.byte	72
 3258 006a B6       		.byte	-74
 3259 006b AE       		.byte	-82
 3260 006c B6       		.byte	-74
 3261 006d AA       		.byte	-86
 3262 006e B6       		.byte	-74
 3263 006f F6       		.byte	-10
 3264 0070 B5       		.byte	-75
 3265 0071 B4       		.byte	-76
 3266 0072 B5       		.byte	-75
 3267 0073 48       		.byte	72
 3268 0074 E5       		.byte	-27
 3269 0075 9C       		.byte	-100
 3270 0076 69       		.byte	105
ARM GAS  /var/folders/hv/f19l0kw128sbpybv1h43gz3c0000gn/T//cch93GUf.s 			page 76


 3271 0077 4C       		.byte	76
 3272 0078 91       		.byte	-111
 3273 0079 24       		.byte	36
 3274 007a 64       		.byte	100
 3275 007b 2E       		.byte	46
 3276 007c 54       		.byte	84
 3277 007d 00       		.byte	0
 3278 007e 00       		.byte	0
 3279 007f 1C       		.byte	28
 3280 0080 44       		.byte	68
 3281 0081 00       		.byte	0
 3282 0082 0E       		.byte	14
 3283 0083 AE       		.byte	-82
 3284 0084 9A       		.byte	-102
 3285 0085 BA       		.byte	-70
 3286 0086 0E       		.byte	14
 3287 0087 8C       		.byte	-116
 3288 0088 2E       		.byte	46
 3289 0089 AE       		.byte	-82
 3290 008a 0E       		.byte	14
 3291 008b CE       		.byte	-50
 3292 008c 56       		.byte	86
 3293 008d D0       		.byte	-48
 3294 008e 55       		.byte	85
 3295 008f 3B       		.byte	59
 3296 0090 93       		.byte	-109
 3297 0091 B4       		.byte	-76
 3298 0092 41       		.byte	65
 3299 0093 44       		.byte	68
 3300 0094 41       		.byte	65
 3301 0095 51       		.byte	81
 3302 0096 97       		.byte	-105
 3303 0097 B4       		.byte	-76
 3304 0098 49       		.byte	73
 3305 0099 44       		.byte	68
 3306 009a 17       		.byte	23
 3307 009b B6       		.byte	-74
 3308 009c 1A       		.byte	26
 3309 009d B6       		.byte	-74
 3310 009e 0A       		.byte	10
 3311 009f AA       		.byte	-86
 3312 00a0 D6       		.byte	-42
 3313 00a1 D3       		.byte	-45
 3314 00a2 76       		.byte	118
 3315 00a3 67       		.byte	103
 3316 00a4 17       		.byte	23
 3317 00a5 90       		.byte	-112
 3318 00a6 0F       		.byte	15
 3319 00a7 38       		.byte	56
 3320 00a8 9A       		.byte	-102
 3321 00a9 8C       		.byte	-116
 3322 00aa 16       		.byte	22
 3323 00ab AE       		.byte	-82
 3324 00ac 16       		.byte	22
 3325 00ad BA       		.byte	-70
 3326 00ae 16       		.byte	22
 3327 00af F6       		.byte	-10
ARM GAS  /var/folders/hv/f19l0kw128sbpybv1h43gz3c0000gn/T//cch93GUf.s 			page 77


 3328 00b0 15       		.byte	21
 3329 00b1 B4       		.byte	-76
 3330 00b2 B5       		.byte	-75
 3331 00b3 2B       		.byte	43
 3332 00b4 1C       		.byte	28
 3333 00b5 5E       		.byte	94
 3334 00b6 6B       		.byte	107
 3335 00b7 4C       		.byte	76
 3336 00b8 49       		.byte	73
 3337 00b9 48       		.byte	72
 3338 00ba C9       		.byte	-55
 3339 00bb 5A       		.byte	90
 3340 00bc 54       		.byte	84
 3341 00bd 00       		.byte	0
 3342 00be 56       		.byte	86
 3343 00bf E2       		.byte	-30
 3344              		.text
 3345              	.Letext0:
 3346              		.file 2 "/Users/luissousa/opt/gcc-arm-none-eabi-8-2018-q4-major/arm-none-eabi/include/machine/_def
 3347              		.file 3 "/Users/luissousa/opt/gcc-arm-none-eabi-8-2018-q4-major/arm-none-eabi/include/sys/_stdint.
 3348              		.file 4 "/Users/luissousa/opt/gcc-arm-none-eabi-8-2018-q4-major/lib/gcc/arm-none-eabi/8.2.1/includ
 3349              		.file 5 "/Users/luissousa/opt/gcc-arm-none-eabi-8-2018-q4-major/arm-none-eabi/include/sys/lock.h"
 3350              		.file 6 "/Users/luissousa/opt/gcc-arm-none-eabi-8-2018-q4-major/arm-none-eabi/include/sys/_types.h
 3351              		.file 7 "/Users/luissousa/opt/gcc-arm-none-eabi-8-2018-q4-major/arm-none-eabi/include/sys/reent.h"
 3352              		.file 8 "Drivers/CMSIS/Include/core_cm3.h"
 3353              		.file 9 "Drivers/CMSIS/Device/ST/STM32F1xx/Include/system_stm32f1xx.h"
 3354              		.file 10 "Src/definitions.h"
 3355              		.file 11 "Src/notes.h"
 3356              		.file 12 "Src/ws2812.h"
 3357              		.file 13 "Src/draw.h"
 3358              		.file 14 "/Users/luissousa/opt/gcc-arm-none-eabi-8-2018-q4-major/arm-none-eabi/include/string.h"
 3359              		.file 15 "Drivers/STM32F1xx_HAL_Driver/Inc/stm32f1xx_ll_utils.h"
ARM GAS  /var/folders/hv/f19l0kw128sbpybv1h43gz3c0000gn/T//cch93GUf.s 			page 78


DEFINED SYMBOLS
                            *ABS*:0000000000000000 draw.c
/var/folders/hv/f19l0kw128sbpybv1h43gz3c0000gn/T//cch93GUf.s:16     .text.fillFramebuffer:0000000000000000 $t
/var/folders/hv/f19l0kw128sbpybv1h43gz3c0000gn/T//cch93GUf.s:24     .text.fillFramebuffer:0000000000000000 fillFramebuffer
/var/folders/hv/f19l0kw128sbpybv1h43gz3c0000gn/T//cch93GUf.s:208    .text.fillFramebuffer:00000000000000bc $d
                            *COM*:0000000000000300 backLayer
                            *COM*:0000000000000020 textLayer
                            *COM*:0000000000000003 textColor
/var/folders/hv/f19l0kw128sbpybv1h43gz3c0000gn/T//cch93GUf.s:215    .text.clearBack:0000000000000000 $t
/var/folders/hv/f19l0kw128sbpybv1h43gz3c0000gn/T//cch93GUf.s:222    .text.clearBack:0000000000000000 clearBack
/var/folders/hv/f19l0kw128sbpybv1h43gz3c0000gn/T//cch93GUf.s:294    .text.clearBack:0000000000000030 $d
/var/folders/hv/f19l0kw128sbpybv1h43gz3c0000gn/T//cch93GUf.s:300    .text.clearText:0000000000000000 $t
/var/folders/hv/f19l0kw128sbpybv1h43gz3c0000gn/T//cch93GUf.s:307    .text.clearText:0000000000000000 clearText
/var/folders/hv/f19l0kw128sbpybv1h43gz3c0000gn/T//cch93GUf.s:346    .text.clearText:0000000000000014 $d
/var/folders/hv/f19l0kw128sbpybv1h43gz3c0000gn/T//cch93GUf.s:351    .text.clearFramebuffer:0000000000000000 $t
/var/folders/hv/f19l0kw128sbpybv1h43gz3c0000gn/T//cch93GUf.s:358    .text.clearFramebuffer:0000000000000000 clearFramebuffer
/var/folders/hv/f19l0kw128sbpybv1h43gz3c0000gn/T//cch93GUf.s:463    .text.clearFramebuffer:0000000000000054 $d
/var/folders/hv/f19l0kw128sbpybv1h43gz3c0000gn/T//cch93GUf.s:470    .text.drawShapeNote:0000000000000000 $t
/var/folders/hv/f19l0kw128sbpybv1h43gz3c0000gn/T//cch93GUf.s:477    .text.drawShapeNote:0000000000000000 drawShapeNote
/var/folders/hv/f19l0kw128sbpybv1h43gz3c0000gn/T//cch93GUf.s:717    .text.drawShapeNote:00000000000000d0 $d
                            *COM*:0000000000000004 callback_function
                            *COM*:000000000000003c noteBuffer
/var/folders/hv/f19l0kw128sbpybv1h43gz3c0000gn/T//cch93GUf.s:727    .text.drawShapeNoteGrad:0000000000000000 $t
/var/folders/hv/f19l0kw128sbpybv1h43gz3c0000gn/T//cch93GUf.s:734    .text.drawShapeNoteGrad:0000000000000000 drawShapeNoteGrad
/var/folders/hv/f19l0kw128sbpybv1h43gz3c0000gn/T//cch93GUf.s:1004   .text.drawShapeNoteGrad:0000000000000120 $d
/var/folders/hv/f19l0kw128sbpybv1h43gz3c0000gn/T//cch93GUf.s:1015   .text.circle:0000000000000000 $t
/var/folders/hv/f19l0kw128sbpybv1h43gz3c0000gn/T//cch93GUf.s:1022   .text.circle:0000000000000000 circle
/var/folders/hv/f19l0kw128sbpybv1h43gz3c0000gn/T//cch93GUf.s:1073   .text.square:0000000000000000 $t
/var/folders/hv/f19l0kw128sbpybv1h43gz3c0000gn/T//cch93GUf.s:1080   .text.square:0000000000000000 square
/var/folders/hv/f19l0kw128sbpybv1h43gz3c0000gn/T//cch93GUf.s:1180   .text.triangle:0000000000000000 $t
/var/folders/hv/f19l0kw128sbpybv1h43gz3c0000gn/T//cch93GUf.s:1187   .text.triangle:0000000000000000 triangle
/var/folders/hv/f19l0kw128sbpybv1h43gz3c0000gn/T//cch93GUf.s:1314   .text.triangle:0000000000000098 $d
/var/folders/hv/f19l0kw128sbpybv1h43gz3c0000gn/T//cch93GUf.s:1325   .text.cross:0000000000000000 $t
/var/folders/hv/f19l0kw128sbpybv1h43gz3c0000gn/T//cch93GUf.s:1332   .text.cross:0000000000000000 cross
/var/folders/hv/f19l0kw128sbpybv1h43gz3c0000gn/T//cch93GUf.s:1426   .text.horizontal:0000000000000000 $t
/var/folders/hv/f19l0kw128sbpybv1h43gz3c0000gn/T//cch93GUf.s:1433   .text.horizontal:0000000000000000 horizontal
/var/folders/hv/f19l0kw128sbpybv1h43gz3c0000gn/T//cch93GUf.s:1527   .text.vertical:0000000000000000 $t
/var/folders/hv/f19l0kw128sbpybv1h43gz3c0000gn/T//cch93GUf.s:1534   .text.vertical:0000000000000000 vertical
/var/folders/hv/f19l0kw128sbpybv1h43gz3c0000gn/T//cch93GUf.s:1628   .text.drawLine:0000000000000000 $t
/var/folders/hv/f19l0kw128sbpybv1h43gz3c0000gn/T//cch93GUf.s:1635   .text.drawLine:0000000000000000 drawLine
/var/folders/hv/f19l0kw128sbpybv1h43gz3c0000gn/T//cch93GUf.s:1718   .text.drawLine:0000000000000040 $d
/var/folders/hv/f19l0kw128sbpybv1h43gz3c0000gn/T//cch93GUf.s:1723   .text.drawPixel:0000000000000000 $t
/var/folders/hv/f19l0kw128sbpybv1h43gz3c0000gn/T//cch93GUf.s:1730   .text.drawPixel:0000000000000000 drawPixel
/var/folders/hv/f19l0kw128sbpybv1h43gz3c0000gn/T//cch93GUf.s:1811   .text.drawPixel:0000000000000040 $d
/var/folders/hv/f19l0kw128sbpybv1h43gz3c0000gn/T//cch93GUf.s:1816   .text.drawColor:0000000000000000 $t
/var/folders/hv/f19l0kw128sbpybv1h43gz3c0000gn/T//cch93GUf.s:1823   .text.drawColor:0000000000000000 drawColor
/var/folders/hv/f19l0kw128sbpybv1h43gz3c0000gn/T//cch93GUf.s:1890   .text.drawColor:000000000000002c $d
/var/folders/hv/f19l0kw128sbpybv1h43gz3c0000gn/T//cch93GUf.s:1895   .text.getFontLine:0000000000000000 $t
/var/folders/hv/f19l0kw128sbpybv1h43gz3c0000gn/T//cch93GUf.s:1902   .text.getFontLine:0000000000000000 getFontLine
/var/folders/hv/f19l0kw128sbpybv1h43gz3c0000gn/T//cch93GUf.s:2011   .text.getFontLine:0000000000000060 $d
/var/folders/hv/f19l0kw128sbpybv1h43gz3c0000gn/T//cch93GUf.s:2016   .text.drawLetter:0000000000000000 $t
/var/folders/hv/f19l0kw128sbpybv1h43gz3c0000gn/T//cch93GUf.s:2023   .text.drawLetter:0000000000000000 drawLetter
/var/folders/hv/f19l0kw128sbpybv1h43gz3c0000gn/T//cch93GUf.s:2159   .text.drawLetter:0000000000000094 $d
/var/folders/hv/f19l0kw128sbpybv1h43gz3c0000gn/T//cch93GUf.s:2164   .text.drawString:0000000000000000 $t
/var/folders/hv/f19l0kw128sbpybv1h43gz3c0000gn/T//cch93GUf.s:2171   .text.drawString:0000000000000000 drawString
/var/folders/hv/f19l0kw128sbpybv1h43gz3c0000gn/T//cch93GUf.s:2287   .text.drawCenter:0000000000000000 $t
/var/folders/hv/f19l0kw128sbpybv1h43gz3c0000gn/T//cch93GUf.s:2294   .text.drawCenter:0000000000000000 drawCenter
ARM GAS  /var/folders/hv/f19l0kw128sbpybv1h43gz3c0000gn/T//cch93GUf.s 			page 79


/var/folders/hv/f19l0kw128sbpybv1h43gz3c0000gn/T//cch93GUf.s:2371   .text.checkSequence:0000000000000000 $t
/var/folders/hv/f19l0kw128sbpybv1h43gz3c0000gn/T//cch93GUf.s:2378   .text.checkSequence:0000000000000000 checkSequence
/var/folders/hv/f19l0kw128sbpybv1h43gz3c0000gn/T//cch93GUf.s:2498   .text.checkSequence:0000000000000068 $d
                            *COM*:0000000000000072 noteSequence
/var/folders/hv/f19l0kw128sbpybv1h43gz3c0000gn/T//cch93GUf.s:2504   .text.drawNote:0000000000000000 $t
/var/folders/hv/f19l0kw128sbpybv1h43gz3c0000gn/T//cch93GUf.s:2511   .text.drawNote:0000000000000000 drawNote
/var/folders/hv/f19l0kw128sbpybv1h43gz3c0000gn/T//cch93GUf.s:2531   .text.drawStringArray:0000000000000000 $t
/var/folders/hv/f19l0kw128sbpybv1h43gz3c0000gn/T//cch93GUf.s:2538   .text.drawStringArray:0000000000000000 drawStringArray
/var/folders/hv/f19l0kw128sbpybv1h43gz3c0000gn/T//cch93GUf.s:2709   .text.drawStringArray:0000000000000090 $d
/var/folders/hv/f19l0kw128sbpybv1h43gz3c0000gn/T//cch93GUf.s:2714   .text.drawScrollingString:0000000000000000 $t
/var/folders/hv/f19l0kw128sbpybv1h43gz3c0000gn/T//cch93GUf.s:2721   .text.drawScrollingString:0000000000000000 drawScrollingString
/var/folders/hv/f19l0kw128sbpybv1h43gz3c0000gn/T//cch93GUf.s:3028   .text.drawScrollingString:0000000000000150 $d
/var/folders/hv/f19l0kw128sbpybv1h43gz3c0000gn/T//cch93GUf.s:3083   .data.MODE_TEXT:0000000000000000 MODE_TEXT
/var/folders/hv/f19l0kw128sbpybv1h43gz3c0000gn/T//cch93GUf.s:3078   .data.MODE_BACK:0000000000000000 MODE_BACK
/var/folders/hv/f19l0kw128sbpybv1h43gz3c0000gn/T//cch93GUf.s:3067   .data.MAX_BRIGHT:0000000000000000 MAX_BRIGHT
/var/folders/hv/f19l0kw128sbpybv1h43gz3c0000gn/T//cch93GUf.s:3073   .data.MAX_DIV:0000000000000000 MAX_DIV
/var/folders/hv/f19l0kw128sbpybv1h43gz3c0000gn/T//cch93GUf.s:3061   .bss.orientation:0000000000000000 orientation
/var/folders/hv/f19l0kw128sbpybv1h43gz3c0000gn/T//cch93GUf.s:3151   .rodata.font4x6:0000000000000000 font4x6
/var/folders/hv/f19l0kw128sbpybv1h43gz3c0000gn/T//cch93GUf.s:3090   .data.arrColor:0000000000000000 arrColor
/var/folders/hv/f19l0kw128sbpybv1h43gz3c0000gn/T//cch93GUf.s:3055   .bss.arr:0000000000000000 arr
/var/folders/hv/f19l0kw128sbpybv1h43gz3c0000gn/T//cch93GUf.s:3142   .data.letterColor:0000000000000000 letterColor
/var/folders/hv/f19l0kw128sbpybv1h43gz3c0000gn/T//cch93GUf.s:3134   .data.currColor:0000000000000000 currColor
                            *COM*:0000000000000600 WS2812_IO_framedata
                            *COM*:0000000000000003 note
                            *COM*:0000000000000003 backColor
/var/folders/hv/f19l0kw128sbpybv1h43gz3c0000gn/T//cch93GUf.s:3052   .bss.arr:0000000000000000 $d
/var/folders/hv/f19l0kw128sbpybv1h43gz3c0000gn/T//cch93GUf.s:3062   .bss.orientation:0000000000000000 $d
/var/folders/hv/f19l0kw128sbpybv1h43gz3c0000gn/T//cch93GUf.s:3064   .data.MAX_BRIGHT:0000000000000000 $d
/var/folders/hv/f19l0kw128sbpybv1h43gz3c0000gn/T//cch93GUf.s:3086   .data.arrColor:0000000000000000 $d
/var/folders/hv/f19l0kw128sbpybv1h43gz3c0000gn/T//cch93GUf.s:3131   .data.currColor:0000000000000000 $d
/var/folders/hv/f19l0kw128sbpybv1h43gz3c0000gn/T//cch93GUf.s:3139   .data.letterColor:0000000000000000 $d
/var/folders/hv/f19l0kw128sbpybv1h43gz3c0000gn/T//cch93GUf.s:3147   .rodata.font4x6:0000000000000000 $d

UNDEFINED SYMBOLS
setColorFB
WS2812_framedata_setPixel
setColor
__aeabi_i2f
__aeabi_fdiv
__aeabi_fmul
__aeabi_fcmple
__aeabi_fcmpge
__aeabi_i2d
__aeabi_dmul
__aeabi_f2d
__aeabi_dadd
__aeabi_d2f
__aeabi_fcmpgt
__aeabi_fcmplt
__aeabi_dcmplt
__aeabi_fsub
strlen
getNoteBuffer
setTextColor
WS2812_sendbuf
LL_mDelay
