ARM GAS  /var/folders/hv/f19l0kw128sbpybv1h43gz3c0000gn/T//ccSiVDMR.s 			page 1


   1              		.cpu cortex-m3
   2              		.eabi_attribute 20, 1
   3              		.eabi_attribute 21, 1
   4              		.eabi_attribute 23, 3
   5              		.eabi_attribute 24, 1
   6              		.eabi_attribute 25, 1
   7              		.eabi_attribute 26, 1
   8              		.eabi_attribute 30, 1
   9              		.eabi_attribute 34, 1
  10              		.eabi_attribute 18, 4
  11              		.file	"draw.c"
  12              		.text
  13              	.Ltext0:
  14              		.cfi_sections	.debug_frame
  15              		.section	.text.fillFramebuffer,"ax",%progbits
  16              		.align	1
  17              		.global	fillFramebuffer
  18              		.arch armv7-m
  19              		.syntax unified
  20              		.thumb
  21              		.thumb_func
  22              		.fpu softvfp
  24              	fillFramebuffer:
  25              	.LFB68:
  26              		.file 1 "Src/draw.c"
   1:Src/draw.c    **** #include "stdint.h"
   2:Src/draw.c    **** #include "string.h"
   3:Src/draw.c    **** #include "stm32f1xx_ll_utils.h"
   4:Src/draw.c    **** #include "definitions.h"
   5:Src/draw.c    **** #include "notes.h"
   6:Src/draw.c    **** #include "ws2812.h"
   7:Src/draw.c    **** #include "draw.h"
   8:Src/draw.c    **** 
   9:Src/draw.c    **** uint8_t currColor[3] = {60, 25, 0};
  10:Src/draw.c    **** uint8_t letterColor[3] = {0, 10, 0};
  11:Src/draw.c    **** 
  12:Src/draw.c    **** volatile uint8_t arr[3] = {0, 0, 0};
  13:Src/draw.c    **** uint8_t arrColor[13][3] = {
  14:Src/draw.c    ****     {50, 0, 0},   //red ~~
  15:Src/draw.c    ****     {50, 25, 0},  //orange ~~
  16:Src/draw.c    ****     {50, 50, 0},  //amarelo ~~
  17:Src/draw.c    ****     {50, 38, 0},  //castanho ~~
  18:Src/draw.c    ****     {0, 50, 36},  //azul turquesa ~~
  19:Src/draw.c    ****     {25, 0, 50},  //cor de rosa ~~
  20:Src/draw.c    ****     {50, 0, 25},  //rosa choque ~~
  21:Src/draw.c    ****     {50, 0, 50},  //violeta escuro ~~
  22:Src/draw.c    ****     {0, 0, 40},   //azul escuro
  23:Src/draw.c    ****     {30, 30, 30}, //cinzento
  24:Src/draw.c    ****     {60, 60, 20}, //branca
  25:Src/draw.c    ****     {60, 30, 20}, //red magenta
  26:Src/draw.c    ****     {0, 0, 0}};
  27:Src/draw.c    **** 
  28:Src/draw.c    **** const uint8_t font4x6[96][2] = {
  29:Src/draw.c    ****     {0x00, 0x00}, /*SPACE*/
  30:Src/draw.c    ****     {0x49, 0x08}, /*'!'*/
  31:Src/draw.c    ****     {0xb4, 0x00}, /*'"'*/
  32:Src/draw.c    ****     {0xbe, 0xf6}, /*'#'*/
ARM GAS  /var/folders/hv/f19l0kw128sbpybv1h43gz3c0000gn/T//ccSiVDMR.s 			page 2


  33:Src/draw.c    ****     {0x7b, 0x7a}, /*'$'*/
  34:Src/draw.c    ****     {0xa5, 0x94}, /*'%'*/
  35:Src/draw.c    ****     {0x55, 0xb8}, /*'&'*/
  36:Src/draw.c    ****     {0x48, 0x00}, /*'''*/
  37:Src/draw.c    ****     {0x29, 0x44}, /*'('*/
  38:Src/draw.c    ****     {0x44, 0x2a}, /*')'*/
  39:Src/draw.c    ****     {0x15, 0xa0}, /*'*'*/
  40:Src/draw.c    ****     {0x0b, 0x42}, /*'+'*/
  41:Src/draw.c    ****     {0x00, 0x50}, /*','*/
  42:Src/draw.c    ****     {0x03, 0x02}, /*'-'*/
  43:Src/draw.c    ****     {0x00, 0x08}, /*'.'*/
  44:Src/draw.c    ****     {0x25, 0x90}, /*'/'*/
  45:Src/draw.c    ****     {0x76, 0xba}, /*'0'*/
  46:Src/draw.c    ****     {0x59, 0x5c}, /*'1'*/
  47:Src/draw.c    ****     {0xc5, 0x9e}, /*'2'*/
  48:Src/draw.c    ****     {0xc5, 0x38}, /*'3'*/
  49:Src/draw.c    ****     {0x92, 0xe6}, /*'4'*/
  50:Src/draw.c    ****     {0xf3, 0x3a}, /*'5'*/
  51:Src/draw.c    ****     {0x73, 0xba}, /*'6'*/
  52:Src/draw.c    ****     {0xe5, 0x90}, /*'7'*/
  53:Src/draw.c    ****     {0x77, 0xba}, /*'8'*/
  54:Src/draw.c    ****     {0x77, 0x3a}, /*'9'*/
  55:Src/draw.c    ****     {0x08, 0x40}, /*':'*/
  56:Src/draw.c    ****     {0x08, 0x50}, /*';'*/
  57:Src/draw.c    ****     {0x2a, 0x44}, /*'<'*/
  58:Src/draw.c    ****     {0x1c, 0xe0}, /*'='*/
  59:Src/draw.c    ****     {0x88, 0x52}, /*'>'*/
  60:Src/draw.c    ****     {0xe5, 0x08}, /*'?'*/
  61:Src/draw.c    ****     {0x56, 0x8e}, /*'@'*/
  62:Src/draw.c    ****     {0x77, 0xb6}, /*'A'*/
  63:Src/draw.c    ****     {0x77, 0xb8}, /*'B'*/
  64:Src/draw.c    ****     {0x72, 0x8c}, /*'C'*/
  65:Src/draw.c    ****     {0xd6, 0xba}, /*'D'*/
  66:Src/draw.c    ****     {0x73, 0x9e}, /*'E'*/
  67:Src/draw.c    ****     {0x73, 0x92}, /*'F'*/
  68:Src/draw.c    ****     {0x72, 0xae}, /*'G'*/
  69:Src/draw.c    ****     {0xb7, 0xb6}, /*'H'*/
  70:Src/draw.c    ****     {0xe9, 0x5c}, /*'I'*/
  71:Src/draw.c    ****     {0x64, 0xaa}, /*'J'*/
  72:Src/draw.c    ****     {0xb7, 0xb4}, /*'K'*/
  73:Src/draw.c    ****     {0x92, 0x9c}, /*'L'*/
  74:Src/draw.c    ****     {0xbe, 0xb6}, /*'M'*/
  75:Src/draw.c    ****     {0xd6, 0xb6}, /*'N'*/
  76:Src/draw.c    ****     {0x56, 0xaa}, /*'O'*/
  77:Src/draw.c    ****     {0xd7, 0x92}, /*'P'*/
  78:Src/draw.c    ****     {0x76, 0xee}, /*'Q'*/
  79:Src/draw.c    ****     {0x77, 0xb4}, /*'R'*/
  80:Src/draw.c    ****     {0x71, 0x38}, /*'S'*/
  81:Src/draw.c    ****     {0xe9, 0x48}, /*'T'*/
  82:Src/draw.c    ****     {0xb6, 0xae}, /*'U'*/
  83:Src/draw.c    ****     {0xb6, 0xaa}, /*'V'*/
  84:Src/draw.c    ****     {0xb6, 0xf6}, /*'W'*/
  85:Src/draw.c    ****     {0xb5, 0xb4}, /*'X'*/
  86:Src/draw.c    ****     {0xb5, 0x48}, /*'Y'*/
  87:Src/draw.c    ****     {0xe5, 0x9c}, /*'Z'*/
  88:Src/draw.c    ****     {0x69, 0x4c}, /*'['*/
  89:Src/draw.c    ****     {0x91, 0x24}, /*'\'*/
ARM GAS  /var/folders/hv/f19l0kw128sbpybv1h43gz3c0000gn/T//ccSiVDMR.s 			page 3


  90:Src/draw.c    ****     {0x64, 0x2e}, /*']'*/
  91:Src/draw.c    ****     {0x54, 0x00}, /*'^'*/
  92:Src/draw.c    ****     {0x00, 0x1c}, /*'_'*/
  93:Src/draw.c    ****     {0x44, 0x00}, /*'`'*/
  94:Src/draw.c    ****     {0x0e, 0xae}, /*'a'*/
  95:Src/draw.c    ****     {0x9a, 0xba}, /*'b'*/
  96:Src/draw.c    ****     {0x0e, 0x8c}, /*'c'*/
  97:Src/draw.c    ****     {0x2e, 0xae}, /*'d'*/
  98:Src/draw.c    ****     {0x0e, 0xce}, /*'e'*/
  99:Src/draw.c    ****     {0x56, 0xd0}, /*'f'*/
 100:Src/draw.c    ****     {0x55, 0x3B}, /*'g'*/
 101:Src/draw.c    ****     {0x93, 0xb4}, /*'h'*/
 102:Src/draw.c    ****     {0x41, 0x44}, /*'i'*/
 103:Src/draw.c    ****     {0x41, 0x51}, /*'j'*/
 104:Src/draw.c    ****     {0x97, 0xb4}, /*'k'*/
 105:Src/draw.c    ****     {0x49, 0x44}, /*'l'*/
 106:Src/draw.c    ****     {0x17, 0xb6}, /*'m'*/
 107:Src/draw.c    ****     {0x1a, 0xb6}, /*'n'*/
 108:Src/draw.c    ****     {0x0a, 0xaa}, /*'o'*/
 109:Src/draw.c    ****     {0xd6, 0xd3}, /*'p'*/
 110:Src/draw.c    ****     {0x76, 0x67}, /*'q'*/
 111:Src/draw.c    ****     {0x17, 0x90}, /*'r'*/
 112:Src/draw.c    ****     {0x0f, 0x38}, /*'s'*/
 113:Src/draw.c    ****     {0x9a, 0x8c}, /*'t'*/
 114:Src/draw.c    ****     {0x16, 0xae}, /*'u'*/
 115:Src/draw.c    ****     {0x16, 0xba}, /*'v'*/
 116:Src/draw.c    ****     {0x16, 0xf6}, /*'w'*/
 117:Src/draw.c    ****     {0x15, 0xb4}, /*'x'*/
 118:Src/draw.c    ****     {0xb5, 0x2b}, /*'y'*/
 119:Src/draw.c    ****     {0x1c, 0x5e}, /*'z'*/
 120:Src/draw.c    ****     {0x6b, 0x4c}, /*'{'*/
 121:Src/draw.c    ****     {0x49, 0x48}, /*'|'*/
 122:Src/draw.c    ****     {0xc9, 0x5a}, /*'}'*/
 123:Src/draw.c    ****     {0x54, 0x00}, /*'~'*/
 124:Src/draw.c    ****     {0x56, 0xe2}  /*''*/
 125:Src/draw.c    **** };
 126:Src/draw.c    **** 
 127:Src/draw.c    **** void fillFramebuffer(void)
 128:Src/draw.c    **** {
  27              		.loc 1 128 1 view -0
  28              		.cfi_startproc
  29              		@ args = 0, pretend = 0, frame = 8
  30              		@ frame_needed = 0, uses_anonymous_args = 0
  31 0000 2DE9F041 		push	{r4, r5, r6, r7, r8, lr}
  32              	.LCFI0:
  33              		.cfi_def_cfa_offset 24
  34              		.cfi_offset 4, -24
  35              		.cfi_offset 5, -20
  36              		.cfi_offset 6, -16
  37              		.cfi_offset 7, -12
  38              		.cfi_offset 8, -8
  39              		.cfi_offset 14, -4
  40 0004 84B0     		sub	sp, sp, #16
  41              	.LCFI1:
  42              		.cfi_def_cfa_offset 40
 129:Src/draw.c    ****   uint8_t mod, tempPoint[3], invI, invJ, invX, tmp;
  43              		.loc 1 129 3 view .LVU1
ARM GAS  /var/folders/hv/f19l0kw128sbpybv1h43gz3c0000gn/T//ccSiVDMR.s 			page 4


 130:Src/draw.c    ****   uint16_t coords;
  44              		.loc 1 130 3 view .LVU2
 131:Src/draw.c    **** #if REVERSE_ORIENTATION
 132:Src/draw.c    ****   for (uint8_t x = 0; x < NCOLS; x++)
  45              		.loc 1 132 3 view .LVU3
  46              	.LBB2:
  47              		.loc 1 132 8 view .LVU4
  48              	.LVL0:
  49              		.loc 1 132 16 is_stmt 0 view .LVU5
  50 0006 0026     		movs	r6, #0
  51              		.loc 1 132 3 view .LVU6
  52 0008 4FE0     		b	.L2
  53              	.LVL1:
  54              	.L10:
  55              	.LBB3:
  56              	.LBB4:
 133:Src/draw.c    ****   {
 134:Src/draw.c    ****     for (uint8_t i = 0; i < NCHANNELS; i++)
 135:Src/draw.c    ****     {
 136:Src/draw.c    ****       for (uint8_t j = 0; j < NLINESCH; j++)
 137:Src/draw.c    ****       {
 138:Src/draw.c    ****         mod = j % 2;
 139:Src/draw.c    ****         if ((j + (i * NLINESCH)) > NCOLSL)
 140:Src/draw.c    ****           break;
 141:Src/draw.c    ****         coords = j + (i * NLINESCH) + (x * NCOLS);
 142:Src/draw.c    **** 
 143:Src/draw.c    **** #if MIRROR_X
 144:Src/draw.c    ****         invX = mod ? NCOLSL - x : x;
 145:Src/draw.c    **** #if MIRROR_Y
 146:Src/draw.c    ****         invI = i;
 147:Src/draw.c    ****         invJ = j;
 148:Src/draw.c    **** #else
 149:Src/draw.c    ****         invI = NCHANNELS - 1 - i;
 150:Src/draw.c    ****         invJ = NLINESCH - 1 - j;
 151:Src/draw.c    **** #endif
 152:Src/draw.c    **** #else
 153:Src/draw.c    ****         invX = mod ? x : NCOLSL - x;
  57              		.loc 1 153 14 view .LVU7
  58 000a B046     		mov	r8, r6
  59              	.L4:
  60              	.LVL2:
 154:Src/draw.c    **** #if MIRROR_Y
 155:Src/draw.c    ****         invI = NCHANNELS - 1 - i;
 156:Src/draw.c    ****         invJ = NLINESCH - 1 - j;
 157:Src/draw.c    **** #else
 158:Src/draw.c    ****         invI = i;
  61              		.loc 1 158 9 is_stmt 1 discriminator 4 view .LVU8
 159:Src/draw.c    ****         invJ = j;
  62              		.loc 1 159 9 discriminator 4 view .LVU9
 160:Src/draw.c    **** #endif
 161:Src/draw.c    **** #endif
 162:Src/draw.c    **** #else
 163:Src/draw.c    ****   for (uint8_t i = 0; i < NCHANNELS; i++)
 164:Src/draw.c    ****   {
 165:Src/draw.c    ****     for (uint8_t j = 0; j < NLINESCH; j++)
 166:Src/draw.c    ****     {
 167:Src/draw.c    ****       mod = j % 2;
ARM GAS  /var/folders/hv/f19l0kw128sbpybv1h43gz3c0000gn/T//ccSiVDMR.s 			page 5


 168:Src/draw.c    ****       for (uint8_t x = 0; x < NCOLS; x++)
 169:Src/draw.c    ****       {
 170:Src/draw.c    ****         if ((x + (j * NCOLS) + (i * NLEDSCH)) > NLEDSL)
 171:Src/draw.c    ****           break;
 172:Src/draw.c    ****         coords = x + (j * NCOLS) + (i * NLEDSCH);
 173:Src/draw.c    **** 
 174:Src/draw.c    **** #if MIRROR_X
 175:Src/draw.c    ****         invX = mod ? x : NCOLSL - x;
 176:Src/draw.c    **** #else
 177:Src/draw.c    ****         invX = mod ? NCOLSL - x : x;
 178:Src/draw.c    **** #endif
 179:Src/draw.c    **** #if MIRROR_Y
 180:Src/draw.c    ****         invI = NCHANNELS - 1 - i;
 181:Src/draw.c    ****         invJ = NLINESCH - 1 - j;
 182:Src/draw.c    **** #else
 183:Src/draw.c    ****         invI = i;
 184:Src/draw.c    ****         invJ = j;
 185:Src/draw.c    **** #endif
 186:Src/draw.c    **** #endif
 187:Src/draw.c    ****         tmp = textLayer[coords][0] + textLayer[coords][1] + textLayer[coords][2];
  63              		.loc 1 187 9 discriminator 4 view .LVU10
  64              		.loc 1 187 32 is_stmt 0 discriminator 4 view .LVU11
  65 000c 2A48     		ldr	r0, .L16
  66 000e 01EB4103 		add	r3, r1, r1, lsl #1
  67 0012 C218     		adds	r2, r0, r3
  68              	.LVL3:
  69              		.loc 1 187 32 discriminator 4 view .LVU12
  70 0014 C35C     		ldrb	r3, [r0, r3]	@ zero_extendqisi2
  71              		.loc 1 187 55 discriminator 4 view .LVU13
  72 0016 5078     		ldrb	r0, [r2, #1]	@ zero_extendqisi2
  73              		.loc 1 187 36 discriminator 4 view .LVU14
  74 0018 0344     		add	r3, r3, r0
  75 001a DBB2     		uxtb	r3, r3
  76              		.loc 1 187 78 discriminator 4 view .LVU15
  77 001c 9278     		ldrb	r2, [r2, #2]	@ zero_extendqisi2
  78              		.loc 1 187 13 discriminator 4 view .LVU16
  79 001e 1344     		add	r3, r3, r2
  80              	.LVL4:
 188:Src/draw.c    ****         if (tmp)
  81              		.loc 1 188 9 is_stmt 1 discriminator 4 view .LVU17
  82              		.loc 1 188 12 is_stmt 0 discriminator 4 view .LVU18
  83 0020 13F0FF0F 		tst	r3, #255
  84 0024 31D0     		beq	.L5
 189:Src/draw.c    ****           setColorFB(tempPoint, textLayer[coords]);
  85              		.loc 1 189 11 is_stmt 1 view .LVU19
  86              		.loc 1 189 42 is_stmt 0 view .LVU20
  87 0026 01EB4101 		add	r1, r1, r1, lsl #1
  88              	.LVL5:
  89              		.loc 1 189 11 view .LVU21
  90 002a 234B     		ldr	r3, .L16
  91              	.LVL6:
  92              		.loc 1 189 11 view .LVU22
  93 002c 1944     		add	r1, r1, r3
  94              	.LVL7:
  95              		.loc 1 189 11 view .LVU23
  96 002e 03A8     		add	r0, sp, #12
  97              	.LVL8:
ARM GAS  /var/folders/hv/f19l0kw128sbpybv1h43gz3c0000gn/T//ccSiVDMR.s 			page 6


  98              		.loc 1 189 11 view .LVU24
  99 0030 FFF7FEFF 		bl	setColorFB
 100              	.LVL9:
 101              	.L6:
 190:Src/draw.c    ****         else
 191:Src/draw.c    ****           setColorFB(tempPoint, backLayer[coords]);
 192:Src/draw.c    **** 
 193:Src/draw.c    ****         WS2812_framedata_setPixel(invI, invX + (invJ * NCOLS), tempPoint[0], tempPoint[1], tempPoin
 102              		.loc 1 193 9 is_stmt 1 discriminator 2 view .LVU25
 103 0034 07EB4701 		add	r1, r7, r7, lsl #1
 104 0038 C1EB0111 		rsb	r1, r1, r1, lsl #4
 105 003c 4144     		add	r1, r1, r8
 106 003e 9DF80E30 		ldrb	r3, [sp, #14]	@ zero_extendqisi2
 107 0042 0093     		str	r3, [sp]
 108 0044 9DF80D30 		ldrb	r3, [sp, #13]	@ zero_extendqisi2
 109 0048 9DF80C20 		ldrb	r2, [sp, #12]	@ zero_extendqisi2
 110 004c 89B2     		uxth	r1, r1
 111 004e 2846     		mov	r0, r5
 112 0050 FFF7FEFF 		bl	WS2812_framedata_setPixel
 113              	.LVL10:
 136:Src/draw.c    ****       {
 114              		.loc 1 136 42 is_stmt 0 discriminator 2 view .LVU26
 115 0054 0134     		adds	r4, r4, #1
 116              	.LVL11:
 136:Src/draw.c    ****       {
 117              		.loc 1 136 42 discriminator 2 view .LVU27
 118 0056 E4B2     		uxtb	r4, r4
 119              	.LVL12:
 120              	.L8:
 136:Src/draw.c    ****       {
 121              		.loc 1 136 7 discriminator 1 view .LVU28
 122 0058 032C     		cmp	r4, #3
 123 005a 1ED8     		bhi	.L3
 138:Src/draw.c    ****         if ((j + (i * NLINESCH)) > NCOLSL)
 124              		.loc 1 138 9 is_stmt 1 view .LVU29
 138:Src/draw.c    ****         if ((j + (i * NLINESCH)) > NCOLSL)
 125              		.loc 1 138 13 is_stmt 0 view .LVU30
 126 005c 04F00102 		and	r2, r4, #1
 127              	.LVL13:
 139:Src/draw.c    ****           break;
 128              		.loc 1 139 9 is_stmt 1 view .LVU31
 139:Src/draw.c    ****           break;
 129              		.loc 1 139 16 is_stmt 0 view .LVU32
 130 0060 04EB8503 		add	r3, r4, r5, lsl #2
 139:Src/draw.c    ****           break;
 131              		.loc 1 139 12 view .LVU33
 132 0064 2C2B     		cmp	r3, #44
 133 0066 18DC     		bgt	.L3
 141:Src/draw.c    **** 
 134              		.loc 1 141 9 is_stmt 1 view .LVU34
 141:Src/draw.c    **** 
 135              		.loc 1 141 37 is_stmt 0 view .LVU35
 136 0068 A7B2     		uxth	r7, r4
 137 006a 06EB4601 		add	r1, r6, r6, lsl #1
 138 006e C1EB0111 		rsb	r1, r1, r1, lsl #4
 139 0072 01EB8501 		add	r1, r1, r5, lsl #2
 140 0076 89B2     		uxth	r1, r1
ARM GAS  /var/folders/hv/f19l0kw128sbpybv1h43gz3c0000gn/T//ccSiVDMR.s 			page 7


 141:Src/draw.c    **** 
 141              		.loc 1 141 16 view .LVU36
 142 0078 3944     		add	r1, r1, r7
 143 007a 89B2     		uxth	r1, r1
 144              	.LVL14:
 153:Src/draw.c    **** #if MIRROR_Y
 145              		.loc 1 153 9 is_stmt 1 view .LVU37
 153:Src/draw.c    **** #if MIRROR_Y
 146              		.loc 1 153 14 is_stmt 0 view .LVU38
 147 007c 002A     		cmp	r2, #0
 148 007e C4D1     		bne	.L10
 153:Src/draw.c    **** #if MIRROR_Y
 149              		.loc 1 153 14 discriminator 1 view .LVU39
 150 0080 C6F12C08 		rsb	r8, r6, #44
 151 0084 5FFA88F8 		uxtb	r8, r8
 152 0088 C0E7     		b	.L4
 153              	.LVL15:
 154              	.L5:
 191:Src/draw.c    **** 
 155              		.loc 1 191 11 is_stmt 1 view .LVU40
 191:Src/draw.c    **** 
 156              		.loc 1 191 42 is_stmt 0 view .LVU41
 157 008a 01EB4101 		add	r1, r1, r1, lsl #1
 158              	.LVL16:
 191:Src/draw.c    **** 
 159              		.loc 1 191 11 view .LVU42
 160 008e 0B4B     		ldr	r3, .L16+4
 161              	.LVL17:
 191:Src/draw.c    **** 
 162              		.loc 1 191 11 view .LVU43
 163 0090 1944     		add	r1, r1, r3
 164 0092 03A8     		add	r0, sp, #12
 165              	.LVL18:
 191:Src/draw.c    **** 
 166              		.loc 1 191 11 view .LVU44
 167 0094 FFF7FEFF 		bl	setColorFB
 168              	.LVL19:
 191:Src/draw.c    **** 
 169              		.loc 1 191 11 view .LVU45
 170 0098 CCE7     		b	.L6
 171              	.LVL20:
 172              	.L3:
 191:Src/draw.c    **** 
 173              		.loc 1 191 11 view .LVU46
 174              	.LBE4:
 134:Src/draw.c    ****     {
 175              		.loc 1 134 41 discriminator 2 view .LVU47
 176 009a 0135     		adds	r5, r5, #1
 177              	.LVL21:
 134:Src/draw.c    ****     {
 178              		.loc 1 134 41 discriminator 2 view .LVU48
 179 009c EDB2     		uxtb	r5, r5
 180              	.LVL22:
 181              	.L9:
 134:Src/draw.c    ****     {
 182              		.loc 1 134 5 discriminator 1 view .LVU49
 183 009e 0B2D     		cmp	r5, #11
ARM GAS  /var/folders/hv/f19l0kw128sbpybv1h43gz3c0000gn/T//ccSiVDMR.s 			page 8


 184 00a0 01D8     		bhi	.L14
 185              	.LBB5:
 136:Src/draw.c    ****       {
 186              		.loc 1 136 20 view .LVU50
 187 00a2 0024     		movs	r4, #0
 188 00a4 D8E7     		b	.L8
 189              	.L14:
 190              	.LBE5:
 191              	.LBE3:
 132:Src/draw.c    ****   {
 192              		.loc 1 132 35 discriminator 2 view .LVU51
 193 00a6 0136     		adds	r6, r6, #1
 194              	.LVL23:
 132:Src/draw.c    ****   {
 195              		.loc 1 132 35 discriminator 2 view .LVU52
 196 00a8 F6B2     		uxtb	r6, r6
 197              	.LVL24:
 198              	.L2:
 132:Src/draw.c    ****   {
 199              		.loc 1 132 3 discriminator 1 view .LVU53
 200 00aa 2C2E     		cmp	r6, #44
 201 00ac 01D8     		bhi	.L15
 202              	.LBB6:
 134:Src/draw.c    ****     {
 203              		.loc 1 134 18 view .LVU54
 204 00ae 0025     		movs	r5, #0
 205 00b0 F5E7     		b	.L9
 206              	.L15:
 207              	.LBE6:
 208              	.LBE2:
 194:Src/draw.c    ****       }
 195:Src/draw.c    ****     }
 196:Src/draw.c    ****   }
 197:Src/draw.c    **** }
 209              		.loc 1 197 1 view .LVU55
 210 00b2 04B0     		add	sp, sp, #16
 211              	.LCFI2:
 212              		.cfi_def_cfa_offset 24
 213              		@ sp needed
 214 00b4 BDE8F081 		pop	{r4, r5, r6, r7, r8, pc}
 215              	.LVL25:
 216              	.L17:
 217              		.loc 1 197 1 view .LVU56
 218              		.align	2
 219              	.L16:
 220 00b8 00000000 		.word	textLayer
 221 00bc 00000000 		.word	backLayer
 222              		.cfi_endproc
 223              	.LFE68:
 225              		.section	.text.clearBack,"ax",%progbits
 226              		.align	1
 227              		.global	clearBack
 228              		.syntax unified
 229              		.thumb
 230              		.thumb_func
 231              		.fpu softvfp
 233              	clearBack:
ARM GAS  /var/folders/hv/f19l0kw128sbpybv1h43gz3c0000gn/T//ccSiVDMR.s 			page 9


 234              	.LFB69:
 198:Src/draw.c    **** 
 199:Src/draw.c    **** void clearBack(void)
 200:Src/draw.c    **** {
 235              		.loc 1 200 1 is_stmt 1 view -0
 236              		.cfi_startproc
 237              		@ args = 0, pretend = 0, frame = 0
 238              		@ frame_needed = 0, uses_anonymous_args = 0
 239 0000 38B5     		push	{r3, r4, r5, lr}
 240              	.LCFI3:
 241              		.cfi_def_cfa_offset 16
 242              		.cfi_offset 3, -16
 243              		.cfi_offset 4, -12
 244              		.cfi_offset 5, -8
 245              		.cfi_offset 14, -4
 201:Src/draw.c    ****   for (uint8_t y = 0; y < NCOLS; y++)
 246              		.loc 1 201 3 view .LVU58
 247              	.LBB7:
 248              		.loc 1 201 8 view .LVU59
 249              	.LVL26:
 250              		.loc 1 201 16 is_stmt 0 view .LVU60
 251 0002 0025     		movs	r5, #0
 252              		.loc 1 201 3 view .LVU61
 253 0004 11E0     		b	.L19
 254              	.LVL27:
 255              	.L20:
 256              	.LBB8:
 202:Src/draw.c    ****   {
 203:Src/draw.c    ****     for (uint8_t x = 0; x < NCOLS; x++)
 204:Src/draw.c    ****     {
 205:Src/draw.c    ****       setColor(backLayer[x + (y * NCOLS)], arrColor[12]);
 257              		.loc 1 205 7 is_stmt 1 discriminator 3 view .LVU62
 258              		.loc 1 205 33 is_stmt 0 discriminator 3 view .LVU63
 259 0006 05EB4500 		add	r0, r5, r5, lsl #1
 260 000a C0EB0010 		rsb	r0, r0, r0, lsl #4
 261              		.loc 1 205 28 discriminator 3 view .LVU64
 262 000e 2044     		add	r0, r0, r4
 263              		.loc 1 205 25 discriminator 3 view .LVU65
 264 0010 00EB4000 		add	r0, r0, r0, lsl #1
 265              		.loc 1 205 7 discriminator 3 view .LVU66
 266 0014 0749     		ldr	r1, .L25
 267 0016 084B     		ldr	r3, .L25+4
 268 0018 1844     		add	r0, r0, r3
 269 001a FFF7FEFF 		bl	setColor
 270              	.LVL28:
 203:Src/draw.c    ****     {
 271              		.loc 1 203 37 discriminator 3 view .LVU67
 272 001e 0134     		adds	r4, r4, #1
 273              	.LVL29:
 203:Src/draw.c    ****     {
 274              		.loc 1 203 37 discriminator 3 view .LVU68
 275 0020 E4B2     		uxtb	r4, r4
 276              	.LVL30:
 277              	.L21:
 203:Src/draw.c    ****     {
 278              		.loc 1 203 5 discriminator 1 view .LVU69
 279 0022 2C2C     		cmp	r4, #44
ARM GAS  /var/folders/hv/f19l0kw128sbpybv1h43gz3c0000gn/T//ccSiVDMR.s 			page 10


 280 0024 EFD9     		bls	.L20
 281              	.LBE8:
 201:Src/draw.c    ****   for (uint8_t y = 0; y < NCOLS; y++)
 282              		.loc 1 201 35 discriminator 2 view .LVU70
 283 0026 0135     		adds	r5, r5, #1
 284              	.LVL31:
 201:Src/draw.c    ****   for (uint8_t y = 0; y < NCOLS; y++)
 285              		.loc 1 201 35 discriminator 2 view .LVU71
 286 0028 EDB2     		uxtb	r5, r5
 287              	.LVL32:
 288              	.L19:
 201:Src/draw.c    ****   for (uint8_t y = 0; y < NCOLS; y++)
 289              		.loc 1 201 3 discriminator 1 view .LVU72
 290 002a 2C2D     		cmp	r5, #44
 291 002c 01D8     		bhi	.L24
 292              	.LBB9:
 203:Src/draw.c    ****     {
 293              		.loc 1 203 18 view .LVU73
 294 002e 0024     		movs	r4, #0
 295 0030 F7E7     		b	.L21
 296              	.L24:
 297              	.LBE9:
 298              	.LBE7:
 206:Src/draw.c    ****     }
 207:Src/draw.c    ****   }
 208:Src/draw.c    **** }
 299              		.loc 1 208 1 view .LVU74
 300 0032 38BD     		pop	{r3, r4, r5, pc}
 301              	.LVL33:
 302              	.L26:
 303              		.loc 1 208 1 view .LVU75
 304              		.align	2
 305              	.L25:
 306 0034 24000000 		.word	.LANCHOR0+36
 307 0038 00000000 		.word	backLayer
 308              		.cfi_endproc
 309              	.LFE69:
 311              		.section	.text.clearText,"ax",%progbits
 312              		.align	1
 313              		.global	clearText
 314              		.syntax unified
 315              		.thumb
 316              		.thumb_func
 317              		.fpu softvfp
 319              	clearText:
 320              	.LFB70:
 209:Src/draw.c    **** 
 210:Src/draw.c    **** void clearText(void)
 211:Src/draw.c    **** {
 321              		.loc 1 211 1 is_stmt 1 view -0
 322              		.cfi_startproc
 323              		@ args = 0, pretend = 0, frame = 0
 324              		@ frame_needed = 0, uses_anonymous_args = 0
 325 0000 38B5     		push	{r3, r4, r5, lr}
 326              	.LCFI4:
 327              		.cfi_def_cfa_offset 16
 328              		.cfi_offset 3, -16
ARM GAS  /var/folders/hv/f19l0kw128sbpybv1h43gz3c0000gn/T//ccSiVDMR.s 			page 11


 329              		.cfi_offset 4, -12
 330              		.cfi_offset 5, -8
 331              		.cfi_offset 14, -4
 212:Src/draw.c    ****   for (uint8_t y = 0; y < NCOLS; y++)
 332              		.loc 1 212 3 view .LVU77
 333              	.LBB10:
 334              		.loc 1 212 8 view .LVU78
 335              	.LVL34:
 336              		.loc 1 212 16 is_stmt 0 view .LVU79
 337 0002 0025     		movs	r5, #0
 338              		.loc 1 212 3 view .LVU80
 339 0004 11E0     		b	.L28
 340              	.LVL35:
 341              	.L29:
 342              	.LBB11:
 213:Src/draw.c    ****   {
 214:Src/draw.c    ****     for (uint8_t x = 0; x < NCOLS; x++)
 215:Src/draw.c    ****     {
 216:Src/draw.c    ****       setColor(textLayer[x + (y * NCOLS)], arrColor[12]);
 343              		.loc 1 216 7 is_stmt 1 discriminator 3 view .LVU81
 344              		.loc 1 216 33 is_stmt 0 discriminator 3 view .LVU82
 345 0006 05EB4500 		add	r0, r5, r5, lsl #1
 346 000a C0EB0010 		rsb	r0, r0, r0, lsl #4
 347              		.loc 1 216 28 discriminator 3 view .LVU83
 348 000e 2044     		add	r0, r0, r4
 349              		.loc 1 216 25 discriminator 3 view .LVU84
 350 0010 00EB4000 		add	r0, r0, r0, lsl #1
 351              		.loc 1 216 7 discriminator 3 view .LVU85
 352 0014 0749     		ldr	r1, .L34
 353 0016 084B     		ldr	r3, .L34+4
 354 0018 1844     		add	r0, r0, r3
 355 001a FFF7FEFF 		bl	setColor
 356              	.LVL36:
 214:Src/draw.c    ****     {
 357              		.loc 1 214 37 discriminator 3 view .LVU86
 358 001e 0134     		adds	r4, r4, #1
 359              	.LVL37:
 214:Src/draw.c    ****     {
 360              		.loc 1 214 37 discriminator 3 view .LVU87
 361 0020 E4B2     		uxtb	r4, r4
 362              	.LVL38:
 363              	.L30:
 214:Src/draw.c    ****     {
 364              		.loc 1 214 5 discriminator 1 view .LVU88
 365 0022 2C2C     		cmp	r4, #44
 366 0024 EFD9     		bls	.L29
 367              	.LBE11:
 212:Src/draw.c    ****   for (uint8_t y = 0; y < NCOLS; y++)
 368              		.loc 1 212 35 discriminator 2 view .LVU89
 369 0026 0135     		adds	r5, r5, #1
 370              	.LVL39:
 212:Src/draw.c    ****   for (uint8_t y = 0; y < NCOLS; y++)
 371              		.loc 1 212 35 discriminator 2 view .LVU90
 372 0028 EDB2     		uxtb	r5, r5
 373              	.LVL40:
 374              	.L28:
 212:Src/draw.c    ****   for (uint8_t y = 0; y < NCOLS; y++)
ARM GAS  /var/folders/hv/f19l0kw128sbpybv1h43gz3c0000gn/T//ccSiVDMR.s 			page 12


 375              		.loc 1 212 3 discriminator 1 view .LVU91
 376 002a 2C2D     		cmp	r5, #44
 377 002c 01D8     		bhi	.L33
 378              	.LBB12:
 214:Src/draw.c    ****     {
 379              		.loc 1 214 18 view .LVU92
 380 002e 0024     		movs	r4, #0
 381 0030 F7E7     		b	.L30
 382              	.L33:
 383              	.LBE12:
 384              	.LBE10:
 217:Src/draw.c    ****     }
 218:Src/draw.c    ****   }
 219:Src/draw.c    **** }
 385              		.loc 1 219 1 view .LVU93
 386 0032 38BD     		pop	{r3, r4, r5, pc}
 387              	.LVL41:
 388              	.L35:
 389              		.loc 1 219 1 view .LVU94
 390              		.align	2
 391              	.L34:
 392 0034 24000000 		.word	.LANCHOR0+36
 393 0038 00000000 		.word	textLayer
 394              		.cfi_endproc
 395              	.LFE70:
 397              		.section	.text.clearFramebuffer,"ax",%progbits
 398              		.align	1
 399              		.global	clearFramebuffer
 400              		.syntax unified
 401              		.thumb
 402              		.thumb_func
 403              		.fpu softvfp
 405              	clearFramebuffer:
 406              	.LFB71:
 220:Src/draw.c    **** 
 221:Src/draw.c    **** void clearFramebuffer(void)
 222:Src/draw.c    **** {
 407              		.loc 1 222 1 is_stmt 1 view -0
 408              		.cfi_startproc
 409              		@ args = 0, pretend = 0, frame = 0
 410              		@ frame_needed = 0, uses_anonymous_args = 0
 411 0000 70B5     		push	{r4, r5, r6, lr}
 412              	.LCFI5:
 413              		.cfi_def_cfa_offset 16
 414              		.cfi_offset 4, -16
 415              		.cfi_offset 5, -12
 416              		.cfi_offset 6, -8
 417              		.cfi_offset 14, -4
 418 0002 82B0     		sub	sp, sp, #8
 419              	.LCFI6:
 420              		.cfi_def_cfa_offset 24
 223:Src/draw.c    ****   for (uint8_t i = 0; i < NCHANNELS; i++)
 421              		.loc 1 223 3 view .LVU96
 422              	.LBB13:
 423              		.loc 1 223 8 view .LVU97
 424              	.LVL42:
 425              		.loc 1 223 16 is_stmt 0 view .LVU98
ARM GAS  /var/folders/hv/f19l0kw128sbpybv1h43gz3c0000gn/T//ccSiVDMR.s 			page 13


 426 0004 0026     		movs	r6, #0
 427              		.loc 1 223 3 view .LVU99
 428 0006 27E0     		b	.L37
 429              	.LVL43:
 430              	.L38:
 431              	.LBB14:
 224:Src/draw.c    ****   {
 225:Src/draw.c    ****     for (uint8_t j = 0; j < NLINESCH; j++)
 432              		.loc 1 225 40 discriminator 2 view .LVU100
 433 0008 0135     		adds	r5, r5, #1
 434              	.LVL44:
 435              		.loc 1 225 40 discriminator 2 view .LVU101
 436 000a EDB2     		uxtb	r5, r5
 437              	.LVL45:
 438              	.L41:
 439              		.loc 1 225 5 discriminator 1 view .LVU102
 440 000c 032D     		cmp	r5, #3
 441 000e 21D8     		bhi	.L45
 442              	.LBB15:
 226:Src/draw.c    ****     {
 227:Src/draw.c    ****       for (uint16_t x = 0; x < NCOLS; x++)
 443              		.loc 1 227 21 view .LVU103
 444 0010 0024     		movs	r4, #0
 445              	.L40:
 446              	.LVL46:
 447              		.loc 1 227 7 discriminator 1 view .LVU104
 448 0012 2C2C     		cmp	r4, #44
 449 0014 F8D8     		bhi	.L38
 228:Src/draw.c    ****       {
 229:Src/draw.c    ****         if ((x + (j * NCOLS) + (i * NLEDSCH)) > NLEDSL)
 450              		.loc 1 229 9 is_stmt 1 view .LVU105
 451              		.loc 1 229 21 is_stmt 0 view .LVU106
 452 0016 05EB4503 		add	r3, r5, r5, lsl #1
 453 001a C3EB0313 		rsb	r3, r3, r3, lsl #4
 454              		.loc 1 229 16 view .LVU107
 455 001e 2344     		add	r3, r3, r4
 456              		.loc 1 229 30 view .LVU108
 457 0020 B422     		movs	r2, #180
 458 0022 02FB0633 		mla	r3, r2, r6, r3
 459              		.loc 1 229 12 view .LVU109
 460 0026 B3F5FD6F 		cmp	r3, #2024
 461 002a EDDC     		bgt	.L38
 230:Src/draw.c    ****           break;
 231:Src/draw.c    ****         WS2812_framedata_setPixel(i, x + (j * NCOLS), arrColor[12][0], arrColor[12][1], arrColor[12
 462              		.loc 1 231 9 is_stmt 1 discriminator 2 view .LVU110
 463 002c 0D4A     		ldr	r2, .L47
 464 002e 05EB4501 		add	r1, r5, r5, lsl #1
 465 0032 C1EB0111 		rsb	r1, r1, r1, lsl #4
 466 0036 2144     		add	r1, r1, r4
 467 0038 92F82630 		ldrb	r3, [r2, #38]	@ zero_extendqisi2
 468 003c 0093     		str	r3, [sp]
 469 003e 92F82530 		ldrb	r3, [r2, #37]	@ zero_extendqisi2
 470 0042 92F82420 		ldrb	r2, [r2, #36]	@ zero_extendqisi2
 471 0046 89B2     		uxth	r1, r1
 472 0048 3046     		mov	r0, r6
 473 004a FFF7FEFF 		bl	WS2812_framedata_setPixel
 474              	.LVL47:
ARM GAS  /var/folders/hv/f19l0kw128sbpybv1h43gz3c0000gn/T//ccSiVDMR.s 			page 14


 227:Src/draw.c    ****       {
 475              		.loc 1 227 40 is_stmt 0 discriminator 2 view .LVU111
 476 004e 0134     		adds	r4, r4, #1
 477              	.LVL48:
 227:Src/draw.c    ****       {
 478              		.loc 1 227 40 discriminator 2 view .LVU112
 479 0050 A4B2     		uxth	r4, r4
 480              	.LVL49:
 227:Src/draw.c    ****       {
 481              		.loc 1 227 40 discriminator 2 view .LVU113
 482 0052 DEE7     		b	.L40
 483              	.LVL50:
 484              	.L45:
 227:Src/draw.c    ****       {
 485              		.loc 1 227 40 discriminator 2 view .LVU114
 486              	.LBE15:
 487              	.LBE14:
 223:Src/draw.c    ****   {
 488              		.loc 1 223 39 discriminator 2 view .LVU115
 489 0054 0136     		adds	r6, r6, #1
 490              	.LVL51:
 223:Src/draw.c    ****   {
 491              		.loc 1 223 39 discriminator 2 view .LVU116
 492 0056 F6B2     		uxtb	r6, r6
 493              	.LVL52:
 494              	.L37:
 223:Src/draw.c    ****   {
 495              		.loc 1 223 3 discriminator 1 view .LVU117
 496 0058 0B2E     		cmp	r6, #11
 497 005a 01D8     		bhi	.L46
 498              	.LBB16:
 225:Src/draw.c    ****     {
 499              		.loc 1 225 18 view .LVU118
 500 005c 0025     		movs	r5, #0
 501 005e D5E7     		b	.L41
 502              	.L46:
 503              	.LBE16:
 504              	.LBE13:
 232:Src/draw.c    ****       }
 233:Src/draw.c    ****     }
 234:Src/draw.c    ****   }
 235:Src/draw.c    **** }
 505              		.loc 1 235 1 view .LVU119
 506 0060 02B0     		add	sp, sp, #8
 507              	.LCFI7:
 508              		.cfi_def_cfa_offset 16
 509              		@ sp needed
 510 0062 70BD     		pop	{r4, r5, r6, pc}
 511              	.LVL53:
 512              	.L48:
 513              		.loc 1 235 1 view .LVU120
 514              		.align	2
 515              	.L47:
 516 0064 00000000 		.word	.LANCHOR0
 517              		.cfi_endproc
 518              	.LFE71:
 520              		.section	.text.drawColor,"ax",%progbits
ARM GAS  /var/folders/hv/f19l0kw128sbpybv1h43gz3c0000gn/T//ccSiVDMR.s 			page 15


 521              		.align	1
 522              		.global	drawColor
 523              		.syntax unified
 524              		.thumb
 525              		.thumb_func
 526              		.fpu softvfp
 528              	drawColor:
 529              	.LVL54:
 530              	.LFB72:
 236:Src/draw.c    **** 
 237:Src/draw.c    **** /* void move(int8_t newX, int8_t newY)
 238:Src/draw.c    **** {
 239:Src/draw.c    ****   uint8_t tempVector[NLEDS][3];
 240:Src/draw.c    ****   uint8_t tempX, tempY;
 241:Src/draw.c    ****   for (int y = 0; y < NCOLS; y++)
 242:Src/draw.c    ****   {
 243:Src/draw.c    ****     for (int x = 0; x < NCOLS; x++)
 244:Src/draw.c    ****     {
 245:Src/draw.c    ****       for (int z = 0; z < 3; z++)
 246:Src/draw.c    ****       {
 247:Src/draw.c    ****         tempVector[x + (y * NCOLS)][z] = backLayer[x + (y * NCOLS)][z];
 248:Src/draw.c    ****       }
 249:Src/draw.c    ****     }
 250:Src/draw.c    ****   }
 251:Src/draw.c    **** 
 252:Src/draw.c    ****   for (int y = 0; y < NCOLS; y++)
 253:Src/draw.c    ****   {
 254:Src/draw.c    ****     if ((y - newY) < 0)
 255:Src/draw.c    ****     {
 256:Src/draw.c    ****       tempY = NCOLS - (-y + newY);
 257:Src/draw.c    ****     }
 258:Src/draw.c    ****     else if ((y - newY) >= NCOLS)
 259:Src/draw.c    ****     {
 260:Src/draw.c    ****       tempY = (y - newY) - NCOLS;
 261:Src/draw.c    ****     }
 262:Src/draw.c    ****     else
 263:Src/draw.c    ****       tempY = y - newY;
 264:Src/draw.c    **** 
 265:Src/draw.c    ****     for (int x = 0; x < NCOLS; x++)
 266:Src/draw.c    ****     {
 267:Src/draw.c    ****       if ((x - newX) < 0)
 268:Src/draw.c    ****       {
 269:Src/draw.c    ****         tempX = NCOLS - (-x + newX);
 270:Src/draw.c    ****       }
 271:Src/draw.c    ****       else if ((x - newX) >= NCOLS)
 272:Src/draw.c    ****       {
 273:Src/draw.c    ****         tempX = (x - newX) - NCOLS;
 274:Src/draw.c    ****       }
 275:Src/draw.c    ****       else
 276:Src/draw.c    ****         tempX = x - newX;
 277:Src/draw.c    **** 
 278:Src/draw.c    ****       for (int z = 0; z < 3; z++)
 279:Src/draw.c    ****       {
 280:Src/draw.c    ****         backLayer[x + (y * NCOLS)][z] = tempVector[tempX + (tempY * NCOLS)][z];
 281:Src/draw.c    ****       }
 282:Src/draw.c    ****     }
 283:Src/draw.c    ****   }
ARM GAS  /var/folders/hv/f19l0kw128sbpybv1h43gz3c0000gn/T//ccSiVDMR.s 			page 16


 284:Src/draw.c    **** }
 285:Src/draw.c    **** 
 286:Src/draw.c    **** void rotate(void)
 287:Src/draw.c    **** {
 288:Src/draw.c    ****   uint8_t tempVector[NLEDS];
 289:Src/draw.c    ****   uint8_t x, y;
 290:Src/draw.c    ****   for (y = 0; y < NCOLS; y++)
 291:Src/draw.c    ****   {
 292:Src/draw.c    ****     for (x = 0; x < NCOLS; x++)
 293:Src/draw.c    ****     {
 294:Src/draw.c    ****       tempVector[x + (y * NCOLS)] = backlayer[x + (y * NCOLS)];
 295:Src/draw.c    ****     }
 296:Src/draw.c    ****   }
 297:Src/draw.c    ****   printf("\n");
 298:Src/draw.c    **** 
 299:Src/draw.c    ****   for (y = 0; y < NCOLS; y++)
 300:Src/draw.c    ****   {
 301:Src/draw.c    ****     for (x = 0; x < NCOLS; x++)
 302:Src/draw.c    ****     {
 303:Src/draw.c    ****       textlayer[-y - 1 + (x + 1) * NCOLS] = tempVector[x + (y * NCOLS)];
 304:Src/draw.c    ****     }
 305:Src/draw.c    ****   }
 306:Src/draw.c    **** } */
 307:Src/draw.c    **** 
 308:Src/draw.c    **** void drawColor(uint8_t *color)
 309:Src/draw.c    **** {
 531              		.loc 1 309 1 is_stmt 1 view -0
 532              		.cfi_startproc
 533              		@ args = 0, pretend = 0, frame = 0
 534              		@ frame_needed = 0, uses_anonymous_args = 0
 535              		.loc 1 309 1 is_stmt 0 view .LVU122
 536 0000 70B5     		push	{r4, r5, r6, lr}
 537              	.LCFI8:
 538              		.cfi_def_cfa_offset 16
 539              		.cfi_offset 4, -16
 540              		.cfi_offset 5, -12
 541              		.cfi_offset 6, -8
 542              		.cfi_offset 14, -4
 543 0002 0646     		mov	r6, r0
 310:Src/draw.c    ****   for (int y = 0; y <= NCOLS; y++)
 544              		.loc 1 310 3 is_stmt 1 view .LVU123
 545              	.LBB17:
 546              		.loc 1 310 8 view .LVU124
 547              	.LVL55:
 548              		.loc 1 310 12 is_stmt 0 view .LVU125
 549 0004 0025     		movs	r5, #0
 550              		.loc 1 310 3 view .LVU126
 551 0006 0FE0     		b	.L50
 552              	.LVL56:
 553              	.L51:
 554              	.LBB18:
 311:Src/draw.c    ****   {
 312:Src/draw.c    ****     for (int x = 0; x <= NCOLS; x++)
 313:Src/draw.c    ****     {
 314:Src/draw.c    ****       setColor(backLayer[x + (y * NCOLS)], color);
 555              		.loc 1 314 7 is_stmt 1 discriminator 3 view .LVU127
 556              		.loc 1 314 33 is_stmt 0 discriminator 3 view .LVU128
ARM GAS  /var/folders/hv/f19l0kw128sbpybv1h43gz3c0000gn/T//ccSiVDMR.s 			page 17


 557 0008 05EB4500 		add	r0, r5, r5, lsl #1
 558 000c C0EB0010 		rsb	r0, r0, r0, lsl #4
 559              		.loc 1 314 28 discriminator 3 view .LVU129
 560 0010 2044     		add	r0, r0, r4
 561              		.loc 1 314 25 discriminator 3 view .LVU130
 562 0012 00EB4000 		add	r0, r0, r0, lsl #1
 563              		.loc 1 314 7 discriminator 3 view .LVU131
 564 0016 3146     		mov	r1, r6
 565 0018 064B     		ldr	r3, .L56
 566 001a 1844     		add	r0, r0, r3
 567 001c FFF7FEFF 		bl	setColor
 568              	.LVL57:
 312:Src/draw.c    ****     {
 569              		.loc 1 312 34 discriminator 3 view .LVU132
 570 0020 0134     		adds	r4, r4, #1
 571              	.LVL58:
 572              	.L52:
 312:Src/draw.c    ****     {
 573              		.loc 1 312 5 discriminator 1 view .LVU133
 574 0022 2D2C     		cmp	r4, #45
 575 0024 F0DD     		ble	.L51
 576              	.LBE18:
 310:Src/draw.c    ****   for (int y = 0; y <= NCOLS; y++)
 577              		.loc 1 310 32 discriminator 2 view .LVU134
 578 0026 0135     		adds	r5, r5, #1
 579              	.LVL59:
 580              	.L50:
 310:Src/draw.c    ****   for (int y = 0; y <= NCOLS; y++)
 581              		.loc 1 310 3 discriminator 1 view .LVU135
 582 0028 2D2D     		cmp	r5, #45
 583 002a 01DC     		bgt	.L55
 584              	.LBB19:
 312:Src/draw.c    ****     {
 585              		.loc 1 312 14 view .LVU136
 586 002c 0024     		movs	r4, #0
 587 002e F8E7     		b	.L52
 588              	.L55:
 589              	.LBE19:
 590              	.LBE17:
 315:Src/draw.c    ****     }
 316:Src/draw.c    ****   }
 317:Src/draw.c    **** }
 591              		.loc 1 317 1 view .LVU137
 592 0030 70BD     		pop	{r4, r5, r6, pc}
 593              	.LVL60:
 594              	.L57:
 595              		.loc 1 317 1 view .LVU138
 596 0032 00BF     		.align	2
 597              	.L56:
 598 0034 00000000 		.word	backLayer
 599              		.cfi_endproc
 600              	.LFE72:
 602              		.global	__aeabi_i2f
 603              		.global	__aeabi_fdiv
 604              		.global	__aeabi_fsub
 605              		.global	__aeabi_fmul
 606              		.global	__aeabi_fcmple
ARM GAS  /var/folders/hv/f19l0kw128sbpybv1h43gz3c0000gn/T//ccSiVDMR.s 			page 18


 607              		.global	__aeabi_fcmpge
 608              		.section	.text.drawCircleNote,"ax",%progbits
 609              		.align	1
 610              		.global	drawCircleNote
 611              		.syntax unified
 612              		.thumb
 613              		.thumb_func
 614              		.fpu softvfp
 616              	drawCircleNote:
 617              	.LVL61:
 618              	.LFB73:
 318:Src/draw.c    **** 
 319:Src/draw.c    **** /* void drawCircle(uint8_t *color_steps)
 320:Src/draw.c    **** {
 321:Src/draw.c    ****   float z = ((float)NCOLS / 2);
 322:Src/draw.c    ****   uint16_t coords = 0;
 323:Src/draw.c    ****   uint8_t boarder;
 324:Src/draw.c    ****   int16_t temp;
 325:Src/draw.c    ****   for (int y = -(NCOLS / 2); y <= (NCOLS / 2); y++)
 326:Src/draw.c    ****   {
 327:Src/draw.c    ****     for (int x = -(NCOLS / 2); x <= (NCOLS / 2); x++)
 328:Src/draw.c    ****     {
 329:Src/draw.c    ****       coords = (x + (NCOLS / 2)) + ((y + (NCOLS / 2)) * NCOLS);
 330:Src/draw.c    ****       for (int i = 0; i < MAX_DIV; i++)
 331:Src/draw.c    ****       {
 332:Src/draw.c    ****         boarder = 1;
 333:Src/draw.c    ****         float perc = 1 - ((float)i / MAX_DIV);
 334:Src/draw.c    ****         // printf("%0.1f\n", perc);
 335:Src/draw.c    ****         if ((x * x) + (y * y) <= (z * z) * (perc))
 336:Src/draw.c    ****         {
 337:Src/draw.c    ****           for (int z = 0; z < 3; z++)
 338:Src/draw.c    ****           {
 339:Src/draw.c    ****             temp = currColor[z] + i * color_steps[z];
 340:Src/draw.c    ****             if (temp < 0)
 341:Src/draw.c    ****               temp = 0;
 342:Src/draw.c    ****             if (temp > 255)
 343:Src/draw.c    ****               temp = 255;
 344:Src/draw.c    ****             backLayer[coords][z] = temp;
 345:Src/draw.c    ****           }
 346:Src/draw.c    ****           boarder = 0;
 347:Src/draw.c    ****         }
 348:Src/draw.c    ****       }
 349:Src/draw.c    ****       if (boarder)
 350:Src/draw.c    ****       {
 351:Src/draw.c    ****         if ((x * x) + (y * y) >= (z * z))
 352:Src/draw.c    ****         {
 353:Src/draw.c    ****           for (int z = 0; z < 3; z++)
 354:Src/draw.c    ****           {
 355:Src/draw.c    ****             temp = currColor[z] - color_steps[z];
 356:Src/draw.c    ****             if (temp < 0)
 357:Src/draw.c    ****               temp = 0;
 358:Src/draw.c    ****             if (temp > 255)
 359:Src/draw.c    ****               temp = 255;
 360:Src/draw.c    ****             backLayer[coords][z] = temp;
 361:Src/draw.c    ****           }
 362:Src/draw.c    ****         }
 363:Src/draw.c    ****       }
ARM GAS  /var/folders/hv/f19l0kw128sbpybv1h43gz3c0000gn/T//ccSiVDMR.s 			page 19


 364:Src/draw.c    ****     }
 365:Src/draw.c    ****   }
 366:Src/draw.c    **** } */
 367:Src/draw.c    **** 
 368:Src/draw.c    **** void drawCircleNote(uint8_t orientation)
 369:Src/draw.c    **** {
 619              		.loc 1 369 1 is_stmt 1 view -0
 620              		.cfi_startproc
 621              		@ args = 0, pretend = 0, frame = 0
 622              		@ frame_needed = 0, uses_anonymous_args = 0
 623              		.loc 1 369 1 is_stmt 0 view .LVU140
 624 0000 2DE9F84F 		push	{r3, r4, r5, r6, r7, r8, r9, r10, fp, lr}
 625              	.LCFI9:
 626              		.cfi_def_cfa_offset 40
 627              		.cfi_offset 3, -40
 628              		.cfi_offset 4, -36
 629              		.cfi_offset 5, -32
 630              		.cfi_offset 6, -28
 631              		.cfi_offset 7, -24
 632              		.cfi_offset 8, -20
 633              		.cfi_offset 9, -16
 634              		.cfi_offset 10, -12
 635              		.cfi_offset 11, -8
 636              		.cfi_offset 14, -4
 637 0004 0746     		mov	r7, r0
 638 0006 0024     		movs	r4, #0
 370:Src/draw.c    ****   float z = ((float)NCOLS / 2);
 639              		.loc 1 370 3 is_stmt 1 view .LVU141
 640              	.LVL62:
 371:Src/draw.c    ****   uint16_t coords = 0;
 641              		.loc 1 371 3 view .LVU142
 372:Src/draw.c    ****   uint8_t boarder;
 642              		.loc 1 372 3 view .LVU143
 373:Src/draw.c    ****   uint8_t invI;
 643              		.loc 1 373 3 view .LVU144
 374:Src/draw.c    ****   for (int y = -(NCOLS / 2); y <= (NCOLS / 2); y++)
 644              		.loc 1 374 3 view .LVU145
 645              	.LBB20:
 646              		.loc 1 374 8 view .LVU146
 647              		.loc 1 374 12 is_stmt 0 view .LVU147
 648 0008 6FF01506 		mvn	r6, #21
 649              		.loc 1 374 3 view .LVU148
 650 000c 68E0     		b	.L59
 651              	.LVL63:
 652              	.L61:
 653              	.LBB21:
 654              	.LBB22:
 655              	.LBB23:
 375:Src/draw.c    ****   {
 376:Src/draw.c    ****     for (int x = -(NCOLS / 2); x <= (NCOLS / 2); x++)
 377:Src/draw.c    ****     {
 378:Src/draw.c    ****       coords = (x + (NCOLS / 2)) + ((y + (NCOLS / 2)) * NCOLS);
 379:Src/draw.c    ****       for (int i = 0; i < MAX_DIV; i++)
 380:Src/draw.c    ****       {
 381:Src/draw.c    ****         invI = orientation ? MAX_DIV - 1 - i : i + 1;
 656              		.loc 1 381 50 discriminator 2 view .LVU149
 657 000e 5FFA88F4 		uxtb	r4, r8
ARM GAS  /var/folders/hv/f19l0kw128sbpybv1h43gz3c0000gn/T//ccSiVDMR.s 			page 20


 658              	.LVL64:
 659              		.loc 1 381 14 discriminator 2 view .LVU150
 660 0012 0134     		adds	r4, r4, #1
 661 0014 E4B2     		uxtb	r4, r4
 662              	.L62:
 663              	.LVL65:
 382:Src/draw.c    ****         boarder = 1;
 664              		.loc 1 382 9 is_stmt 1 discriminator 4 view .LVU151
 383:Src/draw.c    ****         float perc = 1 - ((float)i / MAX_DIV);
 665              		.loc 1 383 9 discriminator 4 view .LVU152
 666              		.loc 1 383 27 is_stmt 0 discriminator 4 view .LVU153
 667 0016 4046     		mov	r0, r8
 668 0018 FFF7FEFF 		bl	__aeabi_i2f
 669              	.LVL66:
 670              		.loc 1 383 36 discriminator 4 view .LVU154
 671 001c 3449     		ldr	r1, .L82
 672 001e FFF7FEFF 		bl	__aeabi_fdiv
 673              	.LVL67:
 674              		.loc 1 383 15 discriminator 4 view .LVU155
 675 0022 0146     		mov	r1, r0
 676 0024 4FF07E50 		mov	r0, #1065353216
 677 0028 FFF7FEFF 		bl	__aeabi_fsub
 678              	.LVL68:
 679 002c 8346     		mov	fp, r0
 680              	.LVL69:
 384:Src/draw.c    ****         // printf("%0.1f\n", perc);
 385:Src/draw.c    ****         if ((x * x) + (y * y) <= (z * z) * (perc))
 681              		.loc 1 385 9 is_stmt 1 discriminator 4 view .LVU156
 682              		.loc 1 385 26 is_stmt 0 discriminator 4 view .LVU157
 683 002e 06FB06F0 		mul	r0, r6, r6
 684              	.LVL70:
 685              		.loc 1 385 31 discriminator 4 view .LVU158
 686 0032 05FB0500 		mla	r0, r5, r5, r0
 687 0036 FFF7FEFF 		bl	__aeabi_i2f
 688              	.LVL71:
 689 003a 8246     		mov	r10, r0
 690              		.loc 1 385 42 discriminator 4 view .LVU159
 691 003c 2D49     		ldr	r1, .L82+4
 692 003e 5846     		mov	r0, fp
 693 0040 FFF7FEFF 		bl	__aeabi_fmul
 694              	.LVL72:
 695              		.loc 1 385 12 discriminator 4 view .LVU160
 696 0044 0146     		mov	r1, r0
 697 0046 5046     		mov	r0, r10
 698 0048 FFF7FEFF 		bl	__aeabi_fcmple
 699              	.LVL73:
 700 004c 68B9     		cbnz	r0, .L78
 382:Src/draw.c    ****         float perc = 1 - ((float)i / MAX_DIV);
 701              		.loc 1 382 17 view .LVU161
 702 004e 0124     		movs	r4, #1
 703              	.LVL74:
 704              	.L63:
 382:Src/draw.c    ****         float perc = 1 - ((float)i / MAX_DIV);
 705              		.loc 1 382 17 view .LVU162
 706              	.LBE23:
 379:Src/draw.c    ****       {
 707              		.loc 1 379 37 discriminator 2 view .LVU163
ARM GAS  /var/folders/hv/f19l0kw128sbpybv1h43gz3c0000gn/T//ccSiVDMR.s 			page 21


 708 0050 08F10108 		add	r8, r8, #1
 709              	.LVL75:
 710              	.L60:
 379:Src/draw.c    ****       {
 711              		.loc 1 379 7 discriminator 1 view .LVU164
 712 0054 B8F1040F 		cmp	r8, #4
 713 0058 15DC     		bgt	.L79
 714              	.LBB24:
 381:Src/draw.c    ****         boarder = 1;
 715              		.loc 1 381 9 is_stmt 1 view .LVU165
 381:Src/draw.c    ****         boarder = 1;
 716              		.loc 1 381 14 is_stmt 0 view .LVU166
 717 005a 002F     		cmp	r7, #0
 718 005c D7D0     		beq	.L61
 381:Src/draw.c    ****         boarder = 1;
 719              		.loc 1 381 42 discriminator 1 view .LVU167
 720 005e 5FFA88F4 		uxtb	r4, r8
 721              	.LVL76:
 381:Src/draw.c    ****         boarder = 1;
 722              		.loc 1 381 14 discriminator 1 view .LVU168
 723 0062 C4F10404 		rsb	r4, r4, #4
 724 0066 E4B2     		uxtb	r4, r4
 725 0068 D5E7     		b	.L62
 726              	.LVL77:
 727              	.L78:
 386:Src/draw.c    ****         {
 387:Src/draw.c    ****           setColor(backLayer[coords], noteBuffer[invI].color);
 728              		.loc 1 387 11 is_stmt 1 view .LVU169
 729              		.loc 1 387 29 is_stmt 0 view .LVU170
 730 006a 09EB4900 		add	r0, r9, r9, lsl #1
 731              		.loc 1 387 55 view .LVU171
 732 006e 04EB4404 		add	r4, r4, r4, lsl #1
 733              	.LVL78:
 734              		.loc 1 387 55 view .LVU172
 735 0072 6100     		lsls	r1, r4, #1
 736 0074 204B     		ldr	r3, .L82+8
 737 0076 1944     		add	r1, r1, r3
 738              		.loc 1 387 11 view .LVU173
 739 0078 0331     		adds	r1, r1, #3
 740 007a 204B     		ldr	r3, .L82+12
 741 007c 1844     		add	r0, r0, r3
 742 007e FFF7FEFF 		bl	setColor
 743              	.LVL79:
 388:Src/draw.c    ****           boarder = 0;
 744              		.loc 1 388 11 is_stmt 1 view .LVU174
 745              		.loc 1 388 19 is_stmt 0 view .LVU175
 746 0082 0024     		movs	r4, #0
 747 0084 E4E7     		b	.L63
 748              	.LVL80:
 749              	.L79:
 750              		.loc 1 388 19 view .LVU176
 751              	.LBE24:
 752              	.LBE22:
 389:Src/draw.c    ****         }
 390:Src/draw.c    ****       }
 391:Src/draw.c    ****       if (boarder)
 753              		.loc 1 391 7 is_stmt 1 view .LVU177
ARM GAS  /var/folders/hv/f19l0kw128sbpybv1h43gz3c0000gn/T//ccSiVDMR.s 			page 22


 754              		.loc 1 391 10 is_stmt 0 view .LVU178
 755 0086 BCB1     		cbz	r4, .L66
 392:Src/draw.c    ****       {
 393:Src/draw.c    ****         if ((x * x) + (y * y) >= (z * z))
 756              		.loc 1 393 9 is_stmt 1 view .LVU179
 757              		.loc 1 393 26 is_stmt 0 view .LVU180
 758 0088 06FB06F0 		mul	r0, r6, r6
 759              		.loc 1 393 31 view .LVU181
 760 008c 05FB0500 		mla	r0, r5, r5, r0
 761 0090 FFF7FEFF 		bl	__aeabi_i2f
 762              	.LVL81:
 763              		.loc 1 393 12 view .LVU182
 764 0094 1749     		ldr	r1, .L82+4
 765 0096 FFF7FEFF 		bl	__aeabi_fcmpge
 766              	.LVL82:
 767 009a 68B1     		cbz	r0, .L66
 394:Src/draw.c    ****         {
 395:Src/draw.c    ****           invI = orientation ? MAX_DIV : 0;
 768              		.loc 1 395 11 is_stmt 1 view .LVU183
 769              		.loc 1 395 16 is_stmt 0 view .LVU184
 770 009c EFB1     		cbz	r7, .L72
 771 009e 0523     		movs	r3, #5
 772              	.L68:
 773              	.LVL83:
 396:Src/draw.c    ****           setColor(backLayer[coords], noteBuffer[invI].color);
 774              		.loc 1 396 11 is_stmt 1 discriminator 4 view .LVU185
 775              		.loc 1 396 29 is_stmt 0 discriminator 4 view .LVU186
 776 00a0 09EB4909 		add	r9, r9, r9, lsl #1
 777              	.LVL84:
 778              		.loc 1 396 55 discriminator 4 view .LVU187
 779 00a4 03EB4303 		add	r3, r3, r3, lsl #1
 780              	.LVL85:
 781              		.loc 1 396 55 discriminator 4 view .LVU188
 782 00a8 5900     		lsls	r1, r3, #1
 783 00aa 134B     		ldr	r3, .L82+8
 784 00ac 1944     		add	r1, r1, r3
 785              		.loc 1 396 11 discriminator 4 view .LVU189
 786 00ae 0331     		adds	r1, r1, #3
 787 00b0 1248     		ldr	r0, .L82+12
 788 00b2 4844     		add	r0, r0, r9
 789 00b4 FFF7FEFF 		bl	setColor
 790              	.LVL86:
 791              	.L66:
 376:Src/draw.c    ****     {
 792              		.loc 1 376 51 discriminator 2 view .LVU190
 793 00b8 0135     		adds	r5, r5, #1
 794              	.LVL87:
 795              	.L70:
 376:Src/draw.c    ****     {
 796              		.loc 1 376 5 discriminator 1 view .LVU191
 797 00ba 162D     		cmp	r5, #22
 798 00bc 0FDC     		bgt	.L80
 378:Src/draw.c    ****       for (int i = 0; i < MAX_DIV; i++)
 799              		.loc 1 378 7 is_stmt 1 view .LVU192
 378:Src/draw.c    ****       for (int i = 0; i < MAX_DIV; i++)
 800              		.loc 1 378 40 is_stmt 0 view .LVU193
 801 00be 06F11603 		add	r3, r6, #22
ARM GAS  /var/folders/hv/f19l0kw128sbpybv1h43gz3c0000gn/T//ccSiVDMR.s 			page 23


 378:Src/draw.c    ****       for (int i = 0; i < MAX_DIV; i++)
 802              		.loc 1 378 34 view .LVU194
 803 00c2 03EB4303 		add	r3, r3, r3, lsl #1
 804 00c6 C3EB0310 		rsb	r0, r3, r3, lsl #4
 805 00ca 2844     		add	r0, r0, r5
 806 00cc 80B2     		uxth	r0, r0
 378:Src/draw.c    ****       for (int i = 0; i < MAX_DIV; i++)
 807              		.loc 1 378 14 view .LVU195
 808 00ce 1630     		adds	r0, r0, #22
 809 00d0 1FFA80F9 		uxth	r9, r0
 810              	.LVL88:
 379:Src/draw.c    ****       {
 811              		.loc 1 379 7 is_stmt 1 view .LVU196
 812              	.LBB25:
 379:Src/draw.c    ****       {
 813              		.loc 1 379 12 view .LVU197
 379:Src/draw.c    ****       {
 814              		.loc 1 379 16 is_stmt 0 view .LVU198
 815 00d4 4FF00008 		mov	r8, #0
 379:Src/draw.c    ****       {
 816              		.loc 1 379 7 view .LVU199
 817 00d8 BCE7     		b	.L60
 818              	.LVL89:
 819              	.L72:
 379:Src/draw.c    ****       {
 820              		.loc 1 379 7 view .LVU200
 821              	.LBE25:
 395:Src/draw.c    ****           setColor(backLayer[coords], noteBuffer[invI].color);
 822              		.loc 1 395 16 view .LVU201
 823 00da 3B46     		mov	r3, r7
 824 00dc E0E7     		b	.L68
 825              	.LVL90:
 826              	.L80:
 395:Src/draw.c    ****           setColor(backLayer[coords], noteBuffer[invI].color);
 827              		.loc 1 395 16 view .LVU202
 828              	.LBE21:
 374:Src/draw.c    ****   {
 829              		.loc 1 374 49 discriminator 2 view .LVU203
 830 00de 0136     		adds	r6, r6, #1
 831              	.LVL91:
 832              	.L59:
 374:Src/draw.c    ****   {
 833              		.loc 1 374 3 discriminator 1 view .LVU204
 834 00e0 162E     		cmp	r6, #22
 835 00e2 02DC     		bgt	.L81
 836              	.LBB26:
 376:Src/draw.c    ****     {
 837              		.loc 1 376 14 view .LVU205
 838 00e4 6FF01505 		mvn	r5, #21
 839 00e8 E7E7     		b	.L70
 840              	.L81:
 841              	.LBE26:
 842              	.LBE20:
 397:Src/draw.c    ****         }
 398:Src/draw.c    ****       }
 399:Src/draw.c    ****     }
 400:Src/draw.c    ****   }
ARM GAS  /var/folders/hv/f19l0kw128sbpybv1h43gz3c0000gn/T//ccSiVDMR.s 			page 24


 401:Src/draw.c    **** }
 843              		.loc 1 401 1 view .LVU206
 844 00ea BDE8F88F 		pop	{r3, r4, r5, r6, r7, r8, r9, r10, fp, pc}
 845              	.LVL92:
 846              	.L83:
 847              		.loc 1 401 1 view .LVU207
 848 00ee 00BF     		.align	2
 849              	.L82:
 850 00f0 0000A040 		.word	1084227584
 851 00f4 0020FD43 		.word	1140662272
 852 00f8 00000000 		.word	noteBuffer
 853 00fc 00000000 		.word	backLayer
 854              		.cfi_endproc
 855              	.LFE73:
 857              		.section	.text.drawCircleNoteGrad,"ax",%progbits
 858              		.align	1
 859              		.global	drawCircleNoteGrad
 860              		.syntax unified
 861              		.thumb
 862              		.thumb_func
 863              		.fpu softvfp
 865              	drawCircleNoteGrad:
 866              	.LVL93:
 867              	.LFB74:
 402:Src/draw.c    **** 
 403:Src/draw.c    **** void drawCircleNoteGrad(uint8_t orientation)
 404:Src/draw.c    **** {
 868              		.loc 1 404 1 is_stmt 1 view -0
 869              		.cfi_startproc
 870              		@ args = 0, pretend = 0, frame = 8
 871              		@ frame_needed = 0, uses_anonymous_args = 0
 872              		.loc 1 404 1 is_stmt 0 view .LVU209
 873 0000 2DE9F047 		push	{r4, r5, r6, r7, r8, r9, r10, lr}
 874              	.LCFI10:
 875              		.cfi_def_cfa_offset 32
 876              		.cfi_offset 4, -32
 877              		.cfi_offset 5, -28
 878              		.cfi_offset 6, -24
 879              		.cfi_offset 7, -20
 880              		.cfi_offset 8, -16
 881              		.cfi_offset 9, -12
 882              		.cfi_offset 10, -8
 883              		.cfi_offset 14, -4
 884 0004 82B0     		sub	sp, sp, #8
 885              	.LCFI11:
 886              		.cfi_def_cfa_offset 40
 405:Src/draw.c    ****   float z = ((float)NCOLS / 2);
 887              		.loc 1 405 3 is_stmt 1 view .LVU210
 888              	.LVL94:
 406:Src/draw.c    ****   uint16_t coords = 0;
 889              		.loc 1 406 3 view .LVU211
 407:Src/draw.c    ****   uint8_t boarder, invI, invO;
 890              		.loc 1 407 3 view .LVU212
 408:Src/draw.c    ****   int8_t diff[3];
 891              		.loc 1 408 3 view .LVU213
 409:Src/draw.c    ****   invO = orientation ? 0 : 1;
 892              		.loc 1 409 3 view .LVU214
ARM GAS  /var/folders/hv/f19l0kw128sbpybv1h43gz3c0000gn/T//ccSiVDMR.s 			page 25


 893              		.loc 1 409 26 is_stmt 0 view .LVU215
 894 0006 8146     		mov	r9, r0
 895 0008 B0FA80F0 		clz	r0, r0
 896              	.LVL95:
 897              		.loc 1 409 26 view .LVU216
 898 000c 4009     		lsrs	r0, r0, #5
 899              	.LVL96:
 410:Src/draw.c    ****   for (uint8_t j = 0; j < 3; j++)
 900              		.loc 1 410 3 is_stmt 1 view .LVU217
 901              	.LBB27:
 902              		.loc 1 410 8 view .LVU218
 903              		.loc 1 410 16 is_stmt 0 view .LVU219
 904 000e 0023     		movs	r3, #0
 905              	.LVL97:
 906              	.L85:
 907              		.loc 1 410 3 discriminator 1 view .LVU220
 908 0010 022B     		cmp	r3, #2
 909 0012 1AD8     		bhi	.L101
 411:Src/draw.c    ****   {
 412:Src/draw.c    ****     diff[j] = (noteBuffer[orientation].color[j] - noteBuffer[invO].color[j]) / MAX_DIV;
 910              		.loc 1 412 5 is_stmt 1 discriminator 3 view .LVU221
 911              		.loc 1 412 45 is_stmt 0 discriminator 3 view .LVU222
 912 0014 4349     		ldr	r1, .L107
 913 0016 09EB4904 		add	r4, r9, r9, lsl #1
 914 001a 6200     		lsls	r2, r4, #1
 915 001c 0A44     		add	r2, r2, r1
 916 001e 1A44     		add	r2, r2, r3
 917 0020 D278     		ldrb	r2, [r2, #3]	@ zero_extendqisi2
 918              		.loc 1 412 73 discriminator 3 view .LVU223
 919 0022 4400     		lsls	r4, r0, #1
 920 0024 0444     		add	r4, r4, r0
 921 0026 6500     		lsls	r5, r4, #1
 922 0028 2944     		add	r1, r1, r5
 923 002a 1944     		add	r1, r1, r3
 924 002c C978     		ldrb	r1, [r1, #3]	@ zero_extendqisi2
 925              		.loc 1 412 49 discriminator 3 view .LVU224
 926 002e 521A     		subs	r2, r2, r1
 927              		.loc 1 412 78 discriminator 3 view .LVU225
 928 0030 3D49     		ldr	r1, .L107+4
 929 0032 81FB0241 		smull	r4, r1, r1, r2
 930 0036 D217     		asrs	r2, r2, #31
 931 0038 C2EB6102 		rsb	r2, r2, r1, asr #1
 932              		.loc 1 412 13 discriminator 3 view .LVU226
 933 003c 02A9     		add	r1, sp, #8
 934 003e 1944     		add	r1, r1, r3
 935 0040 01F8042C 		strb	r2, [r1, #-4]
 410:Src/draw.c    ****   for (uint8_t j = 0; j < 3; j++)
 936              		.loc 1 410 31 discriminator 3 view .LVU227
 937 0044 0133     		adds	r3, r3, #1
 938              	.LVL98:
 410:Src/draw.c    ****   for (uint8_t j = 0; j < 3; j++)
 939              		.loc 1 410 31 discriminator 3 view .LVU228
 940 0046 DBB2     		uxtb	r3, r3
 941              	.LVL99:
 410:Src/draw.c    ****   for (uint8_t j = 0; j < 3; j++)
 942              		.loc 1 410 31 discriminator 3 view .LVU229
 943 0048 E2E7     		b	.L85
ARM GAS  /var/folders/hv/f19l0kw128sbpybv1h43gz3c0000gn/T//ccSiVDMR.s 			page 26


 944              	.L101:
 410:Src/draw.c    ****   for (uint8_t j = 0; j < 3; j++)
 945              		.loc 1 410 31 discriminator 3 view .LVU230
 946              	.LBE27:
 947              	.LBB28:
 413:Src/draw.c    ****   }
 414:Src/draw.c    **** 
 415:Src/draw.c    ****   for (int y = -(NCOLS / 2); y <= (NCOLS / 2); y++)
 948              		.loc 1 415 12 view .LVU231
 949 004a 6FF01508 		mvn	r8, #21
 950 004e 60E0     		b	.L87
 951              	.LVL100:
 952              	.L91:
 953              	.LBB29:
 954              	.LBB30:
 955              	.LBB31:
 956              	.LBB32:
 416:Src/draw.c    ****   {
 417:Src/draw.c    ****     for (int x = -(NCOLS / 2); x <= (NCOLS / 2); x++)
 418:Src/draw.c    ****     {
 419:Src/draw.c    ****       coords = (x + (NCOLS / 2)) + ((y + (NCOLS / 2)) * NCOLS);
 420:Src/draw.c    ****       for (int i = 0; i < MAX_DIV; i++)
 421:Src/draw.c    ****       {
 422:Src/draw.c    ****         boarder = 1;
 423:Src/draw.c    ****         float perc = 1 - ((float)i / MAX_DIV);
 424:Src/draw.c    ****         // printf("%0.1f\n", perc);
 425:Src/draw.c    ****         if ((x * x) + (y * y) <= (z * z) * (perc))
 426:Src/draw.c    ****         {
 427:Src/draw.c    ****           for (uint8_t j = 0; j < 3; j++)
 428:Src/draw.c    ****           {
 429:Src/draw.c    ****             backLayer[coords][j] = noteBuffer[orientation].color[j] - ((i + 1) * diff[j]);
 957              		.loc 1 429 13 is_stmt 1 discriminator 3 view .LVU232
 958              		.loc 1 429 65 is_stmt 0 discriminator 3 view .LVU233
 959 0050 09EB4902 		add	r2, r9, r9, lsl #1
 960              	.LVL101:
 961              		.loc 1 429 65 discriminator 3 view .LVU234
 962 0054 5100     		lsls	r1, r2, #1
 963 0056 334A     		ldr	r2, .L107
 964 0058 0A44     		add	r2, r2, r1
 965 005a 1A44     		add	r2, r2, r3
 966 005c D178     		ldrb	r1, [r2, #3]	@ zero_extendqisi2
 967              		.loc 1 429 86 discriminator 3 view .LVU235
 968 005e 02AA     		add	r2, sp, #8
 969 0060 1A44     		add	r2, r2, r3
 970 0062 12F9042C 		ldrsb	r2, [r2, #-4]
 971              		.loc 1 429 69 discriminator 3 view .LVU236
 972 0066 04FB0222 		mla	r2, r4, r2, r2
 973 006a 8A1A     		subs	r2, r1, r2
 974              		.loc 1 429 34 discriminator 3 view .LVU237
 975 006c 05EB4500 		add	r0, r5, r5, lsl #1
 976 0070 2E49     		ldr	r1, .L107+8
 977 0072 0144     		add	r1, r1, r0
 978 0074 CA54     		strb	r2, [r1, r3]
 430:Src/draw.c    ****             boarder = 0;
 979              		.loc 1 430 13 is_stmt 1 discriminator 3 view .LVU238
 980              	.LVL102:
 427:Src/draw.c    ****           {
ARM GAS  /var/folders/hv/f19l0kw128sbpybv1h43gz3c0000gn/T//ccSiVDMR.s 			page 27


 981              		.loc 1 427 39 is_stmt 0 discriminator 3 view .LVU239
 982 0076 0133     		adds	r3, r3, #1
 983              	.LVL103:
 427:Src/draw.c    ****           {
 984              		.loc 1 427 39 discriminator 3 view .LVU240
 985 0078 DBB2     		uxtb	r3, r3
 986              	.LVL104:
 987              		.loc 1 430 21 discriminator 3 view .LVU241
 988 007a 0022     		movs	r2, #0
 989              	.LVL105:
 990              	.L89:
 427:Src/draw.c    ****           {
 991              		.loc 1 427 11 discriminator 1 view .LVU242
 992 007c 022B     		cmp	r3, #2
 993 007e E7D9     		bls	.L91
 427:Src/draw.c    ****           {
 994              		.loc 1 427 11 discriminator 1 view .LVU243
 995              	.LBE32:
 431:Src/draw.c    ****           }
 432:Src/draw.c    ****         }
 433:Src/draw.c    ****         if (boarder)
 996              		.loc 1 433 9 is_stmt 1 view .LVU244
 997              		.loc 1 433 12 is_stmt 0 view .LVU245
 998 0080 7AB1     		cbz	r2, .L92
 999 0082 2EE0     		b	.L90
 1000              	.LVL106:
 1001              	.L103:
 1002              	.LBB33:
 427:Src/draw.c    ****           {
 1003              		.loc 1 427 24 view .LVU246
 1004 0084 0023     		movs	r3, #0
 1005              	.LBE33:
 422:Src/draw.c    ****         float perc = 1 - ((float)i / MAX_DIV);
 1006              		.loc 1 422 17 view .LVU247
 1007 0086 0122     		movs	r2, #1
 1008 0088 F8E7     		b	.L89
 1009              	.LVL107:
 1010              	.L104:
 434:Src/draw.c    ****         {
 435:Src/draw.c    ****           if ((x * x) + (y * y) >= (z * z))
 436:Src/draw.c    ****           {
 437:Src/draw.c    ****             setColor(backLayer[coords], noteBuffer[orientation].color);
 1011              		.loc 1 437 13 is_stmt 1 view .LVU248
 1012              		.loc 1 437 31 is_stmt 0 view .LVU249
 1013 008a 05EB4500 		add	r0, r5, r5, lsl #1
 1014              		.loc 1 437 64 view .LVU250
 1015 008e 09EB4903 		add	r3, r9, r9, lsl #1
 1016 0092 5900     		lsls	r1, r3, #1
 1017 0094 234B     		ldr	r3, .L107
 1018 0096 1944     		add	r1, r1, r3
 1019              		.loc 1 437 13 view .LVU251
 1020 0098 0331     		adds	r1, r1, #3
 1021 009a 244B     		ldr	r3, .L107+8
 1022 009c 1844     		add	r0, r0, r3
 1023 009e FFF7FEFF 		bl	setColor
 1024              	.LVL108:
 1025              	.L92:
ARM GAS  /var/folders/hv/f19l0kw128sbpybv1h43gz3c0000gn/T//ccSiVDMR.s 			page 28


 1026              		.loc 1 437 13 view .LVU252
 1027              	.LBE31:
 420:Src/draw.c    ****       {
 1028              		.loc 1 420 37 discriminator 2 view .LVU253
 1029 00a2 0134     		adds	r4, r4, #1
 1030              	.LVL109:
 1031              	.L88:
 420:Src/draw.c    ****       {
 1032              		.loc 1 420 7 discriminator 1 view .LVU254
 1033 00a4 042C     		cmp	r4, #4
 1034 00a6 23DC     		bgt	.L102
 1035              	.LBB34:
 422:Src/draw.c    ****         float perc = 1 - ((float)i / MAX_DIV);
 1036              		.loc 1 422 9 is_stmt 1 view .LVU255
 1037              	.LVL110:
 423:Src/draw.c    ****         // printf("%0.1f\n", perc);
 1038              		.loc 1 423 9 view .LVU256
 423:Src/draw.c    ****         // printf("%0.1f\n", perc);
 1039              		.loc 1 423 27 is_stmt 0 view .LVU257
 1040 00a8 2046     		mov	r0, r4
 1041 00aa FFF7FEFF 		bl	__aeabi_i2f
 1042              	.LVL111:
 423:Src/draw.c    ****         // printf("%0.1f\n", perc);
 1043              		.loc 1 423 36 view .LVU258
 1044 00ae 2049     		ldr	r1, .L107+12
 1045 00b0 FFF7FEFF 		bl	__aeabi_fdiv
 1046              	.LVL112:
 423:Src/draw.c    ****         // printf("%0.1f\n", perc);
 1047              		.loc 1 423 15 view .LVU259
 1048 00b4 0146     		mov	r1, r0
 1049 00b6 4FF07E50 		mov	r0, #1065353216
 1050 00ba FFF7FEFF 		bl	__aeabi_fsub
 1051              	.LVL113:
 1052 00be 8246     		mov	r10, r0
 1053              	.LVL114:
 425:Src/draw.c    ****         {
 1054              		.loc 1 425 9 is_stmt 1 view .LVU260
 425:Src/draw.c    ****         {
 1055              		.loc 1 425 26 is_stmt 0 view .LVU261
 1056 00c0 08FB08F0 		mul	r0, r8, r8
 1057              	.LVL115:
 425:Src/draw.c    ****         {
 1058              		.loc 1 425 31 view .LVU262
 1059 00c4 07FB0700 		mla	r0, r7, r7, r0
 1060 00c8 FFF7FEFF 		bl	__aeabi_i2f
 1061              	.LVL116:
 1062 00cc 0646     		mov	r6, r0
 425:Src/draw.c    ****         {
 1063              		.loc 1 425 42 view .LVU263
 1064 00ce 1949     		ldr	r1, .L107+16
 1065 00d0 5046     		mov	r0, r10
 1066 00d2 FFF7FEFF 		bl	__aeabi_fmul
 1067              	.LVL117:
 425:Src/draw.c    ****         {
 1068              		.loc 1 425 12 view .LVU264
 1069 00d6 0146     		mov	r1, r0
 1070 00d8 3046     		mov	r0, r6
ARM GAS  /var/folders/hv/f19l0kw128sbpybv1h43gz3c0000gn/T//ccSiVDMR.s 			page 29


 1071 00da FFF7FEFF 		bl	__aeabi_fcmple
 1072              	.LVL118:
 1073 00de 0028     		cmp	r0, #0
 1074 00e0 D0D1     		bne	.L103
 1075              	.LVL119:
 1076              	.L90:
 435:Src/draw.c    ****           {
 1077              		.loc 1 435 11 is_stmt 1 view .LVU265
 435:Src/draw.c    ****           {
 1078              		.loc 1 435 14 is_stmt 0 view .LVU266
 1079 00e2 1449     		ldr	r1, .L107+16
 1080 00e4 3046     		mov	r0, r6
 1081 00e6 FFF7FEFF 		bl	__aeabi_fcmpge
 1082              	.LVL120:
 1083 00ea 0028     		cmp	r0, #0
 1084 00ec D9D0     		beq	.L92
 1085 00ee CCE7     		b	.L104
 1086              	.LVL121:
 1087              	.L102:
 435:Src/draw.c    ****           {
 1088              		.loc 1 435 14 view .LVU267
 1089              	.LBE34:
 1090              	.LBE30:
 417:Src/draw.c    ****     {
 1091              		.loc 1 417 51 discriminator 2 view .LVU268
 1092 00f0 0137     		adds	r7, r7, #1
 1093              	.LVL122:
 1094              	.L96:
 417:Src/draw.c    ****     {
 1095              		.loc 1 417 5 discriminator 1 view .LVU269
 1096 00f2 162F     		cmp	r7, #22
 1097 00f4 0BDC     		bgt	.L105
 419:Src/draw.c    ****       for (int i = 0; i < MAX_DIV; i++)
 1098              		.loc 1 419 7 is_stmt 1 view .LVU270
 419:Src/draw.c    ****       for (int i = 0; i < MAX_DIV; i++)
 1099              		.loc 1 419 40 is_stmt 0 view .LVU271
 1100 00f6 08F11603 		add	r3, r8, #22
 419:Src/draw.c    ****       for (int i = 0; i < MAX_DIV; i++)
 1101              		.loc 1 419 34 view .LVU272
 1102 00fa 03EB4303 		add	r3, r3, r3, lsl #1
 1103 00fe C3EB0315 		rsb	r5, r3, r3, lsl #4
 1104 0102 3D44     		add	r5, r5, r7
 1105 0104 ADB2     		uxth	r5, r5
 419:Src/draw.c    ****       for (int i = 0; i < MAX_DIV; i++)
 1106              		.loc 1 419 14 view .LVU273
 1107 0106 1635     		adds	r5, r5, #22
 1108 0108 ADB2     		uxth	r5, r5
 1109              	.LVL123:
 420:Src/draw.c    ****       {
 1110              		.loc 1 420 7 is_stmt 1 view .LVU274
 1111              	.LBB35:
 420:Src/draw.c    ****       {
 1112              		.loc 1 420 12 view .LVU275
 420:Src/draw.c    ****       {
 1113              		.loc 1 420 16 is_stmt 0 view .LVU276
 1114 010a 0024     		movs	r4, #0
 420:Src/draw.c    ****       {
ARM GAS  /var/folders/hv/f19l0kw128sbpybv1h43gz3c0000gn/T//ccSiVDMR.s 			page 30


 1115              		.loc 1 420 7 view .LVU277
 1116 010c CAE7     		b	.L88
 1117              	.LVL124:
 1118              	.L105:
 420:Src/draw.c    ****       {
 1119              		.loc 1 420 7 view .LVU278
 1120              	.LBE35:
 1121              	.LBE29:
 415:Src/draw.c    ****   {
 1122              		.loc 1 415 49 discriminator 2 view .LVU279
 1123 010e 08F10108 		add	r8, r8, #1
 1124              	.LVL125:
 1125              	.L87:
 415:Src/draw.c    ****   {
 1126              		.loc 1 415 3 discriminator 1 view .LVU280
 1127 0112 B8F1160F 		cmp	r8, #22
 1128 0116 02DC     		bgt	.L106
 1129              	.LBB36:
 417:Src/draw.c    ****     {
 1130              		.loc 1 417 14 view .LVU281
 1131 0118 6FF01507 		mvn	r7, #21
 1132 011c E9E7     		b	.L96
 1133              	.L106:
 1134              	.LBE36:
 1135              	.LBE28:
 438:Src/draw.c    ****           }
 439:Src/draw.c    ****         }
 440:Src/draw.c    ****       }
 441:Src/draw.c    ****     }
 442:Src/draw.c    ****   }
 443:Src/draw.c    **** }
 1136              		.loc 1 443 1 view .LVU282
 1137 011e 02B0     		add	sp, sp, #8
 1138              	.LCFI12:
 1139              		.cfi_def_cfa_offset 32
 1140              		@ sp needed
 1141 0120 BDE8F087 		pop	{r4, r5, r6, r7, r8, r9, r10, pc}
 1142              	.LVL126:
 1143              	.L108:
 1144              		.loc 1 443 1 view .LVU283
 1145              		.align	2
 1146              	.L107:
 1147 0124 00000000 		.word	noteBuffer
 1148 0128 67666666 		.word	1717986919
 1149 012c 00000000 		.word	backLayer
 1150 0130 0000A040 		.word	1084227584
 1151 0134 0020FD43 		.word	1140662272
 1152              		.cfi_endproc
 1153              	.LFE74:
 1155              		.section	.text.drawLine,"ax",%progbits
 1156              		.align	1
 1157              		.global	drawLine
 1158              		.syntax unified
 1159              		.thumb
 1160              		.thumb_func
 1161              		.fpu softvfp
 1163              	drawLine:
ARM GAS  /var/folders/hv/f19l0kw128sbpybv1h43gz3c0000gn/T//ccSiVDMR.s 			page 31


 1164              	.LVL127:
 1165              	.LFB75:
 444:Src/draw.c    **** 
 445:Src/draw.c    **** void drawLine(uint8_t px, uint8_t py, uint8_t *color)
 446:Src/draw.c    **** {
 1166              		.loc 1 446 1 is_stmt 1 view -0
 1167              		.cfi_startproc
 1168              		@ args = 0, pretend = 0, frame = 0
 1169              		@ frame_needed = 0, uses_anonymous_args = 0
 1170              		.loc 1 446 1 is_stmt 0 view .LVU285
 1171 0000 2DE9F041 		push	{r4, r5, r6, r7, r8, lr}
 1172              	.LCFI13:
 1173              		.cfi_def_cfa_offset 24
 1174              		.cfi_offset 4, -24
 1175              		.cfi_offset 5, -20
 1176              		.cfi_offset 6, -16
 1177              		.cfi_offset 7, -12
 1178              		.cfi_offset 8, -8
 1179              		.cfi_offset 14, -4
 1180 0004 0646     		mov	r6, r0
 1181 0006 0F46     		mov	r7, r1
 1182 0008 9046     		mov	r8, r2
 447:Src/draw.c    ****   for (int y = 0; y <= NCOLS; y++)
 1183              		.loc 1 447 3 is_stmt 1 view .LVU286
 1184              	.LBB37:
 1185              		.loc 1 447 8 view .LVU287
 1186              	.LVL128:
 1187              		.loc 1 447 12 is_stmt 0 view .LVU288
 1188 000a 0025     		movs	r5, #0
 1189              		.loc 1 447 3 view .LVU289
 1190 000c 14E0     		b	.L110
 1191              	.LVL129:
 1192              	.L111:
 1193              	.LBB38:
 448:Src/draw.c    ****   {
 449:Src/draw.c    ****     for (int x = 0; x <= NCOLS; x++)
 450:Src/draw.c    ****     {
 451:Src/draw.c    ****       if (x == px || y == py)
 452:Src/draw.c    ****       {
 453:Src/draw.c    ****         setColor(backLayer[x + (y * NCOLS)], color);
 1194              		.loc 1 453 9 is_stmt 1 view .LVU290
 1195              		.loc 1 453 35 is_stmt 0 view .LVU291
 1196 000e 05EB4500 		add	r0, r5, r5, lsl #1
 1197 0012 C0EB0010 		rsb	r0, r0, r0, lsl #4
 1198              		.loc 1 453 30 view .LVU292
 1199 0016 2044     		add	r0, r0, r4
 1200              		.loc 1 453 27 view .LVU293
 1201 0018 00EB4000 		add	r0, r0, r0, lsl #1
 1202              		.loc 1 453 9 view .LVU294
 1203 001c 4146     		mov	r1, r8
 1204 001e 094B     		ldr	r3, .L119
 1205 0020 1844     		add	r0, r0, r3
 1206 0022 FFF7FEFF 		bl	setColor
 1207              	.LVL130:
 1208              	.L112:
 449:Src/draw.c    ****     {
 1209              		.loc 1 449 34 discriminator 2 view .LVU295
ARM GAS  /var/folders/hv/f19l0kw128sbpybv1h43gz3c0000gn/T//ccSiVDMR.s 			page 32


 1210 0026 0134     		adds	r4, r4, #1
 1211              	.LVL131:
 1212              	.L114:
 449:Src/draw.c    ****     {
 1213              		.loc 1 449 5 discriminator 1 view .LVU296
 1214 0028 2D2C     		cmp	r4, #45
 1215 002a 04DC     		bgt	.L117
 451:Src/draw.c    ****       {
 1216              		.loc 1 451 7 is_stmt 1 view .LVU297
 451:Src/draw.c    ****       {
 1217              		.loc 1 451 10 is_stmt 0 view .LVU298
 1218 002c A642     		cmp	r6, r4
 1219 002e EED0     		beq	.L111
 451:Src/draw.c    ****       {
 1220              		.loc 1 451 19 discriminator 1 view .LVU299
 1221 0030 AF42     		cmp	r7, r5
 1222 0032 F8D1     		bne	.L112
 451:Src/draw.c    ****       {
 1223              		.loc 1 451 19 discriminator 1 view .LVU300
 1224 0034 EBE7     		b	.L111
 1225              	.L117:
 451:Src/draw.c    ****       {
 1226              		.loc 1 451 19 discriminator 1 view .LVU301
 1227              	.LBE38:
 447:Src/draw.c    ****   {
 1228              		.loc 1 447 32 discriminator 2 view .LVU302
 1229 0036 0135     		adds	r5, r5, #1
 1230              	.LVL132:
 1231              	.L110:
 447:Src/draw.c    ****   {
 1232              		.loc 1 447 3 discriminator 1 view .LVU303
 1233 0038 2D2D     		cmp	r5, #45
 1234 003a 01DC     		bgt	.L118
 1235              	.LBB39:
 449:Src/draw.c    ****     {
 1236              		.loc 1 449 14 view .LVU304
 1237 003c 0024     		movs	r4, #0
 1238 003e F3E7     		b	.L114
 1239              	.L118:
 1240              	.LBE39:
 1241              	.LBE37:
 454:Src/draw.c    ****       }
 455:Src/draw.c    ****     }
 456:Src/draw.c    ****   }
 457:Src/draw.c    **** }
 1242              		.loc 1 457 1 view .LVU305
 1243 0040 BDE8F081 		pop	{r4, r5, r6, r7, r8, pc}
 1244              	.LVL133:
 1245              	.L120:
 1246              		.loc 1 457 1 view .LVU306
 1247              		.align	2
 1248              	.L119:
 1249 0044 00000000 		.word	backLayer
 1250              		.cfi_endproc
 1251              	.LFE75:
 1253              		.section	.text.drawPixel,"ax",%progbits
 1254              		.align	1
ARM GAS  /var/folders/hv/f19l0kw128sbpybv1h43gz3c0000gn/T//ccSiVDMR.s 			page 33


 1255              		.global	drawPixel
 1256              		.syntax unified
 1257              		.thumb
 1258              		.thumb_func
 1259              		.fpu softvfp
 1261              	drawPixel:
 1262              	.LVL134:
 1263              	.LFB76:
 458:Src/draw.c    **** 
 459:Src/draw.c    **** void drawPixel(uint8_t px, uint8_t py, uint8_t *color)
 460:Src/draw.c    **** {
 1264              		.loc 1 460 1 is_stmt 1 view -0
 1265              		.cfi_startproc
 1266              		@ args = 0, pretend = 0, frame = 0
 1267              		@ frame_needed = 0, uses_anonymous_args = 0
 1268              		.loc 1 460 1 is_stmt 0 view .LVU308
 1269 0000 2DE9F041 		push	{r4, r5, r6, r7, r8, lr}
 1270              	.LCFI14:
 1271              		.cfi_def_cfa_offset 24
 1272              		.cfi_offset 4, -24
 1273              		.cfi_offset 5, -20
 1274              		.cfi_offset 6, -16
 1275              		.cfi_offset 7, -12
 1276              		.cfi_offset 8, -8
 1277              		.cfi_offset 14, -4
 1278 0004 0546     		mov	r5, r0
 1279 0006 0F46     		mov	r7, r1
 1280 0008 9046     		mov	r8, r2
 461:Src/draw.c    ****   for (int y = 0; y <= NCOLS; y++)
 1281              		.loc 1 461 3 is_stmt 1 view .LVU309
 1282              	.LBB40:
 1283              		.loc 1 461 8 view .LVU310
 1284              	.LVL135:
 1285              		.loc 1 461 12 is_stmt 0 view .LVU311
 1286 000a 0026     		movs	r6, #0
 1287              		.loc 1 461 3 view .LVU312
 1288 000c 14E0     		b	.L122
 1289              	.LVL136:
 1290              	.L123:
 1291              	.LBB41:
 462:Src/draw.c    ****   {
 463:Src/draw.c    ****     for (int x = 0; x <= NCOLS; x++)
 1292              		.loc 1 463 34 discriminator 2 view .LVU313
 1293 000e 0134     		adds	r4, r4, #1
 1294              	.LVL137:
 1295              	.L125:
 1296              		.loc 1 463 5 discriminator 1 view .LVU314
 1297 0010 2D2C     		cmp	r4, #45
 1298 0012 10DC     		bgt	.L128
 464:Src/draw.c    ****     {
 465:Src/draw.c    ****       if (x == px && y == py)
 1299              		.loc 1 465 7 is_stmt 1 view .LVU315
 1300              		.loc 1 465 10 is_stmt 0 view .LVU316
 1301 0014 A542     		cmp	r5, r4
 1302 0016 FAD1     		bne	.L123
 1303              		.loc 1 465 19 discriminator 1 view .LVU317
 1304 0018 B742     		cmp	r7, r6
ARM GAS  /var/folders/hv/f19l0kw128sbpybv1h43gz3c0000gn/T//ccSiVDMR.s 			page 34


 1305 001a F8D1     		bne	.L123
 466:Src/draw.c    ****       {
 467:Src/draw.c    ****         setColor(backLayer[x + (y * NCOLS)], color);
 1306              		.loc 1 467 9 is_stmt 1 view .LVU318
 1307              		.loc 1 467 35 is_stmt 0 view .LVU319
 1308 001c 06EB4600 		add	r0, r6, r6, lsl #1
 1309 0020 C0EB0010 		rsb	r0, r0, r0, lsl #4
 1310              		.loc 1 467 30 view .LVU320
 1311 0024 2044     		add	r0, r0, r4
 1312              		.loc 1 467 27 view .LVU321
 1313 0026 00EB4000 		add	r0, r0, r0, lsl #1
 1314              		.loc 1 467 9 view .LVU322
 1315 002a 4146     		mov	r1, r8
 1316 002c 054B     		ldr	r3, .L130
 1317 002e 1844     		add	r0, r0, r3
 1318 0030 FFF7FEFF 		bl	setColor
 1319              	.LVL138:
 1320 0034 EBE7     		b	.L123
 1321              	.L128:
 1322              		.loc 1 467 9 view .LVU323
 1323              	.LBE41:
 461:Src/draw.c    ****   {
 1324              		.loc 1 461 32 discriminator 2 view .LVU324
 1325 0036 0136     		adds	r6, r6, #1
 1326              	.LVL139:
 1327              	.L122:
 461:Src/draw.c    ****   {
 1328              		.loc 1 461 3 discriminator 1 view .LVU325
 1329 0038 2D2E     		cmp	r6, #45
 1330 003a 01DC     		bgt	.L129
 1331              	.LBB42:
 463:Src/draw.c    ****     {
 1332              		.loc 1 463 14 view .LVU326
 1333 003c 0024     		movs	r4, #0
 1334 003e E7E7     		b	.L125
 1335              	.L129:
 1336              	.LBE42:
 1337              	.LBE40:
 468:Src/draw.c    ****       }
 469:Src/draw.c    ****     }
 470:Src/draw.c    ****   }
 471:Src/draw.c    **** }
 1338              		.loc 1 471 1 view .LVU327
 1339 0040 BDE8F081 		pop	{r4, r5, r6, r7, r8, pc}
 1340              	.LVL140:
 1341              	.L131:
 1342              		.loc 1 471 1 view .LVU328
 1343              		.align	2
 1344              	.L130:
 1345 0044 00000000 		.word	backLayer
 1346              		.cfi_endproc
 1347              	.LFE76:
 1349              		.section	.text.getFontLine,"ax",%progbits
 1350              		.align	1
 1351              		.global	getFontLine
 1352              		.syntax unified
 1353              		.thumb
ARM GAS  /var/folders/hv/f19l0kw128sbpybv1h43gz3c0000gn/T//ccSiVDMR.s 			page 35


 1354              		.thumb_func
 1355              		.fpu softvfp
 1357              	getFontLine:
 1358              	.LVL141:
 1359              	.LFB78:
 472:Src/draw.c    **** 
 473:Src/draw.c    **** void drawNote(void)
 474:Src/draw.c    **** {
 475:Src/draw.c    ****   uint8_t blue[3] = {1, 1, 5};
 476:Src/draw.c    ****   uint8_t red[3] = {5, 1, 1};
 477:Src/draw.c    ****   uint8_t green[3] = {1, 5, 1};
 478:Src/draw.c    ****   // drawStringArray(1, 1, 1, 1);
 479:Src/draw.c    ****   //E5 C6 E6
 480:Src/draw.c    **** 
 481:Src/draw.c    ****   if (noteBuffer[0].note.symbol == 'C')
 482:Src/draw.c    ****     if (noteBuffer[1].note.symbol == 'E')
 483:Src/draw.c    ****       drawColor(blue);
 484:Src/draw.c    **** 
 485:Src/draw.c    ****   // drawString(noteBuffer[0], 1, 1, 1, 0);
 486:Src/draw.c    ****   // //B4 F5 D6
 487:Src/draw.c    **** 
 488:Src/draw.c    ****   if (noteBuffer[0].note.symbol == 'F')
 489:Src/draw.c    ****     if (noteBuffer[1].note.symbol == 'B')
 490:Src/draw.c    ****       drawColor(red);
 491:Src/draw.c    **** 
 492:Src/draw.c    ****   // //A4 E5 C6
 493:Src/draw.c    **** 
 494:Src/draw.c    ****   if (noteBuffer[0].note.symbol == 'E')
 495:Src/draw.c    ****     if (noteBuffer[1].note.symbol == 'A')
 496:Src/draw.c    ****       drawColor(green);
 497:Src/draw.c    **** 
 498:Src/draw.c    ****   setTextColor(noteBuffer[0].color);
 499:Src/draw.c    ****   drawLetter(note.symbol, 1, 1);
 500:Src/draw.c    **** }
 501:Src/draw.c    **** 
 502:Src/draw.c    **** /* Draw Strings */
 503:Src/draw.c    **** 
 504:Src/draw.c    **** unsigned char getFontLine(unsigned char data, int line_num)
 505:Src/draw.c    **** {
 1360              		.loc 1 505 1 is_stmt 1 view -0
 1361              		.cfi_startproc
 1362              		@ args = 0, pretend = 0, frame = 0
 1363              		@ frame_needed = 0, uses_anonymous_args = 0
 1364              		@ link register save eliminated.
 506:Src/draw.c    ****   const uint8_t index = (data - 32);
 1365              		.loc 1 506 3 view .LVU330
 1366              		.loc 1 506 17 is_stmt 0 view .LVU331
 1367 0000 2038     		subs	r0, r0, #32
 1368              	.LVL142:
 1369              		.loc 1 506 17 view .LVU332
 1370 0002 C0B2     		uxtb	r0, r0
 507:Src/draw.c    ****   unsigned char pixel = 0;
 1371              		.loc 1 507 3 is_stmt 1 view .LVU333
 1372              	.LVL143:
 508:Src/draw.c    ****   if ((font4x6[index][1] & 1) == 1)
 1373              		.loc 1 508 3 view .LVU334
 1374              		.loc 1 508 22 is_stmt 0 view .LVU335
ARM GAS  /var/folders/hv/f19l0kw128sbpybv1h43gz3c0000gn/T//ccSiVDMR.s 			page 36


 1375 0004 164B     		ldr	r3, .L145
 1376 0006 03EB4003 		add	r3, r3, r0, lsl #1
 1377 000a 5B78     		ldrb	r3, [r3, #1]	@ zero_extendqisi2
 1378              		.loc 1 508 6 view .LVU336
 1379 000c 13F0010F 		tst	r3, #1
 1380 0010 00D0     		beq	.L133
 509:Src/draw.c    ****     line_num -= 1;
 1381              		.loc 1 509 5 is_stmt 1 view .LVU337
 1382              		.loc 1 509 14 is_stmt 0 view .LVU338
 1383 0012 0139     		subs	r1, r1, #1
 1384              	.LVL144:
 1385              	.L133:
 510:Src/draw.c    ****   if (line_num == 0)
 1386              		.loc 1 510 3 is_stmt 1 view .LVU339
 1387              		.loc 1 510 6 is_stmt 0 view .LVU340
 1388 0014 31B9     		cbnz	r1, .L134
 511:Src/draw.c    ****   {
 512:Src/draw.c    ****     pixel = (font4x6[index][0]) >> 4;
 1389              		.loc 1 512 5 is_stmt 1 view .LVU341
 1390              		.loc 1 512 28 is_stmt 0 view .LVU342
 1391 0016 124B     		ldr	r3, .L145
 1392 0018 13F81000 		ldrb	r0, [r3, r0, lsl #1]	@ zero_extendqisi2
 1393              		.loc 1 512 11 view .LVU343
 1394 001c 0009     		lsrs	r0, r0, #4
 1395              	.LVL145:
 1396              	.L135:
 513:Src/draw.c    ****   }
 514:Src/draw.c    ****   else if (line_num == 1)
 515:Src/draw.c    ****   {
 516:Src/draw.c    ****     pixel = (font4x6[index][0]) >> 1;
 517:Src/draw.c    ****   }
 518:Src/draw.c    ****   else if (line_num == 2)
 519:Src/draw.c    ****   {
 520:Src/draw.c    ****     // Split over 2 bytes
 521:Src/draw.c    ****     return (((font4x6[index][0]) & 0x03) << 2) | (((font4x6[index][1]) & 0x02));
 522:Src/draw.c    ****   }
 523:Src/draw.c    ****   else if (line_num == 3)
 524:Src/draw.c    ****   {
 525:Src/draw.c    ****     pixel = (font4x6[index][1]) >> 4;
 526:Src/draw.c    ****   }
 527:Src/draw.c    ****   else if (line_num == 4)
 528:Src/draw.c    ****   {
 529:Src/draw.c    ****     pixel = (font4x6[index][1]) >> 1;
 530:Src/draw.c    ****   }
 531:Src/draw.c    ****   return pixel & 0xE;
 1397              		.loc 1 531 3 is_stmt 1 view .LVU344
 1398              		.loc 1 531 16 is_stmt 0 view .LVU345
 1399 001e 00F00E00 		and	r0, r0, #14
 1400              	.LVL146:
 532:Src/draw.c    **** }
 1401              		.loc 1 532 1 view .LVU346
 1402 0022 7047     		bx	lr
 1403              	.LVL147:
 1404              	.L134:
 514:Src/draw.c    ****   {
 1405              		.loc 1 514 8 is_stmt 1 view .LVU347
 514:Src/draw.c    ****   {
ARM GAS  /var/folders/hv/f19l0kw128sbpybv1h43gz3c0000gn/T//ccSiVDMR.s 			page 37


 1406              		.loc 1 514 11 is_stmt 0 view .LVU348
 1407 0024 0129     		cmp	r1, #1
 1408 0026 07D0     		beq	.L141
 518:Src/draw.c    ****   {
 1409              		.loc 1 518 8 is_stmt 1 view .LVU349
 518:Src/draw.c    ****   {
 1410              		.loc 1 518 11 is_stmt 0 view .LVU350
 1411 0028 0229     		cmp	r1, #2
 1412 002a 0AD0     		beq	.L142
 523:Src/draw.c    ****   {
 1413              		.loc 1 523 8 is_stmt 1 view .LVU351
 523:Src/draw.c    ****   {
 1414              		.loc 1 523 11 is_stmt 0 view .LVU352
 1415 002c 0329     		cmp	r1, #3
 1416 002e 12D0     		beq	.L143
 527:Src/draw.c    ****   {
 1417              		.loc 1 527 8 is_stmt 1 view .LVU353
 527:Src/draw.c    ****   {
 1418              		.loc 1 527 11 is_stmt 0 view .LVU354
 1419 0030 0429     		cmp	r1, #4
 1420 0032 12D0     		beq	.L144
 507:Src/draw.c    ****   if ((font4x6[index][1] & 1) == 1)
 1421              		.loc 1 507 17 view .LVU355
 1422 0034 0020     		movs	r0, #0
 1423 0036 F2E7     		b	.L135
 1424              	.L141:
 516:Src/draw.c    ****   }
 1425              		.loc 1 516 5 is_stmt 1 view .LVU356
 516:Src/draw.c    ****   }
 1426              		.loc 1 516 28 is_stmt 0 view .LVU357
 1427 0038 094B     		ldr	r3, .L145
 1428 003a 13F81000 		ldrb	r0, [r3, r0, lsl #1]	@ zero_extendqisi2
 516:Src/draw.c    ****   }
 1429              		.loc 1 516 11 view .LVU358
 1430 003e 4008     		lsrs	r0, r0, #1
 1431              	.LVL148:
 516:Src/draw.c    ****   }
 1432              		.loc 1 516 11 view .LVU359
 1433 0040 EDE7     		b	.L135
 1434              	.LVL149:
 1435              	.L142:
 521:Src/draw.c    ****   }
 1436              		.loc 1 521 5 is_stmt 1 view .LVU360
 521:Src/draw.c    ****   }
 1437              		.loc 1 521 29 is_stmt 0 view .LVU361
 1438 0042 074A     		ldr	r2, .L145
 1439 0044 12F81000 		ldrb	r0, [r2, r0, lsl #1]	@ zero_extendqisi2
 521:Src/draw.c    ****   }
 1440              		.loc 1 521 42 view .LVU362
 1441 0048 8000     		lsls	r0, r0, #2
 1442 004a 00F00C00 		and	r0, r0, #12
 521:Src/draw.c    ****   }
 1443              		.loc 1 521 72 view .LVU363
 1444 004e 03F00203 		and	r3, r3, #2
 521:Src/draw.c    ****   }
 1445              		.loc 1 521 48 view .LVU364
 1446 0052 1843     		orrs	r0, r0, r3
ARM GAS  /var/folders/hv/f19l0kw128sbpybv1h43gz3c0000gn/T//ccSiVDMR.s 			page 38


 1447 0054 7047     		bx	lr
 1448              	.L143:
 525:Src/draw.c    ****   }
 1449              		.loc 1 525 5 is_stmt 1 view .LVU365
 525:Src/draw.c    ****   }
 1450              		.loc 1 525 11 is_stmt 0 view .LVU366
 1451 0056 1809     		lsrs	r0, r3, #4
 1452              	.LVL150:
 525:Src/draw.c    ****   }
 1453              		.loc 1 525 11 view .LVU367
 1454 0058 E1E7     		b	.L135
 1455              	.LVL151:
 1456              	.L144:
 529:Src/draw.c    ****   }
 1457              		.loc 1 529 5 is_stmt 1 view .LVU368
 529:Src/draw.c    ****   }
 1458              		.loc 1 529 11 is_stmt 0 view .LVU369
 1459 005a 5808     		lsrs	r0, r3, #1
 1460              	.LVL152:
 529:Src/draw.c    ****   }
 1461              		.loc 1 529 11 view .LVU370
 1462 005c DFE7     		b	.L135
 1463              	.L146:
 1464 005e 00BF     		.align	2
 1465              	.L145:
 1466 0060 00000000 		.word	.LANCHOR1
 1467              		.cfi_endproc
 1468              	.LFE78:
 1470              		.section	.text.drawLetter,"ax",%progbits
 1471              		.align	1
 1472              		.global	drawLetter
 1473              		.syntax unified
 1474              		.thumb
 1475              		.thumb_func
 1476              		.fpu softvfp
 1478              	drawLetter:
 1479              	.LVL153:
 1480              	.LFB79:
 533:Src/draw.c    **** 
 534:Src/draw.c    **** void drawLetter(char letter, uint8_t px, uint8_t py)
 535:Src/draw.c    **** {
 1481              		.loc 1 535 1 is_stmt 1 view -0
 1482              		.cfi_startproc
 1483              		@ args = 0, pretend = 0, frame = 8
 1484              		@ frame_needed = 0, uses_anonymous_args = 0
 1485              		.loc 1 535 1 is_stmt 0 view .LVU372
 1486 0000 2DE9F04F 		push	{r4, r5, r6, r7, r8, r9, r10, fp, lr}
 1487              	.LCFI15:
 1488              		.cfi_def_cfa_offset 36
 1489              		.cfi_offset 4, -36
 1490              		.cfi_offset 5, -32
 1491              		.cfi_offset 6, -28
 1492              		.cfi_offset 7, -24
 1493              		.cfi_offset 8, -20
 1494              		.cfi_offset 9, -16
 1495              		.cfi_offset 10, -12
 1496              		.cfi_offset 11, -8
ARM GAS  /var/folders/hv/f19l0kw128sbpybv1h43gz3c0000gn/T//ccSiVDMR.s 			page 39


 1497              		.cfi_offset 14, -4
 1498 0004 83B0     		sub	sp, sp, #12
 1499              	.LCFI16:
 1500              		.cfi_def_cfa_offset 48
 1501 0006 0190     		str	r0, [sp, #4]
 1502 0008 0E46     		mov	r6, r1
 1503 000a 9346     		mov	fp, r2
 536:Src/draw.c    ****   uint8_t fill;
 1504              		.loc 1 536 3 is_stmt 1 view .LVU373
 537:Src/draw.c    ****   for (uint8_t y = py, l = 0; y <= (py + 5); y++, l++)
 1505              		.loc 1 537 3 view .LVU374
 1506              	.LBB43:
 1507              		.loc 1 537 8 view .LVU375
 1508              	.LVL154:
 1509              		.loc 1 537 16 is_stmt 0 view .LVU376
 1510 000c 9046     		mov	r8, r2
 1511              		.loc 1 537 24 view .LVU377
 1512 000e 4FF0000A 		mov	r10, #0
 1513              		.loc 1 537 3 view .LVU378
 1514 0012 21E0     		b	.L148
 1515              	.LVL155:
 1516              	.L156:
 1517              	.LBB44:
 538:Src/draw.c    ****   {
 539:Src/draw.c    ****     if (y > NCOLSL)
 540:Src/draw.c    ****       break;
 541:Src/draw.c    ****     fill = getFontLine(letter, l);
 542:Src/draw.c    ****     for (uint8_t x = px, aX = 3; x <= (px + 3); x++, aX--)
 543:Src/draw.c    ****     {
 544:Src/draw.c    ****       if (fill & (1u << aX))
 545:Src/draw.c    ****       {
 546:Src/draw.c    ****         setColor(textLayer[x + (y * NCOLS)], textColor);
 1518              		.loc 1 546 9 is_stmt 1 view .LVU379
 1519              		.loc 1 546 35 is_stmt 0 view .LVU380
 1520 0014 09EB4900 		add	r0, r9, r9, lsl #1
 1521 0018 C0EB0010 		rsb	r0, r0, r0, lsl #4
 1522              		.loc 1 546 30 view .LVU381
 1523 001c 1044     		add	r0, r0, r2
 1524              		.loc 1 546 27 view .LVU382
 1525 001e 00EB4000 		add	r0, r0, r0, lsl #1
 1526              		.loc 1 546 9 view .LVU383
 1527 0022 1749     		ldr	r1, .L157
 1528 0024 174B     		ldr	r3, .L157+4
 1529 0026 1844     		add	r0, r0, r3
 1530 0028 FFF7FEFF 		bl	setColor
 1531              	.LVL156:
 1532              	.L151:
 542:Src/draw.c    ****     {
 1533              		.loc 1 542 50 discriminator 2 view .LVU384
 1534 002c 0134     		adds	r4, r4, #1
 1535              	.LVL157:
 542:Src/draw.c    ****     {
 1536              		.loc 1 542 50 discriminator 2 view .LVU385
 1537 002e E4B2     		uxtb	r4, r4
 1538              	.LVL158:
 542:Src/draw.c    ****     {
 1539              		.loc 1 542 56 discriminator 2 view .LVU386
ARM GAS  /var/folders/hv/f19l0kw128sbpybv1h43gz3c0000gn/T//ccSiVDMR.s 			page 40


 1540 0030 013D     		subs	r5, r5, #1
 1541              	.LVL159:
 542:Src/draw.c    ****     {
 1542              		.loc 1 542 56 discriminator 2 view .LVU387
 1543 0032 EDB2     		uxtb	r5, r5
 1544              	.LVL160:
 1545              	.L150:
 542:Src/draw.c    ****     {
 1546              		.loc 1 542 36 discriminator 1 view .LVU388
 1547 0034 2246     		mov	r2, r4
 542:Src/draw.c    ****     {
 1548              		.loc 1 542 43 discriminator 1 view .LVU389
 1549 0036 F31C     		adds	r3, r6, #3
 542:Src/draw.c    ****     {
 1550              		.loc 1 542 5 discriminator 1 view .LVU390
 1551 0038 9C42     		cmp	r4, r3
 1552 003a 05DC     		bgt	.L155
 544:Src/draw.c    ****       {
 1553              		.loc 1 544 7 is_stmt 1 view .LVU391
 544:Src/draw.c    ****       {
 1554              		.loc 1 544 11 is_stmt 0 view .LVU392
 1555 003c 27FA05F3 		lsr	r3, r7, r5
 544:Src/draw.c    ****       {
 1556              		.loc 1 544 10 view .LVU393
 1557 0040 13F0010F 		tst	r3, #1
 1558 0044 F2D0     		beq	.L151
 1559 0046 E5E7     		b	.L156
 1560              	.L155:
 1561              	.LBE44:
 537:Src/draw.c    ****   {
 1562              		.loc 1 537 47 discriminator 2 view .LVU394
 1563 0048 08F10108 		add	r8, r8, #1
 1564              	.LVL161:
 537:Src/draw.c    ****   {
 1565              		.loc 1 537 47 discriminator 2 view .LVU395
 1566 004c 5FFA88F8 		uxtb	r8, r8
 1567              	.LVL162:
 537:Src/draw.c    ****   {
 1568              		.loc 1 537 52 discriminator 2 view .LVU396
 1569 0050 0AF1010A 		add	r10, r10, #1
 1570              	.LVL163:
 537:Src/draw.c    ****   {
 1571              		.loc 1 537 52 discriminator 2 view .LVU397
 1572 0054 5FFA8AFA 		uxtb	r10, r10
 1573              	.LVL164:
 1574              	.L148:
 537:Src/draw.c    ****   {
 1575              		.loc 1 537 33 discriminator 1 view .LVU398
 1576 0058 C146     		mov	r9, r8
 537:Src/draw.c    ****   {
 1577              		.loc 1 537 40 discriminator 1 view .LVU399
 1578 005a 0BF10503 		add	r3, fp, #5
 537:Src/draw.c    ****   {
 1579              		.loc 1 537 3 discriminator 1 view .LVU400
 1580 005e 9845     		cmp	r8, r3
 1581 0060 0ADC     		bgt	.L147
 539:Src/draw.c    ****       break;
ARM GAS  /var/folders/hv/f19l0kw128sbpybv1h43gz3c0000gn/T//ccSiVDMR.s 			page 41


 1582              		.loc 1 539 5 is_stmt 1 view .LVU401
 539:Src/draw.c    ****       break;
 1583              		.loc 1 539 8 is_stmt 0 view .LVU402
 1584 0062 B8F12C0F 		cmp	r8, #44
 1585 0066 07D8     		bhi	.L147
 541:Src/draw.c    ****     for (uint8_t x = px, aX = 3; x <= (px + 3); x++, aX--)
 1586              		.loc 1 541 5 is_stmt 1 view .LVU403
 541:Src/draw.c    ****     for (uint8_t x = px, aX = 3; x <= (px + 3); x++, aX--)
 1587              		.loc 1 541 12 is_stmt 0 view .LVU404
 1588 0068 5146     		mov	r1, r10
 1589 006a 0198     		ldr	r0, [sp, #4]
 1590 006c FFF7FEFF 		bl	getFontLine
 1591              	.LVL165:
 1592 0070 0746     		mov	r7, r0
 1593              	.LVL166:
 542:Src/draw.c    ****     {
 1594              		.loc 1 542 5 is_stmt 1 view .LVU405
 1595              	.LBB45:
 542:Src/draw.c    ****     {
 1596              		.loc 1 542 10 view .LVU406
 542:Src/draw.c    ****     {
 1597              		.loc 1 542 18 is_stmt 0 view .LVU407
 1598 0072 3446     		mov	r4, r6
 542:Src/draw.c    ****     {
 1599              		.loc 1 542 26 view .LVU408
 1600 0074 0325     		movs	r5, #3
 542:Src/draw.c    ****     {
 1601              		.loc 1 542 5 view .LVU409
 1602 0076 DDE7     		b	.L150
 1603              	.LVL167:
 1604              	.L147:
 542:Src/draw.c    ****     {
 1605              		.loc 1 542 5 view .LVU410
 1606              	.LBE45:
 1607              	.LBE43:
 547:Src/draw.c    ****       }
 548:Src/draw.c    ****     }
 549:Src/draw.c    ****   }
 550:Src/draw.c    **** }
 1608              		.loc 1 550 1 view .LVU411
 1609 0078 03B0     		add	sp, sp, #12
 1610              	.LCFI17:
 1611              		.cfi_def_cfa_offset 36
 1612              		@ sp needed
 1613 007a BDE8F08F 		pop	{r4, r5, r6, r7, r8, r9, r10, fp, pc}
 1614              	.LVL168:
 1615              	.L158:
 1616              		.loc 1 550 1 view .LVU412
 1617 007e 00BF     		.align	2
 1618              	.L157:
 1619 0080 00000000 		.word	textColor
 1620 0084 00000000 		.word	textLayer
 1621              		.cfi_endproc
 1622              	.LFE79:
 1624              		.section	.text.drawNote,"ax",%progbits
 1625              		.align	1
 1626              		.global	drawNote
ARM GAS  /var/folders/hv/f19l0kw128sbpybv1h43gz3c0000gn/T//ccSiVDMR.s 			page 42


 1627              		.syntax unified
 1628              		.thumb
 1629              		.thumb_func
 1630              		.fpu softvfp
 1632              	drawNote:
 1633              	.LFB77:
 474:Src/draw.c    ****   uint8_t blue[3] = {1, 1, 5};
 1634              		.loc 1 474 1 is_stmt 1 view -0
 1635              		.cfi_startproc
 1636              		@ args = 0, pretend = 0, frame = 16
 1637              		@ frame_needed = 0, uses_anonymous_args = 0
 1638 0000 00B5     		push	{lr}
 1639              	.LCFI18:
 1640              		.cfi_def_cfa_offset 4
 1641              		.cfi_offset 14, -4
 1642 0002 85B0     		sub	sp, sp, #20
 1643              	.LCFI19:
 1644              		.cfi_def_cfa_offset 24
 475:Src/draw.c    ****   uint8_t red[3] = {5, 1, 1};
 1645              		.loc 1 475 3 view .LVU414
 475:Src/draw.c    ****   uint8_t red[3] = {5, 1, 1};
 1646              		.loc 1 475 11 is_stmt 0 view .LVU415
 1647 0004 214A     		ldr	r2, .L167
 1648 0006 1368     		ldr	r3, [r2]
 1649 0008 ADF80C30 		strh	r3, [sp, #12]	@ movhi
 1650 000c 1B0C     		lsrs	r3, r3, #16
 1651 000e 8DF80E30 		strb	r3, [sp, #14]
 476:Src/draw.c    ****   uint8_t green[3] = {1, 5, 1};
 1652              		.loc 1 476 3 is_stmt 1 view .LVU416
 476:Src/draw.c    ****   uint8_t green[3] = {1, 5, 1};
 1653              		.loc 1 476 11 is_stmt 0 view .LVU417
 1654 0012 5368     		ldr	r3, [r2, #4]
 1655 0014 ADF80830 		strh	r3, [sp, #8]	@ movhi
 1656 0018 1B0C     		lsrs	r3, r3, #16
 1657 001a 8DF80A30 		strb	r3, [sp, #10]
 477:Src/draw.c    ****   // drawStringArray(1, 1, 1, 1);
 1658              		.loc 1 477 3 is_stmt 1 view .LVU418
 477:Src/draw.c    ****   // drawStringArray(1, 1, 1, 1);
 1659              		.loc 1 477 11 is_stmt 0 view .LVU419
 1660 001e 9368     		ldr	r3, [r2, #8]
 1661 0020 ADF80430 		strh	r3, [sp, #4]	@ movhi
 1662 0024 1B0C     		lsrs	r3, r3, #16
 1663 0026 8DF80630 		strb	r3, [sp, #6]
 481:Src/draw.c    ****     if (noteBuffer[1].note.symbol == 'E')
 1664              		.loc 1 481 3 is_stmt 1 view .LVU420
 481:Src/draw.c    ****     if (noteBuffer[1].note.symbol == 'E')
 1665              		.loc 1 481 25 is_stmt 0 view .LVU421
 1666 002a 194B     		ldr	r3, .L167+4
 1667 002c 1B78     		ldrb	r3, [r3]	@ zero_extendqisi2
 481:Src/draw.c    ****     if (noteBuffer[1].note.symbol == 'E')
 1668              		.loc 1 481 6 view .LVU422
 1669 002e 432B     		cmp	r3, #67
 1670 0030 13D0     		beq	.L164
 1671              	.L160:
 488:Src/draw.c    ****     if (noteBuffer[1].note.symbol == 'B')
 1672              		.loc 1 488 3 is_stmt 1 view .LVU423
 488:Src/draw.c    ****     if (noteBuffer[1].note.symbol == 'B')
ARM GAS  /var/folders/hv/f19l0kw128sbpybv1h43gz3c0000gn/T//ccSiVDMR.s 			page 43


 1673              		.loc 1 488 25 is_stmt 0 view .LVU424
 1674 0032 174B     		ldr	r3, .L167+4
 1675 0034 1B78     		ldrb	r3, [r3]	@ zero_extendqisi2
 488:Src/draw.c    ****     if (noteBuffer[1].note.symbol == 'B')
 1676              		.loc 1 488 6 view .LVU425
 1677 0036 462B     		cmp	r3, #70
 1678 0038 17D0     		beq	.L165
 1679              	.L161:
 494:Src/draw.c    ****     if (noteBuffer[1].note.symbol == 'A')
 1680              		.loc 1 494 3 is_stmt 1 view .LVU426
 494:Src/draw.c    ****     if (noteBuffer[1].note.symbol == 'A')
 1681              		.loc 1 494 25 is_stmt 0 view .LVU427
 1682 003a 154B     		ldr	r3, .L167+4
 1683 003c 1B78     		ldrb	r3, [r3]	@ zero_extendqisi2
 494:Src/draw.c    ****     if (noteBuffer[1].note.symbol == 'A')
 1684              		.loc 1 494 6 view .LVU428
 1685 003e 452B     		cmp	r3, #69
 1686 0040 1BD0     		beq	.L166
 1687              	.L162:
 498:Src/draw.c    ****   drawLetter(note.symbol, 1, 1);
 1688              		.loc 1 498 3 is_stmt 1 view .LVU429
 1689 0042 1448     		ldr	r0, .L167+8
 1690 0044 FFF7FEFF 		bl	setTextColor
 1691              	.LVL169:
 499:Src/draw.c    **** }
 1692              		.loc 1 499 3 view .LVU430
 1693 0048 0122     		movs	r2, #1
 1694 004a 1146     		mov	r1, r2
 1695 004c 124B     		ldr	r3, .L167+12
 1696 004e 1878     		ldrb	r0, [r3]	@ zero_extendqisi2
 1697 0050 FFF7FEFF 		bl	drawLetter
 1698              	.LVL170:
 500:Src/draw.c    **** 
 1699              		.loc 1 500 1 is_stmt 0 view .LVU431
 1700 0054 05B0     		add	sp, sp, #20
 1701              	.LCFI20:
 1702              		.cfi_remember_state
 1703              		.cfi_def_cfa_offset 4
 1704              		@ sp needed
 1705 0056 5DF804FB 		ldr	pc, [sp], #4
 1706              	.L164:
 1707              	.LCFI21:
 1708              		.cfi_restore_state
 482:Src/draw.c    ****       drawColor(blue);
 1709              		.loc 1 482 5 is_stmt 1 view .LVU432
 482:Src/draw.c    ****       drawColor(blue);
 1710              		.loc 1 482 27 is_stmt 0 view .LVU433
 1711 005a 0D4B     		ldr	r3, .L167+4
 1712 005c 9B79     		ldrb	r3, [r3, #6]	@ zero_extendqisi2
 482:Src/draw.c    ****       drawColor(blue);
 1713              		.loc 1 482 8 view .LVU434
 1714 005e 452B     		cmp	r3, #69
 1715 0060 E7D1     		bne	.L160
 483:Src/draw.c    **** 
 1716              		.loc 1 483 7 is_stmt 1 view .LVU435
 1717 0062 03A8     		add	r0, sp, #12
 1718 0064 FFF7FEFF 		bl	drawColor
ARM GAS  /var/folders/hv/f19l0kw128sbpybv1h43gz3c0000gn/T//ccSiVDMR.s 			page 44


 1719              	.LVL171:
 1720 0068 E3E7     		b	.L160
 1721              	.L165:
 489:Src/draw.c    ****       drawColor(red);
 1722              		.loc 1 489 5 view .LVU436
 489:Src/draw.c    ****       drawColor(red);
 1723              		.loc 1 489 27 is_stmt 0 view .LVU437
 1724 006a 094B     		ldr	r3, .L167+4
 1725 006c 9B79     		ldrb	r3, [r3, #6]	@ zero_extendqisi2
 489:Src/draw.c    ****       drawColor(red);
 1726              		.loc 1 489 8 view .LVU438
 1727 006e 422B     		cmp	r3, #66
 1728 0070 E3D1     		bne	.L161
 490:Src/draw.c    **** 
 1729              		.loc 1 490 7 is_stmt 1 view .LVU439
 1730 0072 02A8     		add	r0, sp, #8
 1731 0074 FFF7FEFF 		bl	drawColor
 1732              	.LVL172:
 1733 0078 DFE7     		b	.L161
 1734              	.L166:
 495:Src/draw.c    ****       drawColor(green);
 1735              		.loc 1 495 5 view .LVU440
 495:Src/draw.c    ****       drawColor(green);
 1736              		.loc 1 495 27 is_stmt 0 view .LVU441
 1737 007a 054B     		ldr	r3, .L167+4
 1738 007c 9B79     		ldrb	r3, [r3, #6]	@ zero_extendqisi2
 495:Src/draw.c    ****       drawColor(green);
 1739              		.loc 1 495 8 view .LVU442
 1740 007e 412B     		cmp	r3, #65
 1741 0080 DFD1     		bne	.L162
 496:Src/draw.c    **** 
 1742              		.loc 1 496 7 is_stmt 1 view .LVU443
 1743 0082 01A8     		add	r0, sp, #4
 1744 0084 FFF7FEFF 		bl	drawColor
 1745              	.LVL173:
 1746 0088 DBE7     		b	.L162
 1747              	.L168:
 1748 008a 00BF     		.align	2
 1749              	.L167:
 1750 008c 00000000 		.word	.LANCHOR2
 1751 0090 00000000 		.word	noteBuffer
 1752 0094 03000000 		.word	noteBuffer+3
 1753 0098 00000000 		.word	note
 1754              		.cfi_endproc
 1755              	.LFE77:
 1757              		.section	.text.drawString,"ax",%progbits
 1758              		.align	1
 1759              		.global	drawString
 1760              		.syntax unified
 1761              		.thumb
 1762              		.thumb_func
 1763              		.fpu softvfp
 1765              	drawString:
 1766              	.LVL174:
 1767              	.LFB80:
 551:Src/draw.c    **** 
 552:Src/draw.c    **** void drawString(char *frase, uint8_t px, uint8_t py, uint8_t spacex, uint8_t spacey)
ARM GAS  /var/folders/hv/f19l0kw128sbpybv1h43gz3c0000gn/T//ccSiVDMR.s 			page 45


 553:Src/draw.c    **** {
 1768              		.loc 1 553 1 view -0
 1769              		.cfi_startproc
 1770              		@ args = 4, pretend = 0, frame = 0
 1771              		@ frame_needed = 0, uses_anonymous_args = 0
 1772              		.loc 1 553 1 is_stmt 0 view .LVU445
 1773 0000 2DE9F84F 		push	{r3, r4, r5, r6, r7, r8, r9, r10, fp, lr}
 1774              	.LCFI22:
 1775              		.cfi_def_cfa_offset 40
 1776              		.cfi_offset 3, -40
 1777              		.cfi_offset 4, -36
 1778              		.cfi_offset 5, -32
 1779              		.cfi_offset 6, -28
 1780              		.cfi_offset 7, -24
 1781              		.cfi_offset 8, -20
 1782              		.cfi_offset 9, -16
 1783              		.cfi_offset 10, -12
 1784              		.cfi_offset 11, -8
 1785              		.cfi_offset 14, -4
 1786 0004 0746     		mov	r7, r0
 1787 0006 8846     		mov	r8, r1
 1788 0008 9346     		mov	fp, r2
 1789 000a 9A46     		mov	r10, r3
 1790 000c 9DF82890 		ldrb	r9, [sp, #40]	@ zero_extendqisi2
 554:Src/draw.c    ****   uint8_t posX, incX = 0, posY, nLine = 0;
 1791              		.loc 1 554 3 is_stmt 1 view .LVU446
 1792              	.LVL175:
 555:Src/draw.c    ****   for (size_t i = 0; i < strlen(frase); i++)
 1793              		.loc 1 555 3 view .LVU447
 1794              	.LBB46:
 1795              		.loc 1 555 8 view .LVU448
 1796              		.loc 1 555 15 is_stmt 0 view .LVU449
 1797 0010 0025     		movs	r5, #0
 1798              	.LBE46:
 554:Src/draw.c    ****   uint8_t posX, incX = 0, posY, nLine = 0;
 1799              		.loc 1 554 33 view .LVU450
 1800 0012 2E46     		mov	r6, r5
 554:Src/draw.c    ****   uint8_t posX, incX = 0, posY, nLine = 0;
 1801              		.loc 1 554 17 view .LVU451
 1802 0014 2C46     		mov	r4, r5
 1803              	.LBB47:
 1804              		.loc 1 555 3 view .LVU452
 1805 0016 0CE0     		b	.L170
 1806              	.LVL176:
 1807              	.L171:
 556:Src/draw.c    ****   {
 557:Src/draw.c    ****     // posX = (char)frase[i] == (char)32 ? (i * 3) + px - 1 : (i * (3 + spacex)) + px;
 558:Src/draw.c    ****     posX = incX * (3 + spacex) + px;
 559:Src/draw.c    ****     if (posX + ((3 + spacex)) > NCOLS - 2)
 560:Src/draw.c    ****     {
 561:Src/draw.c    ****       posX = px;
 562:Src/draw.c    ****       nLine++;
 563:Src/draw.c    ****       incX = 0;
 564:Src/draw.c    ****     }
 565:Src/draw.c    ****     posY = nLine * (5 + spacey) + py;
 1808              		.loc 1 565 5 is_stmt 1 discriminator 2 view .LVU453
 1809              		.loc 1 565 33 is_stmt 0 discriminator 2 view .LVU454
ARM GAS  /var/folders/hv/f19l0kw128sbpybv1h43gz3c0000gn/T//ccSiVDMR.s 			page 46


 1810 0018 09F10502 		add	r2, r9, #5
 1811 001c 02FB06F2 		mul	r2, r2, r6
 1812 0020 D2B2     		uxtb	r2, r2
 1813              		.loc 1 565 10 discriminator 2 view .LVU455
 1814 0022 5A44     		add	r2, r2, fp
 1815              	.LVL177:
 566:Src/draw.c    ****     drawLetter(frase[i], posX, posY);
 1816              		.loc 1 566 5 is_stmt 1 discriminator 2 view .LVU456
 1817 0024 D2B2     		uxtb	r2, r2
 1818              		.loc 1 566 5 is_stmt 0 discriminator 2 view .LVU457
 1819 0026 785D     		ldrb	r0, [r7, r5]	@ zero_extendqisi2
 1820 0028 FFF7FEFF 		bl	drawLetter
 1821              	.LVL178:
 567:Src/draw.c    ****     // posX = (posI - (nLine * (NCOLS - 3))) + 1;
 568:Src/draw.c    ****     incX++;
 1822              		.loc 1 568 5 is_stmt 1 discriminator 2 view .LVU458
 1823              		.loc 1 568 9 is_stmt 0 discriminator 2 view .LVU459
 1824 002c 0134     		adds	r4, r4, #1
 1825              	.LVL179:
 1826              		.loc 1 568 9 discriminator 2 view .LVU460
 1827 002e E4B2     		uxtb	r4, r4
 1828              	.LVL180:
 555:Src/draw.c    ****   {
 1829              		.loc 1 555 42 discriminator 2 view .LVU461
 1830 0030 0135     		adds	r5, r5, #1
 1831              	.LVL181:
 1832              	.L170:
 555:Src/draw.c    ****   {
 1833              		.loc 1 555 26 discriminator 1 view .LVU462
 1834 0032 3846     		mov	r0, r7
 1835 0034 FFF7FEFF 		bl	strlen
 1836              	.LVL182:
 555:Src/draw.c    ****   {
 1837              		.loc 1 555 3 discriminator 1 view .LVU463
 1838 0038 A842     		cmp	r0, r5
 1839 003a 0ED9     		bls	.L174
 558:Src/draw.c    ****     if (posX + ((3 + spacex)) > NCOLS - 2)
 1840              		.loc 1 558 5 is_stmt 1 view .LVU464
 558:Src/draw.c    ****     if (posX + ((3 + spacex)) > NCOLS - 2)
 1841              		.loc 1 558 32 is_stmt 0 view .LVU465
 1842 003c 0AF10303 		add	r3, r10, #3
 1843 0040 03FB04F1 		mul	r1, r3, r4
 1844 0044 C9B2     		uxtb	r1, r1
 558:Src/draw.c    ****     if (posX + ((3 + spacex)) > NCOLS - 2)
 1845              		.loc 1 558 10 view .LVU466
 1846 0046 4144     		add	r1, r1, r8
 1847 0048 C9B2     		uxtb	r1, r1
 1848              	.LVL183:
 559:Src/draw.c    ****     {
 1849              		.loc 1 559 5 is_stmt 1 view .LVU467
 559:Src/draw.c    ****     {
 1850              		.loc 1 559 14 is_stmt 0 view .LVU468
 1851 004a 0B44     		add	r3, r3, r1
 559:Src/draw.c    ****     {
 1852              		.loc 1 559 8 view .LVU469
 1853 004c 2B2B     		cmp	r3, #43
 1854 004e E3DD     		ble	.L171
ARM GAS  /var/folders/hv/f19l0kw128sbpybv1h43gz3c0000gn/T//ccSiVDMR.s 			page 47


 561:Src/draw.c    ****       nLine++;
 1855              		.loc 1 561 7 is_stmt 1 view .LVU470
 1856              	.LVL184:
 562:Src/draw.c    ****       incX = 0;
 1857              		.loc 1 562 7 view .LVU471
 562:Src/draw.c    ****       incX = 0;
 1858              		.loc 1 562 12 is_stmt 0 view .LVU472
 1859 0050 0136     		adds	r6, r6, #1
 1860              	.LVL185:
 562:Src/draw.c    ****       incX = 0;
 1861              		.loc 1 562 12 view .LVU473
 1862 0052 F6B2     		uxtb	r6, r6
 1863              	.LVL186:
 563:Src/draw.c    ****     }
 1864              		.loc 1 563 7 is_stmt 1 view .LVU474
 561:Src/draw.c    ****       nLine++;
 1865              		.loc 1 561 12 is_stmt 0 view .LVU475
 1866 0054 4146     		mov	r1, r8
 563:Src/draw.c    ****     }
 1867              		.loc 1 563 12 view .LVU476
 1868 0056 0024     		movs	r4, #0
 1869 0058 DEE7     		b	.L171
 1870              	.LVL187:
 1871              	.L174:
 563:Src/draw.c    ****     }
 1872              		.loc 1 563 12 view .LVU477
 1873              	.LBE47:
 569:Src/draw.c    ****   }
 570:Src/draw.c    **** }
 1874              		.loc 1 570 1 view .LVU478
 1875 005a BDE8F88F 		pop	{r3, r4, r5, r6, r7, r8, r9, r10, fp, pc}
 1876              		.loc 1 570 1 view .LVU479
 1877              		.cfi_endproc
 1878              	.LFE80:
 1880              		.section	.text.drawStringArray,"ax",%progbits
 1881              		.align	1
 1882              		.global	drawStringArray
 1883              		.syntax unified
 1884              		.thumb
 1885              		.thumb_func
 1886              		.fpu softvfp
 1888              	drawStringArray:
 1889              	.LVL188:
 1890              	.LFB81:
 571:Src/draw.c    **** 
 572:Src/draw.c    **** void drawStringArray(uint8_t px, uint8_t py, uint8_t spacex, uint8_t spacey)
 573:Src/draw.c    **** {
 1891              		.loc 1 573 1 is_stmt 1 view -0
 1892              		.cfi_startproc
 1893              		@ args = 0, pretend = 0, frame = 8
 1894              		@ frame_needed = 0, uses_anonymous_args = 0
 1895              		.loc 1 573 1 is_stmt 0 view .LVU481
 1896 0000 2DE9F04F 		push	{r4, r5, r6, r7, r8, r9, r10, fp, lr}
 1897              	.LCFI23:
 1898              		.cfi_def_cfa_offset 36
 1899              		.cfi_offset 4, -36
 1900              		.cfi_offset 5, -32
ARM GAS  /var/folders/hv/f19l0kw128sbpybv1h43gz3c0000gn/T//ccSiVDMR.s 			page 48


 1901              		.cfi_offset 6, -28
 1902              		.cfi_offset 7, -24
 1903              		.cfi_offset 8, -20
 1904              		.cfi_offset 9, -16
 1905              		.cfi_offset 10, -12
 1906              		.cfi_offset 11, -8
 1907              		.cfi_offset 14, -4
 1908 0004 83B0     		sub	sp, sp, #12
 1909              	.LCFI24:
 1910              		.cfi_def_cfa_offset 48
 1911 0006 8246     		mov	r10, r0
 1912 0008 8B46     		mov	fp, r1
 1913 000a 0092     		str	r2, [sp]
 1914 000c 0193     		str	r3, [sp, #4]
 574:Src/draw.c    ****   uint8_t posX, incX = 0, posY, nLine = 0;
 1915              		.loc 1 574 3 is_stmt 1 view .LVU482
 1916              	.LVL189:
 575:Src/draw.c    ****   char temp;
 1917              		.loc 1 575 3 view .LVU483
 576:Src/draw.c    ****   for (uint8_t j = 0; j < ARRAY_LEN(noteBuffer); j++)
 1918              		.loc 1 576 3 view .LVU484
 1919              	.LBB48:
 1920              		.loc 1 576 8 view .LVU485
 1921              		.loc 1 576 16 is_stmt 0 view .LVU486
 1922 000e 0027     		movs	r7, #0
 1923              	.LBE48:
 574:Src/draw.c    ****   uint8_t posX, incX = 0, posY, nLine = 0;
 1924              		.loc 1 574 33 view .LVU487
 1925 0010 B846     		mov	r8, r7
 574:Src/draw.c    ****   uint8_t posX, incX = 0, posY, nLine = 0;
 1926              		.loc 1 574 17 view .LVU488
 1927 0012 B946     		mov	r9, r7
 1928              	.LBB51:
 1929              		.loc 1 576 3 view .LVU489
 1930 0014 2CE0     		b	.L176
 1931              	.LVL190:
 1932              	.L178:
 1933              	.LBB49:
 577:Src/draw.c    ****   {
 578:Src/draw.c    ****     setTextColor(noteBuffer[j].color);
 579:Src/draw.c    ****     for (uint8_t i = 0; i < 3; i++)
 580:Src/draw.c    ****     {
 581:Src/draw.c    ****       posX = incX * (3 + spacex) + px;
 582:Src/draw.c    ****       if (posX + ((3 + spacex)) > NCOLS - 2)
 583:Src/draw.c    ****       {
 584:Src/draw.c    ****         posX = px;
 585:Src/draw.c    ****         nLine++;
 586:Src/draw.c    ****         incX = 0;
 587:Src/draw.c    ****       }
 588:Src/draw.c    ****       posY = nLine * (5 + spacey) + py;
 1934              		.loc 1 588 7 is_stmt 1 view .LVU490
 1935              		.loc 1 588 35 is_stmt 0 view .LVU491
 1936 0016 019B     		ldr	r3, [sp, #4]
 1937 0018 5C1D     		adds	r4, r3, #5
 1938 001a 04FB08F4 		mul	r4, r4, r8
 1939 001e E4B2     		uxtb	r4, r4
 1940              		.loc 1 588 12 view .LVU492
ARM GAS  /var/folders/hv/f19l0kw128sbpybv1h43gz3c0000gn/T//ccSiVDMR.s 			page 49


 1941 0020 5C44     		add	r4, r4, fp
 1942 0022 E4B2     		uxtb	r4, r4
 1943              	.LVL191:
 589:Src/draw.c    ****       temp = getNoteBuffer(j, i);
 1944              		.loc 1 589 7 is_stmt 1 view .LVU493
 1945              		.loc 1 589 14 is_stmt 0 view .LVU494
 1946 0024 3146     		mov	r1, r6
 1947 0026 3846     		mov	r0, r7
 1948 0028 FFF7FEFF 		bl	getNoteBuffer
 1949              	.LVL192:
 590:Src/draw.c    ****       if (temp)
 1950              		.loc 1 590 7 is_stmt 1 view .LVU495
 1951              		.loc 1 590 10 is_stmt 0 view .LVU496
 1952 002c A8B9     		cbnz	r0, .L183
 1953              	.LVL193:
 1954              	.L179:
 579:Src/draw.c    ****     {
 1955              		.loc 1 579 33 discriminator 2 view .LVU497
 1956 002e 0136     		adds	r6, r6, #1
 1957              	.LVL194:
 579:Src/draw.c    ****     {
 1958              		.loc 1 579 33 discriminator 2 view .LVU498
 1959 0030 F6B2     		uxtb	r6, r6
 1960              	.LVL195:
 1961              	.L177:
 579:Src/draw.c    ****     {
 1962              		.loc 1 579 5 discriminator 1 view .LVU499
 1963 0032 022E     		cmp	r6, #2
 1964 0034 1AD8     		bhi	.L184
 581:Src/draw.c    ****       if (posX + ((3 + spacex)) > NCOLS - 2)
 1965              		.loc 1 581 7 is_stmt 1 view .LVU500
 581:Src/draw.c    ****       if (posX + ((3 + spacex)) > NCOLS - 2)
 1966              		.loc 1 581 34 is_stmt 0 view .LVU501
 1967 0036 009B     		ldr	r3, [sp]
 1968 0038 0333     		adds	r3, r3, #3
 1969 003a 03FB09F5 		mul	r5, r3, r9
 1970 003e EDB2     		uxtb	r5, r5
 581:Src/draw.c    ****       if (posX + ((3 + spacex)) > NCOLS - 2)
 1971              		.loc 1 581 12 view .LVU502
 1972 0040 5544     		add	r5, r5, r10
 1973 0042 EDB2     		uxtb	r5, r5
 1974              	.LVL196:
 582:Src/draw.c    ****       {
 1975              		.loc 1 582 7 is_stmt 1 view .LVU503
 582:Src/draw.c    ****       {
 1976              		.loc 1 582 16 is_stmt 0 view .LVU504
 1977 0044 2B44     		add	r3, r3, r5
 582:Src/draw.c    ****       {
 1978              		.loc 1 582 10 view .LVU505
 1979 0046 2B2B     		cmp	r3, #43
 1980 0048 E5DD     		ble	.L178
 584:Src/draw.c    ****         nLine++;
 1981              		.loc 1 584 9 is_stmt 1 view .LVU506
 1982              	.LVL197:
 585:Src/draw.c    ****         incX = 0;
 1983              		.loc 1 585 9 view .LVU507
 585:Src/draw.c    ****         incX = 0;
ARM GAS  /var/folders/hv/f19l0kw128sbpybv1h43gz3c0000gn/T//ccSiVDMR.s 			page 50


 1984              		.loc 1 585 14 is_stmt 0 view .LVU508
 1985 004a 08F10108 		add	r8, r8, #1
 1986              	.LVL198:
 585:Src/draw.c    ****         incX = 0;
 1987              		.loc 1 585 14 view .LVU509
 1988 004e 5FFA88F8 		uxtb	r8, r8
 1989              	.LVL199:
 586:Src/draw.c    ****       }
 1990              		.loc 1 586 9 is_stmt 1 view .LVU510
 584:Src/draw.c    ****         nLine++;
 1991              		.loc 1 584 14 is_stmt 0 view .LVU511
 1992 0052 5546     		mov	r5, r10
 586:Src/draw.c    ****       }
 1993              		.loc 1 586 14 view .LVU512
 1994 0054 4FF00009 		mov	r9, #0
 1995 0058 DDE7     		b	.L178
 1996              	.LVL200:
 1997              	.L183:
 591:Src/draw.c    ****       {
 592:Src/draw.c    ****         drawLetter(temp, posX, posY);
 1998              		.loc 1 592 9 is_stmt 1 view .LVU513
 1999 005a 2246     		mov	r2, r4
 2000 005c 2946     		mov	r1, r5
 2001 005e FFF7FEFF 		bl	drawLetter
 2002              	.LVL201:
 593:Src/draw.c    ****         incX++;
 2003              		.loc 1 593 9 view .LVU514
 2004              		.loc 1 593 13 is_stmt 0 view .LVU515
 2005 0062 09F10109 		add	r9, r9, #1
 2006              	.LVL202:
 2007              		.loc 1 593 13 view .LVU516
 2008 0066 5FFA89F9 		uxtb	r9, r9
 2009              	.LVL203:
 2010              		.loc 1 593 13 view .LVU517
 2011 006a E0E7     		b	.L179
 2012              	.LVL204:
 2013              	.L184:
 2014              		.loc 1 593 13 view .LVU518
 2015              	.LBE49:
 576:Src/draw.c    ****   {
 2016              		.loc 1 576 51 discriminator 2 view .LVU519
 2017 006c 0137     		adds	r7, r7, #1
 2018              	.LVL205:
 576:Src/draw.c    ****   {
 2019              		.loc 1 576 51 discriminator 2 view .LVU520
 2020 006e FFB2     		uxtb	r7, r7
 2021              	.LVL206:
 2022              	.L176:
 576:Src/draw.c    ****   {
 2023              		.loc 1 576 3 discriminator 1 view .LVU521
 2024 0070 092F     		cmp	r7, #9
 2025 0072 09D8     		bhi	.L185
 578:Src/draw.c    ****     for (uint8_t i = 0; i < 3; i++)
 2026              		.loc 1 578 5 is_stmt 1 view .LVU522
 578:Src/draw.c    ****     for (uint8_t i = 0; i < 3; i++)
 2027              		.loc 1 578 31 is_stmt 0 view .LVU523
 2028 0074 07EB4703 		add	r3, r7, r7, lsl #1
ARM GAS  /var/folders/hv/f19l0kw128sbpybv1h43gz3c0000gn/T//ccSiVDMR.s 			page 51


 2029 0078 5800     		lsls	r0, r3, #1
 2030 007a 054B     		ldr	r3, .L186
 2031 007c 1844     		add	r0, r0, r3
 578:Src/draw.c    ****     for (uint8_t i = 0; i < 3; i++)
 2032              		.loc 1 578 5 view .LVU524
 2033 007e 0330     		adds	r0, r0, #3
 2034 0080 FFF7FEFF 		bl	setTextColor
 2035              	.LVL207:
 579:Src/draw.c    ****     {
 2036              		.loc 1 579 5 is_stmt 1 view .LVU525
 2037              	.LBB50:
 579:Src/draw.c    ****     {
 2038              		.loc 1 579 10 view .LVU526
 579:Src/draw.c    ****     {
 2039              		.loc 1 579 18 is_stmt 0 view .LVU527
 2040 0084 0026     		movs	r6, #0
 579:Src/draw.c    ****     {
 2041              		.loc 1 579 5 view .LVU528
 2042 0086 D4E7     		b	.L177
 2043              	.LVL208:
 2044              	.L185:
 579:Src/draw.c    ****     {
 2045              		.loc 1 579 5 view .LVU529
 2046              	.LBE50:
 2047              	.LBE51:
 594:Src/draw.c    ****       }
 595:Src/draw.c    ****     }
 596:Src/draw.c    ****   }
 597:Src/draw.c    **** }
 2048              		.loc 1 597 1 view .LVU530
 2049 0088 03B0     		add	sp, sp, #12
 2050              	.LCFI25:
 2051              		.cfi_def_cfa_offset 36
 2052              		@ sp needed
 2053 008a BDE8F08F 		pop	{r4, r5, r6, r7, r8, r9, r10, fp, pc}
 2054              	.LVL209:
 2055              	.L187:
 2056              		.loc 1 597 1 view .LVU531
 2057 008e 00BF     		.align	2
 2058              	.L186:
 2059 0090 00000000 		.word	noteBuffer
 2060              		.cfi_endproc
 2061              	.LFE81:
 2063              		.section	.text.drawScrollingString,"ax",%progbits
 2064              		.align	1
 2065              		.global	drawScrollingString
 2066              		.syntax unified
 2067              		.thumb
 2068              		.thumb_func
 2069              		.fpu softvfp
 2071              	drawScrollingString:
 2072              	.LVL210:
 2073              	.LFB82:
 598:Src/draw.c    **** 
 599:Src/draw.c    **** void drawScrollingString(char *frase, uint16_t interval_ms, uint8_t space, uint8_t offX, uint8_t of
 600:Src/draw.c    **** {
 2074              		.loc 1 600 1 is_stmt 1 view -0
ARM GAS  /var/folders/hv/f19l0kw128sbpybv1h43gz3c0000gn/T//ccSiVDMR.s 			page 52


 2075              		.cfi_startproc
 2076              		@ args = 4, pretend = 0, frame = 48
 2077              		@ frame_needed = 0, uses_anonymous_args = 0
 2078              		.loc 1 600 1 is_stmt 0 view .LVU533
 2079 0000 2DE9F04F 		push	{r4, r5, r6, r7, r8, r9, r10, fp, lr}
 2080              	.LCFI26:
 2081              		.cfi_def_cfa_offset 36
 2082              		.cfi_offset 4, -36
 2083              		.cfi_offset 5, -32
 2084              		.cfi_offset 6, -28
 2085              		.cfi_offset 7, -24
 2086              		.cfi_offset 8, -20
 2087              		.cfi_offset 9, -16
 2088              		.cfi_offset 10, -12
 2089              		.cfi_offset 11, -8
 2090              		.cfi_offset 14, -4
 2091 0004 8DB0     		sub	sp, sp, #52
 2092              	.LCFI27:
 2093              		.cfi_def_cfa_offset 88
 2094 0006 0590     		str	r0, [sp, #20]
 2095 0008 0B91     		str	r1, [sp, #44]
 2096 000a 9A46     		mov	r10, r3
 2097 000c 9DF85830 		ldrb	r3, [sp, #88]	@ zero_extendqisi2
 2098              	.LVL211:
 2099              		.loc 1 600 1 view .LVU534
 2100 0010 0493     		str	r3, [sp, #16]
 601:Src/draw.c    ****   int8_t posX, posY;
 2101              		.loc 1 601 3 is_stmt 1 view .LVU535
 602:Src/draw.c    ****   uint8_t fill, width = 3 + space;
 2102              		.loc 1 602 3 view .LVU536
 2103              		.loc 1 602 17 is_stmt 0 view .LVU537
 2104 0012 0332     		adds	r2, r2, #3
 2105              	.LVL212:
 2106              		.loc 1 602 17 view .LVU538
 2107 0014 5FFA82FB 		uxtb	fp, r2
 2108              	.LVL213:
 603:Src/draw.c    ****   for (uint8_t letter = 0; letter < strlen(frase); letter++)
 2109              		.loc 1 603 3 is_stmt 1 view .LVU539
 2110              	.LBB52:
 2111              		.loc 1 603 8 view .LVU540
 2112              		.loc 1 603 16 is_stmt 0 view .LVU541
 2113 0018 0023     		movs	r3, #0
 2114 001a 0A93     		str	r3, [sp, #40]
 2115              		.loc 1 603 3 view .LVU542
 2116 001c 7EE0     		b	.L189
 2117              	.LVL214:
 2118              	.L203:
 2119              	.LBB53:
 2120              	.LBB54:
 2121              	.LBB55:
 2122              	.LBB56:
 604:Src/draw.c    ****   {
 605:Src/draw.c    ****     for (uint8_t pos = 0; pos < 3; pos++)
 606:Src/draw.c    ****     {
 607:Src/draw.c    ****       clearText();
 608:Src/draw.c    ****       for (uint8_t i = letter, idx = 0; i < strlen(frase); i++, idx++)
 609:Src/draw.c    ****       {
ARM GAS  /var/folders/hv/f19l0kw128sbpybv1h43gz3c0000gn/T//ccSiVDMR.s 			page 53


 610:Src/draw.c    ****         posX = (idx * width) + offX;
 611:Src/draw.c    ****         posY = offY;
 612:Src/draw.c    **** 
 613:Src/draw.c    ****         for (int8_t y = posY, l = 0; y < (posY + 5); y++, l++)
 614:Src/draw.c    ****         {
 615:Src/draw.c    ****           if (y >= (NCOLS - offY))
 616:Src/draw.c    ****             break;
 617:Src/draw.c    ****           fill = getFontLine(frase[i], l);
 618:Src/draw.c    ****           for (int8_t x = posX - pos, aX = 3; x < (posX + width) - pos; x++, aX--)
 619:Src/draw.c    ****           {
 620:Src/draw.c    ****             if (x >= (NCOLS - offX))
 621:Src/draw.c    ****               break;
 622:Src/draw.c    ****             if (x >= offX)
 623:Src/draw.c    ****             {
 624:Src/draw.c    ****               if (fill & (1u << aX))
 625:Src/draw.c    ****               {
 626:Src/draw.c    ****                 setColor(textLayer[x + (y * NCOLS)], textColor);
 2123              		.loc 1 626 17 is_stmt 1 view .LVU543
 2124              		.loc 1 626 43 is_stmt 0 view .LVU544
 2125 001e 029B     		ldr	r3, [sp, #8]
 2126 0020 03EB4303 		add	r3, r3, r3, lsl #1
 2127 0024 C3EB0313 		rsb	r3, r3, r3, lsl #4
 2128              		.loc 1 626 38 view .LVU545
 2129 0028 1844     		add	r0, r0, r3
 2130              		.loc 1 626 35 view .LVU546
 2131 002a 00EB4000 		add	r0, r0, r0, lsl #1
 2132              		.loc 1 626 17 view .LVU547
 2133 002e 4349     		ldr	r1, .L207
 2134 0030 434B     		ldr	r3, .L207+4
 2135 0032 1844     		add	r0, r0, r3
 2136 0034 FFF7FEFF 		bl	setColor
 2137              	.LVL215:
 2138              	.L195:
 618:Src/draw.c    ****           {
 2139              		.loc 1 618 74 discriminator 2 view .LVU548
 2140 0038 0134     		adds	r4, r4, #1
 2141              	.LVL216:
 618:Src/draw.c    ****           {
 2142              		.loc 1 618 74 discriminator 2 view .LVU549
 2143 003a 64B2     		sxtb	r4, r4
 2144              	.LVL217:
 618:Src/draw.c    ****           {
 2145              		.loc 1 618 80 discriminator 2 view .LVU550
 2146 003c 013D     		subs	r5, r5, #1
 2147              	.LVL218:
 618:Src/draw.c    ****           {
 2148              		.loc 1 618 80 discriminator 2 view .LVU551
 2149 003e 6DB2     		sxtb	r5, r5
 2150              	.LVL219:
 2151              	.L193:
 618:Src/draw.c    ****           {
 2152              		.loc 1 618 49 discriminator 1 view .LVU552
 2153 0040 2046     		mov	r0, r4
 618:Src/draw.c    ****           {
 2154              		.loc 1 618 57 discriminator 1 view .LVU553
 2155 0042 06EB0A03 		add	r3, r6, r10
 618:Src/draw.c    ****           {
ARM GAS  /var/folders/hv/f19l0kw128sbpybv1h43gz3c0000gn/T//ccSiVDMR.s 			page 54


 2156              		.loc 1 618 66 discriminator 1 view .LVU554
 2157 0046 A3EB0B03 		sub	r3, r3, fp
 618:Src/draw.c    ****           {
 2158              		.loc 1 618 11 discriminator 1 view .LVU555
 2159 004a 9C42     		cmp	r4, r3
 2160 004c 0BDA     		bge	.L194
 620:Src/draw.c    ****               break;
 2161              		.loc 1 620 13 is_stmt 1 view .LVU556
 620:Src/draw.c    ****               break;
 2162              		.loc 1 620 29 is_stmt 0 view .LVU557
 2163 004e C9F12D03 		rsb	r3, r9, #45
 620:Src/draw.c    ****               break;
 2164              		.loc 1 620 16 view .LVU558
 2165 0052 A342     		cmp	r3, r4
 2166 0054 07DD     		ble	.L194
 622:Src/draw.c    ****             {
 2167              		.loc 1 622 13 is_stmt 1 view .LVU559
 622:Src/draw.c    ****             {
 2168              		.loc 1 622 16 is_stmt 0 view .LVU560
 2169 0056 8145     		cmp	r9, r0
 2170 0058 EEDC     		bgt	.L195
 624:Src/draw.c    ****               {
 2171              		.loc 1 624 15 is_stmt 1 view .LVU561
 624:Src/draw.c    ****               {
 2172              		.loc 1 624 19 is_stmt 0 view .LVU562
 2173 005a 27FA05F3 		lsr	r3, r7, r5
 624:Src/draw.c    ****               {
 2174              		.loc 1 624 18 view .LVU563
 2175 005e 13F0010F 		tst	r3, #1
 2176 0062 E9D0     		beq	.L195
 2177 0064 DBE7     		b	.L203
 2178              	.L194:
 2179              	.LBE56:
 613:Src/draw.c    ****         {
 2180              		.loc 1 613 55 discriminator 2 view .LVU564
 2181 0066 08F10108 		add	r8, r8, #1
 2182              	.LVL220:
 613:Src/draw.c    ****         {
 2183              		.loc 1 613 55 discriminator 2 view .LVU565
 2184 006a 4FFA88F8 		sxtb	r8, r8
 2185              	.LVL221:
 613:Src/draw.c    ****         {
 2186              		.loc 1 613 60 discriminator 2 view .LVU566
 2187 006e 019B     		ldr	r3, [sp, #4]
 2188 0070 0133     		adds	r3, r3, #1
 2189 0072 5BB2     		sxtb	r3, r3
 2190 0074 0193     		str	r3, [sp, #4]
 2191              	.LVL222:
 2192              	.L191:
 613:Src/draw.c    ****         {
 2193              		.loc 1 613 40 discriminator 1 view .LVU567
 2194 0076 039B     		ldr	r3, [sp, #12]
 2195 0078 0433     		adds	r3, r3, #4
 2196 007a CDF80880 		str	r8, [sp, #8]
 613:Src/draw.c    ****         {
 2197              		.loc 1 613 9 discriminator 1 view .LVU568
 2198 007e 4345     		cmp	r3, r8
ARM GAS  /var/folders/hv/f19l0kw128sbpybv1h43gz3c0000gn/T//ccSiVDMR.s 			page 55


 2199 0080 11DB     		blt	.L192
 615:Src/draw.c    ****             break;
 2200              		.loc 1 615 11 is_stmt 1 view .LVU569
 615:Src/draw.c    ****             break;
 2201              		.loc 1 615 27 is_stmt 0 view .LVU570
 2202 0082 049B     		ldr	r3, [sp, #16]
 2203 0084 C3F12D03 		rsb	r3, r3, #45
 615:Src/draw.c    ****             break;
 2204              		.loc 1 615 14 view .LVU571
 2205 0088 4345     		cmp	r3, r8
 2206 008a 0CDD     		ble	.L192
 617:Src/draw.c    ****           for (int8_t x = posX - pos, aX = 3; x < (posX + width) - pos; x++, aX--)
 2207              		.loc 1 617 11 is_stmt 1 view .LVU572
 617:Src/draw.c    ****           for (int8_t x = posX - pos, aX = 3; x < (posX + width) - pos; x++, aX--)
 2208              		.loc 1 617 18 is_stmt 0 view .LVU573
 2209 008c 0199     		ldr	r1, [sp, #4]
 2210 008e 059B     		ldr	r3, [sp, #20]
 2211 0090 069A     		ldr	r2, [sp, #24]
 2212 0092 985C     		ldrb	r0, [r3, r2]	@ zero_extendqisi2
 2213 0094 FFF7FEFF 		bl	getFontLine
 2214              	.LVL223:
 2215 0098 0746     		mov	r7, r0
 2216              	.LVL224:
 618:Src/draw.c    ****           {
 2217              		.loc 1 618 11 is_stmt 1 view .LVU574
 2218              	.LBB57:
 618:Src/draw.c    ****           {
 2219              		.loc 1 618 16 view .LVU575
 618:Src/draw.c    ****           {
 2220              		.loc 1 618 32 is_stmt 0 view .LVU576
 2221 009a 079B     		ldr	r3, [sp, #28]
 2222 009c A3EB0B04 		sub	r4, r3, fp
 618:Src/draw.c    ****           {
 2223              		.loc 1 618 23 view .LVU577
 2224 00a0 64B2     		sxtb	r4, r4
 2225              	.LVL225:
 618:Src/draw.c    ****           {
 2226              		.loc 1 618 39 view .LVU578
 2227 00a2 0325     		movs	r5, #3
 618:Src/draw.c    ****           {
 2228              		.loc 1 618 11 view .LVU579
 2229 00a4 CCE7     		b	.L193
 2230              	.LVL226:
 2231              	.L192:
 618:Src/draw.c    ****           {
 2232              		.loc 1 618 11 view .LVU580
 2233              	.LBE57:
 2234              	.LBE55:
 608:Src/draw.c    ****       {
 2235              		.loc 1 608 61 discriminator 2 view .LVU581
 2236 00a6 089B     		ldr	r3, [sp, #32]
 2237 00a8 0133     		adds	r3, r3, #1
 2238 00aa DBB2     		uxtb	r3, r3
 2239 00ac 0893     		str	r3, [sp, #32]
 2240              	.LVL227:
 608:Src/draw.c    ****       {
 2241              		.loc 1 608 68 discriminator 2 view .LVU582
ARM GAS  /var/folders/hv/f19l0kw128sbpybv1h43gz3c0000gn/T//ccSiVDMR.s 			page 56


 2242 00ae 099B     		ldr	r3, [sp, #36]
 2243 00b0 0133     		adds	r3, r3, #1
 2244 00b2 DBB2     		uxtb	r3, r3
 2245 00b4 0993     		str	r3, [sp, #36]
 2246              	.LVL228:
 2247              	.L190:
 608:Src/draw.c    ****       {
 2248              		.loc 1 608 43 discriminator 1 view .LVU583
 2249 00b6 089C     		ldr	r4, [sp, #32]
 2250 00b8 0694     		str	r4, [sp, #24]
 608:Src/draw.c    ****       {
 2251              		.loc 1 608 45 discriminator 1 view .LVU584
 2252 00ba 0598     		ldr	r0, [sp, #20]
 2253 00bc FFF7FEFF 		bl	strlen
 2254              	.LVL229:
 608:Src/draw.c    ****       {
 2255              		.loc 1 608 7 discriminator 1 view .LVU585
 2256 00c0 8442     		cmp	r4, r0
 2257 00c2 0ED2     		bcs	.L204
 610:Src/draw.c    ****         posY = offY;
 2258              		.loc 1 610 9 is_stmt 1 view .LVU586
 610:Src/draw.c    ****         posY = offY;
 2259              		.loc 1 610 21 is_stmt 0 view .LVU587
 2260 00c4 099B     		ldr	r3, [sp, #36]
 2261 00c6 0AFB03F3 		mul	r3, r10, r3
 2262 00ca DBB2     		uxtb	r3, r3
 610:Src/draw.c    ****         posY = offY;
 2263              		.loc 1 610 30 view .LVU588
 2264 00cc 4B44     		add	r3, r3, r9
 2265 00ce DBB2     		uxtb	r3, r3
 2266 00d0 0793     		str	r3, [sp, #28]
 610:Src/draw.c    ****         posY = offY;
 2267              		.loc 1 610 14 view .LVU589
 2268 00d2 5EB2     		sxtb	r6, r3
 2269              	.LVL230:
 611:Src/draw.c    **** 
 2270              		.loc 1 611 9 is_stmt 1 view .LVU590
 611:Src/draw.c    **** 
 2271              		.loc 1 611 14 is_stmt 0 view .LVU591
 2272 00d4 9DF91030 		ldrsb	r3, [sp, #16]
 2273 00d8 0393     		str	r3, [sp, #12]
 2274              	.LVL231:
 613:Src/draw.c    ****         {
 2275              		.loc 1 613 9 is_stmt 1 view .LVU592
 2276              	.LBB58:
 613:Src/draw.c    ****         {
 2277              		.loc 1 613 14 view .LVU593
 613:Src/draw.c    ****         {
 2278              		.loc 1 613 21 is_stmt 0 view .LVU594
 2279 00da 9846     		mov	r8, r3
 613:Src/draw.c    ****         {
 2280              		.loc 1 613 31 view .LVU595
 2281 00dc 0023     		movs	r3, #0
 2282              	.LVL232:
 613:Src/draw.c    ****         {
 2283              		.loc 1 613 31 view .LVU596
 2284 00de 0193     		str	r3, [sp, #4]
ARM GAS  /var/folders/hv/f19l0kw128sbpybv1h43gz3c0000gn/T//ccSiVDMR.s 			page 57


 613:Src/draw.c    ****         {
 2285              		.loc 1 613 9 view .LVU597
 2286 00e0 C9E7     		b	.L191
 2287              	.LVL233:
 2288              	.L204:
 613:Src/draw.c    ****         {
 2289              		.loc 1 613 9 view .LVU598
 2290              	.LBE58:
 2291              	.LBE54:
 627:Src/draw.c    ****               }
 628:Src/draw.c    ****             }
 629:Src/draw.c    ****           }
 630:Src/draw.c    ****         }
 631:Src/draw.c    ****       }
 632:Src/draw.c    ****       fillFramebuffer();
 2292              		.loc 1 632 7 is_stmt 1 discriminator 2 view .LVU599
 2293 00e2 FFF7FEFF 		bl	fillFramebuffer
 2294              	.LVL234:
 633:Src/draw.c    ****       WS2812_sendbuf(24 * NLEDSCH);
 2295              		.loc 1 633 7 discriminator 2 view .LVU600
 2296 00e6 4FF48750 		mov	r0, #4320
 2297 00ea FFF7FEFF 		bl	WS2812_sendbuf
 2298              	.LVL235:
 634:Src/draw.c    ****       LL_mDelay(interval_ms);
 2299              		.loc 1 634 7 discriminator 2 view .LVU601
 2300 00ee 0B98     		ldr	r0, [sp, #44]
 2301 00f0 FFF7FEFF 		bl	LL_mDelay
 2302              	.LVL236:
 605:Src/draw.c    ****     {
 2303              		.loc 1 605 39 is_stmt 0 discriminator 2 view .LVU602
 2304 00f4 0BF10103 		add	r3, fp, #1
 2305 00f8 5FFA83FB 		uxtb	fp, r3
 2306              	.LVL237:
 2307              	.L200:
 605:Src/draw.c    ****     {
 2308              		.loc 1 605 5 discriminator 1 view .LVU603
 2309 00fc BBF1020F 		cmp	fp, #2
 2310 0100 06D8     		bhi	.L205
 607:Src/draw.c    ****       for (uint8_t i = letter, idx = 0; i < strlen(frase); i++, idx++)
 2311              		.loc 1 607 7 is_stmt 1 view .LVU604
 2312 0102 FFF7FEFF 		bl	clearText
 2313              	.LVL238:
 608:Src/draw.c    ****       {
 2314              		.loc 1 608 7 view .LVU605
 2315              	.LBB59:
 608:Src/draw.c    ****       {
 2316              		.loc 1 608 12 view .LVU606
 608:Src/draw.c    ****       {
 2317              		.loc 1 608 20 is_stmt 0 view .LVU607
 2318 0106 0A9B     		ldr	r3, [sp, #40]
 2319 0108 0893     		str	r3, [sp, #32]
 608:Src/draw.c    ****       {
 2320              		.loc 1 608 32 view .LVU608
 2321 010a 0023     		movs	r3, #0
 2322 010c 0993     		str	r3, [sp, #36]
 608:Src/draw.c    ****       {
 2323              		.loc 1 608 7 view .LVU609
ARM GAS  /var/folders/hv/f19l0kw128sbpybv1h43gz3c0000gn/T//ccSiVDMR.s 			page 58


 2324 010e D2E7     		b	.L190
 2325              	.LVL239:
 2326              	.L205:
 608:Src/draw.c    ****       {
 2327              		.loc 1 608 7 view .LVU610
 2328 0110 D346     		mov	fp, r10
 2329              	.LVL240:
 608:Src/draw.c    ****       {
 2330              		.loc 1 608 7 view .LVU611
 2331 0112 CA46     		mov	r10, r9
 2332              	.LVL241:
 608:Src/draw.c    ****       {
 2333              		.loc 1 608 7 view .LVU612
 2334              	.LBE59:
 2335              	.LBE53:
 603:Src/draw.c    ****   {
 2336              		.loc 1 603 58 discriminator 2 view .LVU613
 2337 0114 0A9B     		ldr	r3, [sp, #40]
 2338 0116 0133     		adds	r3, r3, #1
 2339 0118 DBB2     		uxtb	r3, r3
 2340 011a 0A93     		str	r3, [sp, #40]
 2341              	.LVL242:
 2342              	.L189:
 603:Src/draw.c    ****   {
 2343              		.loc 1 603 37 discriminator 1 view .LVU614
 2344 011c 0598     		ldr	r0, [sp, #20]
 2345 011e FFF7FEFF 		bl	strlen
 2346              	.LVL243:
 603:Src/draw.c    ****   {
 2347              		.loc 1 603 3 discriminator 1 view .LVU615
 2348 0122 0A9B     		ldr	r3, [sp, #40]
 2349 0124 8342     		cmp	r3, r0
 2350 0126 06D2     		bcs	.L206
 2351              	.LBB60:
 605:Src/draw.c    ****     {
 2352              		.loc 1 605 18 view .LVU616
 2353 0128 4FF00009 		mov	r9, #0
 2354 012c 5346     		mov	r3, r10
 2355 012e DA46     		mov	r10, fp
 2356 0130 CB46     		mov	fp, r9
 2357              	.LVL244:
 605:Src/draw.c    ****     {
 2358              		.loc 1 605 18 view .LVU617
 2359 0132 9946     		mov	r9, r3
 2360 0134 E2E7     		b	.L200
 2361              	.LVL245:
 2362              	.L206:
 605:Src/draw.c    ****     {
 2363              		.loc 1 605 18 view .LVU618
 2364              	.LBE60:
 2365              	.LBE52:
 635:Src/draw.c    ****     }
 636:Src/draw.c    ****   }
 637:Src/draw.c    **** }...
 2366              		.loc 1 637 1 view .LVU619
 2367 0136 0DB0     		add	sp, sp, #52
 2368              	.LCFI28:
ARM GAS  /var/folders/hv/f19l0kw128sbpybv1h43gz3c0000gn/T//ccSiVDMR.s 			page 59


 2369              		.cfi_def_cfa_offset 36
 2370              		@ sp needed
 2371 0138 BDE8F08F 		pop	{r4, r5, r6, r7, r8, r9, r10, fp, pc}
 2372              	.LVL246:
 2373              	.L208:
 2374              		.loc 1 637 1 view .LVU620
 2375              		.align	2
 2376              	.L207:
 2377 013c 00000000 		.word	textColor
 2378 0140 00000000 		.word	textLayer
 2379              		.cfi_endproc
 2380              	.LFE82:
 2382              		.global	font4x6
 2383              		.global	arrColor
 2384              		.global	arr
 2385              		.global	letterColor
 2386              		.global	currColor
 2387              		.comm	WS2812_IO_framedata,8640,4
 2388              		.comm	noteBuffer,60,4
 2389              		.comm	note,3,4
 2390              		.comm	textColor,3,4
 2391              		.comm	backColor,3,4
 2392              		.comm	textLayer,6075,4
 2393              		.comm	backLayer,6075,4
 2394              		.section	.rodata
 2395              		.align	2
 2396              		.set	.LANCHOR2,. + 0
 2397              	.LC0:
 2398 0000 01       		.byte	1
 2399 0001 01       		.byte	1
 2400 0002 05       		.byte	5
 2401 0003 00       		.space	1
 2402              	.LC1:
 2403 0004 05       		.byte	5
 2404 0005 01       		.byte	1
 2405 0006 01       		.byte	1
 2406 0007 00       		.space	1
 2407              	.LC2:
 2408 0008 01       		.byte	1
 2409 0009 05       		.byte	5
 2410 000a 01       		.byte	1
 2411              		.section	.bss.arr,"aw",%nobits
 2412              		.align	2
 2415              	arr:
 2416 0000 000000   		.space	3
 2417              		.section	.data.arrColor,"aw"
 2418              		.align	2
 2419              		.set	.LANCHOR0,. + 0
 2422              	arrColor:
 2423 0000 32       		.byte	50
 2424 0001 00       		.byte	0
 2425 0002 00       		.byte	0
 2426 0003 32       		.byte	50
 2427 0004 19       		.byte	25
 2428 0005 00       		.byte	0
 2429 0006 32       		.byte	50
 2430 0007 32       		.byte	50
ARM GAS  /var/folders/hv/f19l0kw128sbpybv1h43gz3c0000gn/T//ccSiVDMR.s 			page 60


 2431 0008 00       		.byte	0
 2432 0009 32       		.byte	50
 2433 000a 26       		.byte	38
 2434 000b 00       		.byte	0
 2435 000c 00       		.byte	0
 2436 000d 32       		.byte	50
 2437 000e 24       		.byte	36
 2438 000f 19       		.byte	25
 2439 0010 00       		.byte	0
 2440 0011 32       		.byte	50
 2441 0012 32       		.byte	50
 2442 0013 00       		.byte	0
 2443 0014 19       		.byte	25
 2444 0015 32       		.byte	50
 2445 0016 00       		.byte	0
 2446 0017 32       		.byte	50
 2447 0018 00       		.byte	0
 2448 0019 00       		.byte	0
 2449 001a 28       		.byte	40
 2450 001b 1E       		.byte	30
 2451 001c 1E       		.byte	30
 2452 001d 1E       		.byte	30
 2453 001e 3C       		.byte	60
 2454 001f 3C       		.byte	60
 2455 0020 14       		.byte	20
 2456 0021 3C       		.byte	60
 2457 0022 1E       		.byte	30
 2458 0023 14       		.byte	20
 2459 0024 00       		.byte	0
 2460 0025 00       		.byte	0
 2461 0026 00       		.byte	0
 2462              		.section	.data.currColor,"aw"
 2463              		.align	2
 2466              	currColor:
 2467 0000 3C       		.byte	60
 2468 0001 19       		.byte	25
 2469 0002 00       		.byte	0
 2470              		.section	.data.letterColor,"aw"
 2471              		.align	2
 2474              	letterColor:
 2475 0000 00       		.byte	0
 2476 0001 0A       		.byte	10
 2477 0002 00       		.byte	0
 2478              		.section	.rodata.font4x6,"a"
 2479              		.align	2
 2480              		.set	.LANCHOR1,. + 0
 2483              	font4x6:
 2484 0000 00       		.byte	0
 2485 0001 00       		.byte	0
 2486 0002 49       		.byte	73
 2487 0003 08       		.byte	8
 2488 0004 B4       		.byte	-76
 2489 0005 00       		.byte	0
 2490 0006 BE       		.byte	-66
 2491 0007 F6       		.byte	-10
 2492 0008 7B       		.byte	123
 2493 0009 7A       		.byte	122
ARM GAS  /var/folders/hv/f19l0kw128sbpybv1h43gz3c0000gn/T//ccSiVDMR.s 			page 61


 2494 000a A5       		.byte	-91
 2495 000b 94       		.byte	-108
 2496 000c 55       		.byte	85
 2497 000d B8       		.byte	-72
 2498 000e 48       		.byte	72
 2499 000f 00       		.byte	0
 2500 0010 29       		.byte	41
 2501 0011 44       		.byte	68
 2502 0012 44       		.byte	68
 2503 0013 2A       		.byte	42
 2504 0014 15       		.byte	21
 2505 0015 A0       		.byte	-96
 2506 0016 0B       		.byte	11
 2507 0017 42       		.byte	66
 2508 0018 00       		.byte	0
 2509 0019 50       		.byte	80
 2510 001a 03       		.byte	3
 2511 001b 02       		.byte	2
 2512 001c 00       		.byte	0
 2513 001d 08       		.byte	8
 2514 001e 25       		.byte	37
 2515 001f 90       		.byte	-112
 2516 0020 76       		.byte	118
 2517 0021 BA       		.byte	-70
 2518 0022 59       		.byte	89
 2519 0023 5C       		.byte	92
 2520 0024 C5       		.byte	-59
 2521 0025 9E       		.byte	-98
 2522 0026 C5       		.byte	-59
 2523 0027 38       		.byte	56
 2524 0028 92       		.byte	-110
 2525 0029 E6       		.byte	-26
 2526 002a F3       		.byte	-13
 2527 002b 3A       		.byte	58
 2528 002c 73       		.byte	115
 2529 002d BA       		.byte	-70
 2530 002e E5       		.byte	-27
 2531 002f 90       		.byte	-112
 2532 0030 77       		.byte	119
 2533 0031 BA       		.byte	-70
 2534 0032 77       		.byte	119
 2535 0033 3A       		.byte	58
 2536 0034 08       		.byte	8
 2537 0035 40       		.byte	64
 2538 0036 08       		.byte	8
 2539 0037 50       		.byte	80
 2540 0038 2A       		.byte	42
 2541 0039 44       		.byte	68
 2542 003a 1C       		.byte	28
 2543 003b E0       		.byte	-32
 2544 003c 88       		.byte	-120
 2545 003d 52       		.byte	82
 2546 003e E5       		.byte	-27
 2547 003f 08       		.byte	8
 2548 0040 56       		.byte	86
 2549 0041 8E       		.byte	-114
 2550 0042 77       		.byte	119
ARM GAS  /var/folders/hv/f19l0kw128sbpybv1h43gz3c0000gn/T//ccSiVDMR.s 			page 62


 2551 0043 B6       		.byte	-74
 2552 0044 77       		.byte	119
 2553 0045 B8       		.byte	-72
 2554 0046 72       		.byte	114
 2555 0047 8C       		.byte	-116
 2556 0048 D6       		.byte	-42
 2557 0049 BA       		.byte	-70
 2558 004a 73       		.byte	115
 2559 004b 9E       		.byte	-98
 2560 004c 73       		.byte	115
 2561 004d 92       		.byte	-110
 2562 004e 72       		.byte	114
 2563 004f AE       		.byte	-82
 2564 0050 B7       		.byte	-73
 2565 0051 B6       		.byte	-74
 2566 0052 E9       		.byte	-23
 2567 0053 5C       		.byte	92
 2568 0054 64       		.byte	100
 2569 0055 AA       		.byte	-86
 2570 0056 B7       		.byte	-73
 2571 0057 B4       		.byte	-76
 2572 0058 92       		.byte	-110
 2573 0059 9C       		.byte	-100
 2574 005a BE       		.byte	-66
 2575 005b B6       		.byte	-74
 2576 005c D6       		.byte	-42
 2577 005d B6       		.byte	-74
 2578 005e 56       		.byte	86
 2579 005f AA       		.byte	-86
 2580 0060 D7       		.byte	-41
 2581 0061 92       		.byte	-110
 2582 0062 76       		.byte	118
 2583 0063 EE       		.byte	-18
 2584 0064 77       		.byte	119
 2585 0065 B4       		.byte	-76
 2586 0066 71       		.byte	113
 2587 0067 38       		.byte	56
 2588 0068 E9       		.byte	-23
 2589 0069 48       		.byte	72
 2590 006a B6       		.byte	-74
 2591 006b AE       		.byte	-82
 2592 006c B6       		.byte	-74
 2593 006d AA       		.byte	-86
 2594 006e B6       		.byte	-74
 2595 006f F6       		.byte	-10
 2596 0070 B5       		.byte	-75
 2597 0071 B4       		.byte	-76
 2598 0072 B5       		.byte	-75
 2599 0073 48       		.byte	72
 2600 0074 E5       		.byte	-27
 2601 0075 9C       		.byte	-100
 2602 0076 69       		.byte	105
 2603 0077 4C       		.byte	76
 2604 0078 91       		.byte	-111
 2605 0079 24       		.byte	36
 2606 007a 64       		.byte	100
 2607 007b 2E       		.byte	46
ARM GAS  /var/folders/hv/f19l0kw128sbpybv1h43gz3c0000gn/T//ccSiVDMR.s 			page 63


 2608 007c 54       		.byte	84
 2609 007d 00       		.byte	0
 2610 007e 00       		.byte	0
 2611 007f 1C       		.byte	28
 2612 0080 44       		.byte	68
 2613 0081 00       		.byte	0
 2614 0082 0E       		.byte	14
 2615 0083 AE       		.byte	-82
 2616 0084 9A       		.byte	-102
 2617 0085 BA       		.byte	-70
 2618 0086 0E       		.byte	14
 2619 0087 8C       		.byte	-116
 2620 0088 2E       		.byte	46
 2621 0089 AE       		.byte	-82
 2622 008a 0E       		.byte	14
 2623 008b CE       		.byte	-50
 2624 008c 56       		.byte	86
 2625 008d D0       		.byte	-48
 2626 008e 55       		.byte	85
 2627 008f 3B       		.byte	59
 2628 0090 93       		.byte	-109
 2629 0091 B4       		.byte	-76
 2630 0092 41       		.byte	65
 2631 0093 44       		.byte	68
 2632 0094 41       		.byte	65
 2633 0095 51       		.byte	81
 2634 0096 97       		.byte	-105
 2635 0097 B4       		.byte	-76
 2636 0098 49       		.byte	73
 2637 0099 44       		.byte	68
 2638 009a 17       		.byte	23
 2639 009b B6       		.byte	-74
 2640 009c 1A       		.byte	26
 2641 009d B6       		.byte	-74
 2642 009e 0A       		.byte	10
 2643 009f AA       		.byte	-86
 2644 00a0 D6       		.byte	-42
 2645 00a1 D3       		.byte	-45
 2646 00a2 76       		.byte	118
 2647 00a3 67       		.byte	103
 2648 00a4 17       		.byte	23
 2649 00a5 90       		.byte	-112
 2650 00a6 0F       		.byte	15
 2651 00a7 38       		.byte	56
 2652 00a8 9A       		.byte	-102
 2653 00a9 8C       		.byte	-116
 2654 00aa 16       		.byte	22
 2655 00ab AE       		.byte	-82
 2656 00ac 16       		.byte	22
 2657 00ad BA       		.byte	-70
 2658 00ae 16       		.byte	22
 2659 00af F6       		.byte	-10
 2660 00b0 15       		.byte	21
 2661 00b1 B4       		.byte	-76
 2662 00b2 B5       		.byte	-75
 2663 00b3 2B       		.byte	43
 2664 00b4 1C       		.byte	28
ARM GAS  /var/folders/hv/f19l0kw128sbpybv1h43gz3c0000gn/T//ccSiVDMR.s 			page 64


 2665 00b5 5E       		.byte	94
 2666 00b6 6B       		.byte	107
 2667 00b7 4C       		.byte	76
 2668 00b8 49       		.byte	73
 2669 00b9 48       		.byte	72
 2670 00ba C9       		.byte	-55
 2671 00bb 5A       		.byte	90
 2672 00bc 54       		.byte	84
 2673 00bd 00       		.byte	0
 2674 00be 56       		.byte	86
 2675 00bf E2       		.byte	-30
 2676              		.text
 2677              	.Letext0:
 2678              		.file 2 "/Users/luissousa/opt/gcc-arm-none-eabi-8-2018-q4-major/arm-none-eabi/include/machine/_def
 2679              		.file 3 "/Users/luissousa/opt/gcc-arm-none-eabi-8-2018-q4-major/arm-none-eabi/include/sys/_stdint.
 2680              		.file 4 "/Users/luissousa/opt/gcc-arm-none-eabi-8-2018-q4-major/lib/gcc/arm-none-eabi/8.2.1/includ
 2681              		.file 5 "/Users/luissousa/opt/gcc-arm-none-eabi-8-2018-q4-major/arm-none-eabi/include/sys/lock.h"
 2682              		.file 6 "/Users/luissousa/opt/gcc-arm-none-eabi-8-2018-q4-major/arm-none-eabi/include/sys/_types.h
 2683              		.file 7 "/Users/luissousa/opt/gcc-arm-none-eabi-8-2018-q4-major/arm-none-eabi/include/sys/reent.h"
 2684              		.file 8 "Drivers/CMSIS/Include/core_cm3.h"
 2685              		.file 9 "Drivers/CMSIS/Device/ST/STM32F1xx/Include/system_stm32f1xx.h"
 2686              		.file 10 "Src/definitions.h"
 2687              		.file 11 "Src/notes.h"
 2688              		.file 12 "Src/ws2812.h"
 2689              		.file 13 "/Users/luissousa/opt/gcc-arm-none-eabi-8-2018-q4-major/arm-none-eabi/include/string.h"
 2690              		.file 14 "Drivers/STM32F1xx_HAL_Driver/Inc/stm32f1xx_ll_utils.h"
ARM GAS  /var/folders/hv/f19l0kw128sbpybv1h43gz3c0000gn/T//ccSiVDMR.s 			page 65


DEFINED SYMBOLS
                            *ABS*:0000000000000000 draw.c
/var/folders/hv/f19l0kw128sbpybv1h43gz3c0000gn/T//ccSiVDMR.s:16     .text.fillFramebuffer:0000000000000000 $t
/var/folders/hv/f19l0kw128sbpybv1h43gz3c0000gn/T//ccSiVDMR.s:24     .text.fillFramebuffer:0000000000000000 fillFramebuffer
/var/folders/hv/f19l0kw128sbpybv1h43gz3c0000gn/T//ccSiVDMR.s:220    .text.fillFramebuffer:00000000000000b8 $d
                            *COM*:00000000000017bb textLayer
                            *COM*:00000000000017bb backLayer
/var/folders/hv/f19l0kw128sbpybv1h43gz3c0000gn/T//ccSiVDMR.s:226    .text.clearBack:0000000000000000 $t
/var/folders/hv/f19l0kw128sbpybv1h43gz3c0000gn/T//ccSiVDMR.s:233    .text.clearBack:0000000000000000 clearBack
/var/folders/hv/f19l0kw128sbpybv1h43gz3c0000gn/T//ccSiVDMR.s:306    .text.clearBack:0000000000000034 $d
/var/folders/hv/f19l0kw128sbpybv1h43gz3c0000gn/T//ccSiVDMR.s:312    .text.clearText:0000000000000000 $t
/var/folders/hv/f19l0kw128sbpybv1h43gz3c0000gn/T//ccSiVDMR.s:319    .text.clearText:0000000000000000 clearText
/var/folders/hv/f19l0kw128sbpybv1h43gz3c0000gn/T//ccSiVDMR.s:392    .text.clearText:0000000000000034 $d
/var/folders/hv/f19l0kw128sbpybv1h43gz3c0000gn/T//ccSiVDMR.s:398    .text.clearFramebuffer:0000000000000000 $t
/var/folders/hv/f19l0kw128sbpybv1h43gz3c0000gn/T//ccSiVDMR.s:405    .text.clearFramebuffer:0000000000000000 clearFramebuffer
/var/folders/hv/f19l0kw128sbpybv1h43gz3c0000gn/T//ccSiVDMR.s:516    .text.clearFramebuffer:0000000000000064 $d
/var/folders/hv/f19l0kw128sbpybv1h43gz3c0000gn/T//ccSiVDMR.s:521    .text.drawColor:0000000000000000 $t
/var/folders/hv/f19l0kw128sbpybv1h43gz3c0000gn/T//ccSiVDMR.s:528    .text.drawColor:0000000000000000 drawColor
/var/folders/hv/f19l0kw128sbpybv1h43gz3c0000gn/T//ccSiVDMR.s:598    .text.drawColor:0000000000000034 $d
/var/folders/hv/f19l0kw128sbpybv1h43gz3c0000gn/T//ccSiVDMR.s:609    .text.drawCircleNote:0000000000000000 $t
/var/folders/hv/f19l0kw128sbpybv1h43gz3c0000gn/T//ccSiVDMR.s:616    .text.drawCircleNote:0000000000000000 drawCircleNote
/var/folders/hv/f19l0kw128sbpybv1h43gz3c0000gn/T//ccSiVDMR.s:850    .text.drawCircleNote:00000000000000f0 $d
                            *COM*:000000000000003c noteBuffer
/var/folders/hv/f19l0kw128sbpybv1h43gz3c0000gn/T//ccSiVDMR.s:858    .text.drawCircleNoteGrad:0000000000000000 $t
/var/folders/hv/f19l0kw128sbpybv1h43gz3c0000gn/T//ccSiVDMR.s:865    .text.drawCircleNoteGrad:0000000000000000 drawCircleNoteGrad
/var/folders/hv/f19l0kw128sbpybv1h43gz3c0000gn/T//ccSiVDMR.s:1147   .text.drawCircleNoteGrad:0000000000000124 $d
/var/folders/hv/f19l0kw128sbpybv1h43gz3c0000gn/T//ccSiVDMR.s:1156   .text.drawLine:0000000000000000 $t
/var/folders/hv/f19l0kw128sbpybv1h43gz3c0000gn/T//ccSiVDMR.s:1163   .text.drawLine:0000000000000000 drawLine
/var/folders/hv/f19l0kw128sbpybv1h43gz3c0000gn/T//ccSiVDMR.s:1249   .text.drawLine:0000000000000044 $d
/var/folders/hv/f19l0kw128sbpybv1h43gz3c0000gn/T//ccSiVDMR.s:1254   .text.drawPixel:0000000000000000 $t
/var/folders/hv/f19l0kw128sbpybv1h43gz3c0000gn/T//ccSiVDMR.s:1261   .text.drawPixel:0000000000000000 drawPixel
/var/folders/hv/f19l0kw128sbpybv1h43gz3c0000gn/T//ccSiVDMR.s:1345   .text.drawPixel:0000000000000044 $d
/var/folders/hv/f19l0kw128sbpybv1h43gz3c0000gn/T//ccSiVDMR.s:1350   .text.getFontLine:0000000000000000 $t
/var/folders/hv/f19l0kw128sbpybv1h43gz3c0000gn/T//ccSiVDMR.s:1357   .text.getFontLine:0000000000000000 getFontLine
/var/folders/hv/f19l0kw128sbpybv1h43gz3c0000gn/T//ccSiVDMR.s:1466   .text.getFontLine:0000000000000060 $d
/var/folders/hv/f19l0kw128sbpybv1h43gz3c0000gn/T//ccSiVDMR.s:1471   .text.drawLetter:0000000000000000 $t
/var/folders/hv/f19l0kw128sbpybv1h43gz3c0000gn/T//ccSiVDMR.s:1478   .text.drawLetter:0000000000000000 drawLetter
/var/folders/hv/f19l0kw128sbpybv1h43gz3c0000gn/T//ccSiVDMR.s:1619   .text.drawLetter:0000000000000080 $d
                            *COM*:0000000000000003 textColor
/var/folders/hv/f19l0kw128sbpybv1h43gz3c0000gn/T//ccSiVDMR.s:1625   .text.drawNote:0000000000000000 $t
/var/folders/hv/f19l0kw128sbpybv1h43gz3c0000gn/T//ccSiVDMR.s:1632   .text.drawNote:0000000000000000 drawNote
/var/folders/hv/f19l0kw128sbpybv1h43gz3c0000gn/T//ccSiVDMR.s:1750   .text.drawNote:000000000000008c $d
                            *COM*:0000000000000003 note
/var/folders/hv/f19l0kw128sbpybv1h43gz3c0000gn/T//ccSiVDMR.s:1758   .text.drawString:0000000000000000 $t
/var/folders/hv/f19l0kw128sbpybv1h43gz3c0000gn/T//ccSiVDMR.s:1765   .text.drawString:0000000000000000 drawString
/var/folders/hv/f19l0kw128sbpybv1h43gz3c0000gn/T//ccSiVDMR.s:1881   .text.drawStringArray:0000000000000000 $t
/var/folders/hv/f19l0kw128sbpybv1h43gz3c0000gn/T//ccSiVDMR.s:1888   .text.drawStringArray:0000000000000000 drawStringArray
/var/folders/hv/f19l0kw128sbpybv1h43gz3c0000gn/T//ccSiVDMR.s:2059   .text.drawStringArray:0000000000000090 $d
/var/folders/hv/f19l0kw128sbpybv1h43gz3c0000gn/T//ccSiVDMR.s:2064   .text.drawScrollingString:0000000000000000 $t
/var/folders/hv/f19l0kw128sbpybv1h43gz3c0000gn/T//ccSiVDMR.s:2071   .text.drawScrollingString:0000000000000000 drawScrollingString
/var/folders/hv/f19l0kw128sbpybv1h43gz3c0000gn/T//ccSiVDMR.s:2377   .text.drawScrollingString:000000000000013c $d
/var/folders/hv/f19l0kw128sbpybv1h43gz3c0000gn/T//ccSiVDMR.s:2483   .rodata.font4x6:0000000000000000 font4x6
/var/folders/hv/f19l0kw128sbpybv1h43gz3c0000gn/T//ccSiVDMR.s:2422   .data.arrColor:0000000000000000 arrColor
/var/folders/hv/f19l0kw128sbpybv1h43gz3c0000gn/T//ccSiVDMR.s:2415   .bss.arr:0000000000000000 arr
/var/folders/hv/f19l0kw128sbpybv1h43gz3c0000gn/T//ccSiVDMR.s:2474   .data.letterColor:0000000000000000 letterColor
/var/folders/hv/f19l0kw128sbpybv1h43gz3c0000gn/T//ccSiVDMR.s:2466   .data.currColor:0000000000000000 currColor
                            *COM*:00000000000021c0 WS2812_IO_framedata
ARM GAS  /var/folders/hv/f19l0kw128sbpybv1h43gz3c0000gn/T//ccSiVDMR.s 			page 66


                            *COM*:0000000000000003 backColor
/var/folders/hv/f19l0kw128sbpybv1h43gz3c0000gn/T//ccSiVDMR.s:2395   .rodata:0000000000000000 $d
/var/folders/hv/f19l0kw128sbpybv1h43gz3c0000gn/T//ccSiVDMR.s:2412   .bss.arr:0000000000000000 $d
/var/folders/hv/f19l0kw128sbpybv1h43gz3c0000gn/T//ccSiVDMR.s:2418   .data.arrColor:0000000000000000 $d
/var/folders/hv/f19l0kw128sbpybv1h43gz3c0000gn/T//ccSiVDMR.s:2463   .data.currColor:0000000000000000 $d
/var/folders/hv/f19l0kw128sbpybv1h43gz3c0000gn/T//ccSiVDMR.s:2471   .data.letterColor:0000000000000000 $d
/var/folders/hv/f19l0kw128sbpybv1h43gz3c0000gn/T//ccSiVDMR.s:2479   .rodata.font4x6:0000000000000000 $d

UNDEFINED SYMBOLS
setColorFB
WS2812_framedata_setPixel
setColor
__aeabi_i2f
__aeabi_fdiv
__aeabi_fsub
__aeabi_fmul
__aeabi_fcmple
__aeabi_fcmpge
setTextColor
strlen
getNoteBuffer
WS2812_sendbuf
LL_mDelay
