ARM GAS  /var/folders/hv/f19l0kw128sbpybv1h43gz3c0000gn/T//ccsxUPDV.s 			page 1


   1              		.cpu cortex-m3
   2              		.eabi_attribute 20, 1
   3              		.eabi_attribute 21, 1
   4              		.eabi_attribute 23, 3
   5              		.eabi_attribute 24, 1
   6              		.eabi_attribute 25, 1
   7              		.eabi_attribute 26, 1
   8              		.eabi_attribute 30, 1
   9              		.eabi_attribute 34, 1
  10              		.eabi_attribute 18, 4
  11              		.file	"draw.c"
  12              		.text
  13              	.Ltext0:
  14              		.cfi_sections	.debug_frame
  15              		.section	.text.fillFramebuffer,"ax",%progbits
  16              		.align	1
  17              		.global	fillFramebuffer
  18              		.arch armv7-m
  19              		.syntax unified
  20              		.thumb
  21              		.thumb_func
  22              		.fpu softvfp
  24              	fillFramebuffer:
  25              	.LFB69:
  26              		.file 1 "Src/draw.c"
   1:Src/draw.c    **** #include "stdint.h"
   2:Src/draw.c    **** #include "string.h"
   3:Src/draw.c    **** #include "stm32f1xx_ll_utils.h"
   4:Src/draw.c    **** #include "definitions.h"
   5:Src/draw.c    **** #include "notes.h"
   6:Src/draw.c    **** #include "ws2812.h"
   7:Src/draw.c    **** #include "draw.h"
   8:Src/draw.c    **** 
   9:Src/draw.c    **** uint8_t currColor[3] = {60, 25, 0};
  10:Src/draw.c    **** uint8_t letterColor[3] = {0, 10, 0};
  11:Src/draw.c    **** 
  12:Src/draw.c    **** volatile uint8_t arr[3] = {0, 0, 0};
  13:Src/draw.c    **** uint8_t arrColor[13][3] = {
  14:Src/draw.c    ****     {50, 0, 0},   //red ~~
  15:Src/draw.c    ****     {50, 25, 0},  //orange ~~
  16:Src/draw.c    ****     {50, 50, 0},  //amarelo ~~
  17:Src/draw.c    ****     {50, 38, 0},  //castanho ~~
  18:Src/draw.c    ****     {0, 50, 36},  //azul turquesa ~~
  19:Src/draw.c    ****     {25, 0, 50},  //cor de rosa ~~
  20:Src/draw.c    ****     {50, 0, 25},  //rosa choque ~~
  21:Src/draw.c    ****     {50, 0, 50},  //violeta escuro ~~
  22:Src/draw.c    ****     {0, 0, 40},   //azul escuro
  23:Src/draw.c    ****     {30, 30, 30}, //cinzento
  24:Src/draw.c    ****     {60, 60, 20}, //branca
  25:Src/draw.c    ****     {60, 30, 20}, //red magenta
  26:Src/draw.c    ****     {0, 0, 0}};
  27:Src/draw.c    **** 
  28:Src/draw.c    **** const uint8_t font4x6[96][2] = {
  29:Src/draw.c    ****     {0x00, 0x00}, /*SPACE*/
  30:Src/draw.c    ****     {0x49, 0x08}, /*'!'*/
  31:Src/draw.c    ****     {0xb4, 0x00}, /*'"'*/
  32:Src/draw.c    ****     {0xbe, 0xf6}, /*'#'*/
ARM GAS  /var/folders/hv/f19l0kw128sbpybv1h43gz3c0000gn/T//ccsxUPDV.s 			page 2


  33:Src/draw.c    ****     {0x7b, 0x7a}, /*'$'*/
  34:Src/draw.c    ****     {0xa5, 0x94}, /*'%'*/
  35:Src/draw.c    ****     {0x55, 0xb8}, /*'&'*/
  36:Src/draw.c    ****     {0x48, 0x00}, /*'''*/
  37:Src/draw.c    ****     {0x29, 0x44}, /*'('*/
  38:Src/draw.c    ****     {0x44, 0x2a}, /*')'*/
  39:Src/draw.c    ****     {0x15, 0xa0}, /*'*'*/
  40:Src/draw.c    ****     {0x0b, 0x42}, /*'+'*/
  41:Src/draw.c    ****     {0x00, 0x50}, /*','*/
  42:Src/draw.c    ****     {0x03, 0x02}, /*'-'*/
  43:Src/draw.c    ****     {0x00, 0x08}, /*'.'*/
  44:Src/draw.c    ****     {0x25, 0x90}, /*'/'*/
  45:Src/draw.c    ****     {0x76, 0xba}, /*'0'*/
  46:Src/draw.c    ****     {0x59, 0x5c}, /*'1'*/
  47:Src/draw.c    ****     {0xc5, 0x9e}, /*'2'*/
  48:Src/draw.c    ****     {0xc5, 0x38}, /*'3'*/
  49:Src/draw.c    ****     {0x92, 0xe6}, /*'4'*/
  50:Src/draw.c    ****     {0xf3, 0x3a}, /*'5'*/
  51:Src/draw.c    ****     {0x73, 0xba}, /*'6'*/
  52:Src/draw.c    ****     {0xe5, 0x90}, /*'7'*/
  53:Src/draw.c    ****     {0x77, 0xba}, /*'8'*/
  54:Src/draw.c    ****     {0x77, 0x3a}, /*'9'*/
  55:Src/draw.c    ****     {0x08, 0x40}, /*':'*/
  56:Src/draw.c    ****     {0x08, 0x50}, /*';'*/
  57:Src/draw.c    ****     {0x2a, 0x44}, /*'<'*/
  58:Src/draw.c    ****     {0x1c, 0xe0}, /*'='*/
  59:Src/draw.c    ****     {0x88, 0x52}, /*'>'*/
  60:Src/draw.c    ****     {0xe5, 0x08}, /*'?'*/
  61:Src/draw.c    ****     {0x56, 0x8e}, /*'@'*/
  62:Src/draw.c    ****     {0x77, 0xb6}, /*'A'*/
  63:Src/draw.c    ****     {0x77, 0xb8}, /*'B'*/
  64:Src/draw.c    ****     {0x72, 0x8c}, /*'C'*/
  65:Src/draw.c    ****     {0xd6, 0xba}, /*'D'*/
  66:Src/draw.c    ****     {0x73, 0x9e}, /*'E'*/
  67:Src/draw.c    ****     {0x73, 0x92}, /*'F'*/
  68:Src/draw.c    ****     {0x72, 0xae}, /*'G'*/
  69:Src/draw.c    ****     {0xb7, 0xb6}, /*'H'*/
  70:Src/draw.c    ****     {0xe9, 0x5c}, /*'I'*/
  71:Src/draw.c    ****     {0x64, 0xaa}, /*'J'*/
  72:Src/draw.c    ****     {0xb7, 0xb4}, /*'K'*/
  73:Src/draw.c    ****     {0x92, 0x9c}, /*'L'*/
  74:Src/draw.c    ****     {0xbe, 0xb6}, /*'M'*/
  75:Src/draw.c    ****     {0xd6, 0xb6}, /*'N'*/
  76:Src/draw.c    ****     {0x56, 0xaa}, /*'O'*/
  77:Src/draw.c    ****     {0xd7, 0x92}, /*'P'*/
  78:Src/draw.c    ****     {0x76, 0xee}, /*'Q'*/
  79:Src/draw.c    ****     {0x77, 0xb4}, /*'R'*/
  80:Src/draw.c    ****     {0x71, 0x38}, /*'S'*/
  81:Src/draw.c    ****     {0xe9, 0x48}, /*'T'*/
  82:Src/draw.c    ****     {0xb6, 0xae}, /*'U'*/
  83:Src/draw.c    ****     {0xb6, 0xaa}, /*'V'*/
  84:Src/draw.c    ****     {0xb6, 0xf6}, /*'W'*/
  85:Src/draw.c    ****     {0xb5, 0xb4}, /*'X'*/
  86:Src/draw.c    ****     {0xb5, 0x48}, /*'Y'*/
  87:Src/draw.c    ****     {0xe5, 0x9c}, /*'Z'*/
  88:Src/draw.c    ****     {0x69, 0x4c}, /*'['*/
  89:Src/draw.c    ****     {0x91, 0x24}, /*'\'*/
ARM GAS  /var/folders/hv/f19l0kw128sbpybv1h43gz3c0000gn/T//ccsxUPDV.s 			page 3


  90:Src/draw.c    ****     {0x64, 0x2e}, /*']'*/
  91:Src/draw.c    ****     {0x54, 0x00}, /*'^'*/
  92:Src/draw.c    ****     {0x00, 0x1c}, /*'_'*/
  93:Src/draw.c    ****     {0x44, 0x00}, /*'`'*/
  94:Src/draw.c    ****     {0x0e, 0xae}, /*'a'*/
  95:Src/draw.c    ****     {0x9a, 0xba}, /*'b'*/
  96:Src/draw.c    ****     {0x0e, 0x8c}, /*'c'*/
  97:Src/draw.c    ****     {0x2e, 0xae}, /*'d'*/
  98:Src/draw.c    ****     {0x0e, 0xce}, /*'e'*/
  99:Src/draw.c    ****     {0x56, 0xd0}, /*'f'*/
 100:Src/draw.c    ****     {0x55, 0x3B}, /*'g'*/
 101:Src/draw.c    ****     {0x93, 0xb4}, /*'h'*/
 102:Src/draw.c    ****     {0x41, 0x44}, /*'i'*/
 103:Src/draw.c    ****     {0x41, 0x51}, /*'j'*/
 104:Src/draw.c    ****     {0x97, 0xb4}, /*'k'*/
 105:Src/draw.c    ****     {0x49, 0x44}, /*'l'*/
 106:Src/draw.c    ****     {0x17, 0xb6}, /*'m'*/
 107:Src/draw.c    ****     {0x1a, 0xb6}, /*'n'*/
 108:Src/draw.c    ****     {0x0a, 0xaa}, /*'o'*/
 109:Src/draw.c    ****     {0xd6, 0xd3}, /*'p'*/
 110:Src/draw.c    ****     {0x76, 0x67}, /*'q'*/
 111:Src/draw.c    ****     {0x17, 0x90}, /*'r'*/
 112:Src/draw.c    ****     {0x0f, 0x38}, /*'s'*/
 113:Src/draw.c    ****     {0x9a, 0x8c}, /*'t'*/
 114:Src/draw.c    ****     {0x16, 0xae}, /*'u'*/
 115:Src/draw.c    ****     {0x16, 0xba}, /*'v'*/
 116:Src/draw.c    ****     {0x16, 0xf6}, /*'w'*/
 117:Src/draw.c    ****     {0x15, 0xb4}, /*'x'*/
 118:Src/draw.c    ****     {0xb5, 0x2b}, /*'y'*/
 119:Src/draw.c    ****     {0x1c, 0x5e}, /*'z'*/
 120:Src/draw.c    ****     {0x6b, 0x4c}, /*'{'*/
 121:Src/draw.c    ****     {0x49, 0x48}, /*'|'*/
 122:Src/draw.c    ****     {0xc9, 0x5a}, /*'}'*/
 123:Src/draw.c    ****     {0x54, 0x00}, /*'~'*/
 124:Src/draw.c    ****     {0x56, 0xe2}  /*''*/
 125:Src/draw.c    **** };
 126:Src/draw.c    **** 
 127:Src/draw.c    **** uint8_t orientation = 0;
 128:Src/draw.c    **** uint8_t MAX_DIV = 3;
 129:Src/draw.c    **** callback_type callback_function;
 130:Src/draw.c    **** 
 131:Src/draw.c    **** static inline uint8_t callback(int8_t x, int8_t y, float layer)
 132:Src/draw.c    **** {
 133:Src/draw.c    ****   if (callback_function)
 134:Src/draw.c    ****   {
 135:Src/draw.c    ****     return (*callback_function)(x, y, layer);
 136:Src/draw.c    ****   }
 137:Src/draw.c    ****   return 0;
 138:Src/draw.c    **** }
 139:Src/draw.c    **** 
 140:Src/draw.c    **** void fillFramebuffer(void)
 141:Src/draw.c    **** {
  27              		.loc 1 141 1 view -0
  28              		.cfi_startproc
  29              		@ args = 0, pretend = 0, frame = 16
  30              		@ frame_needed = 0, uses_anonymous_args = 0
  31 0000 2DE9F04F 		push	{r4, r5, r6, r7, r8, r9, r10, fp, lr}
ARM GAS  /var/folders/hv/f19l0kw128sbpybv1h43gz3c0000gn/T//ccsxUPDV.s 			page 4


  32              	.LCFI0:
  33              		.cfi_def_cfa_offset 36
  34              		.cfi_offset 4, -36
  35              		.cfi_offset 5, -32
  36              		.cfi_offset 6, -28
  37              		.cfi_offset 7, -24
  38              		.cfi_offset 8, -20
  39              		.cfi_offset 9, -16
  40              		.cfi_offset 10, -12
  41              		.cfi_offset 11, -8
  42              		.cfi_offset 14, -4
  43 0004 87B0     		sub	sp, sp, #28
  44              	.LCFI1:
  45              		.cfi_def_cfa_offset 64
 142:Src/draw.c    ****   uint8_t mod, tempPoint[3], invI, invJ, invX, tmp;
  46              		.loc 1 142 3 view .LVU1
 143:Src/draw.c    ****   uint16_t coords;
  47              		.loc 1 143 3 view .LVU2
 144:Src/draw.c    **** #if REVERSE_ORIENTATION
 145:Src/draw.c    ****   for (uint8_t x = 0; x < NCOLS; x++)
 146:Src/draw.c    ****   {
 147:Src/draw.c    ****     for (uint8_t i = 0; i < NCHANNELS; i++)
 148:Src/draw.c    ****     {
 149:Src/draw.c    ****       for (uint8_t j = 0; j < NLINESCH; j++)
 150:Src/draw.c    ****       {
 151:Src/draw.c    ****         mod = j % 2;
 152:Src/draw.c    ****         if ((j + (i * NLINESCH)) > NCOLSL)
 153:Src/draw.c    ****           break;
 154:Src/draw.c    ****         coords = j + (i * NLINESCH) + (x * NCOLS);
 155:Src/draw.c    **** 
 156:Src/draw.c    **** #if MIRROR_X
 157:Src/draw.c    ****         invX = mod ? NCOLSL - x : x;
 158:Src/draw.c    **** #if MIRROR_Y
 159:Src/draw.c    ****         invI = i;
 160:Src/draw.c    ****         invJ = j;
 161:Src/draw.c    **** #else
 162:Src/draw.c    ****         invI = NCHANNELS - 1 - i;
 163:Src/draw.c    ****         invJ = NLINESCH - 1 - j;
 164:Src/draw.c    **** #endif
 165:Src/draw.c    **** #else
 166:Src/draw.c    ****         invX = mod ? x : NCOLSL - x;
 167:Src/draw.c    **** #if MIRROR_Y
 168:Src/draw.c    ****         invI = NCHANNELS - 1 - i;
 169:Src/draw.c    ****         invJ = NLINESCH - 1 - j;
 170:Src/draw.c    **** #else
 171:Src/draw.c    ****         invI = i;
 172:Src/draw.c    ****         invJ = j;
 173:Src/draw.c    **** #endif
 174:Src/draw.c    **** #endif
 175:Src/draw.c    **** #else
 176:Src/draw.c    ****   for (uint8_t i = 0; i < NCHANNELS; i++)
  48              		.loc 1 176 3 view .LVU3
  49              	.LBB16:
  50              		.loc 1 176 8 view .LVU4
  51              	.LVL0:
  52              		.loc 1 176 16 is_stmt 0 view .LVU5
  53 0006 0026     		movs	r6, #0
ARM GAS  /var/folders/hv/f19l0kw128sbpybv1h43gz3c0000gn/T//ccsxUPDV.s 			page 5


  54              		.loc 1 176 3 view .LVU6
  55 0008 50E0     		b	.L2
  56              	.LVL1:
  57              	.L11:
  58              	.LBB17:
  59              	.LBB18:
 177:Src/draw.c    ****   {
 178:Src/draw.c    ****     for (uint8_t j = 0; j < NLINESCH; j++)
 179:Src/draw.c    ****     {
 180:Src/draw.c    ****       mod = j % 2;
 181:Src/draw.c    ****       for (uint8_t x = 0; x < NCOLS; x++)
 182:Src/draw.c    ****       {
 183:Src/draw.c    ****         if ((x + (j * NCOLS) + (i * NLEDSCH)) > NLEDSL)
 184:Src/draw.c    ****           break;
 185:Src/draw.c    ****         coords = x + (j * NCOLS) + (i * NLEDSCH);
 186:Src/draw.c    **** 
 187:Src/draw.c    **** #if MIRROR_X
 188:Src/draw.c    ****         invX = mod ? x : NCOLSL - x;
  60              		.loc 1 188 14 view .LVU7
  61 000a 2546     		mov	r5, r4
  62 000c 2BE0     		b	.L5
  63              	.LVL2:
  64              	.L6:
 189:Src/draw.c    **** #else
 190:Src/draw.c    ****         invX = mod ? NCOLSL - x : x;
 191:Src/draw.c    **** #endif
 192:Src/draw.c    **** #if MIRROR_Y
 193:Src/draw.c    ****         invI = NCHANNELS - 1 - i;
 194:Src/draw.c    ****         invJ = NLINESCH - 1 - j;
 195:Src/draw.c    **** #else
 196:Src/draw.c    ****         invI = i;
 197:Src/draw.c    ****         invJ = j;
 198:Src/draw.c    **** #endif
 199:Src/draw.c    **** #endif
 200:Src/draw.c    **** #if COLOR_1BIT
 201:Src/draw.c    ****         tmp = BIT_CHECK(textLayer[DIV_8(coords)], REST_8(coords));
 202:Src/draw.c    ****         if (tmp)
 203:Src/draw.c    ****           setColorFB(tempPoint, textColor);
 204:Src/draw.c    ****         else
 205:Src/draw.c    ****           setColorFB(tempPoint, backLayer[coords]);
  65              		.loc 1 205 11 is_stmt 1 view .LVU8
  66              		.loc 1 205 42 is_stmt 0 view .LVU9
  67 000e 01EB4101 		add	r1, r1, r1, lsl #1
  68              	.LVL3:
  69              		.loc 1 205 11 view .LVU10
  70 0012 2A4B     		ldr	r3, .L16
  71 0014 1944     		add	r1, r1, r3
  72 0016 05A8     		add	r0, sp, #20
  73 0018 FFF7FEFF 		bl	setColorFB
  74              	.LVL4:
  75              	.L7:
 206:Src/draw.c    **** #else
 207:Src/draw.c    ****         tmp = textLayer[coords][0] + textLayer[coords][1] + textLayer[coords][2];
 208:Src/draw.c    ****         if (tmp)
 209:Src/draw.c    ****           setColorFB(tempPoint, textLayer[coords]);
 210:Src/draw.c    ****         else
 211:Src/draw.c    ****           setColorFB(tempPoint, backLayer[coords]);
ARM GAS  /var/folders/hv/f19l0kw128sbpybv1h43gz3c0000gn/T//ccsxUPDV.s 			page 6


 212:Src/draw.c    **** #endif
 213:Src/draw.c    ****         WS2812_framedata_setPixel(invI, invX + (invJ * NCOLS), tempPoint[0], tempPoint[1], tempPoin
  76              		.loc 1 213 9 is_stmt 1 discriminator 2 view .LVU11
  77 001c 05EB0711 		add	r1, r5, r7, lsl #4
  78 0020 9DF81630 		ldrb	r3, [sp, #22]	@ zero_extendqisi2
  79 0024 0093     		str	r3, [sp]
  80 0026 9DF81530 		ldrb	r3, [sp, #21]	@ zero_extendqisi2
  81 002a 9DF81420 		ldrb	r2, [sp, #20]	@ zero_extendqisi2
  82 002e 89B2     		uxth	r1, r1
  83 0030 3046     		mov	r0, r6
  84 0032 FFF7FEFF 		bl	WS2812_framedata_setPixel
  85              	.LVL5:
 181:Src/draw.c    ****       {
  86              		.loc 1 181 39 is_stmt 0 discriminator 2 view .LVU12
  87 0036 0134     		adds	r4, r4, #1
  88              	.LVL6:
 181:Src/draw.c    ****       {
  89              		.loc 1 181 39 discriminator 2 view .LVU13
  90 0038 E4B2     		uxtb	r4, r4
  91              	.LVL7:
  92              	.L3:
 181:Src/draw.c    ****       {
  93              		.loc 1 181 7 discriminator 1 view .LVU14
  94 003a 0F2C     		cmp	r4, #15
  95 003c 29D8     		bhi	.L4
 183:Src/draw.c    ****           break;
  96              		.loc 1 183 9 is_stmt 1 view .LVU15
 183:Src/draw.c    ****           break;
  97              		.loc 1 183 16 is_stmt 0 view .LVU16
  98 003e 04EB0A13 		add	r3, r4, r10, lsl #4
 183:Src/draw.c    ****           break;
  99              		.loc 1 183 30 view .LVU17
 100 0042 03EB4613 		add	r3, r3, r6, lsl #5
 183:Src/draw.c    ****           break;
 101              		.loc 1 183 12 view .LVU18
 102 0046 FF2B     		cmp	r3, #255
 103 0048 23DC     		bgt	.L4
 185:Src/draw.c    **** 
 104              		.loc 1 185 9 is_stmt 1 view .LVU19
 185:Src/draw.c    **** 
 105              		.loc 1 185 34 is_stmt 0 view .LVU20
 106 004a 1FFA8AF7 		uxth	r7, r10
 107 004e 07EB4601 		add	r1, r7, r6, lsl #1
 108 0052 0901     		lsls	r1, r1, #4
 109 0054 89B2     		uxth	r1, r1
 185:Src/draw.c    **** 
 110              		.loc 1 185 16 view .LVU21
 111 0056 2144     		add	r1, r1, r4
 112 0058 89B2     		uxth	r1, r1
 113              	.LVL8:
 188:Src/draw.c    **** #else
 114              		.loc 1 188 9 is_stmt 1 view .LVU22
 188:Src/draw.c    **** #else
 115              		.loc 1 188 14 is_stmt 0 view .LVU23
 116 005a BBF1000F 		cmp	fp, #0
 117 005e D4D1     		bne	.L11
 188:Src/draw.c    **** #else
ARM GAS  /var/folders/hv/f19l0kw128sbpybv1h43gz3c0000gn/T//ccsxUPDV.s 			page 7


 118              		.loc 1 188 14 discriminator 1 view .LVU24
 119 0060 C4F10F05 		rsb	r5, r4, #15
 120 0064 EDB2     		uxtb	r5, r5
 121              	.L5:
 122              	.LVL9:
 196:Src/draw.c    ****         invJ = j;
 123              		.loc 1 196 9 is_stmt 1 discriminator 4 view .LVU25
 197:Src/draw.c    **** #endif
 124              		.loc 1 197 9 discriminator 4 view .LVU26
 201:Src/draw.c    ****         if (tmp)
 125              		.loc 1 201 9 discriminator 4 view .LVU27
 201:Src/draw.c    ****         if (tmp)
 126              		.loc 1 201 15 is_stmt 0 discriminator 4 view .LVU28
 127 0066 CB08     		lsrs	r3, r1, #3
 128 0068 154A     		ldr	r2, .L16+4
 129 006a D25C     		ldrb	r2, [r2, r3]	@ zero_extendqisi2
 130 006c 0023     		movs	r3, #0
 131 006e CDE90223 		strd	r2, [sp, #8]
 132 0072 01F00703 		and	r3, r1, #7
 133 0076 029A     		ldr	r2, [sp, #8]
 134 0078 DA40     		lsrs	r2, r2, r3
 135 007a 02F00108 		and	r8, r2, #1
 136 007e 4FF00009 		mov	r9, #0
 137              	.LVL10:
 202:Src/draw.c    ****           setColorFB(tempPoint, textColor);
 138              		.loc 1 202 9 is_stmt 1 discriminator 4 view .LVU29
 202:Src/draw.c    ****           setColorFB(tempPoint, textColor);
 139              		.loc 1 202 12 is_stmt 0 discriminator 4 view .LVU30
 140 0082 58EA0903 		orrs	r3, r8, r9
 141 0086 C2D0     		beq	.L6
 203:Src/draw.c    ****         else
 142              		.loc 1 203 11 is_stmt 1 view .LVU31
 143 0088 0E49     		ldr	r1, .L16+8
 144              	.LVL11:
 203:Src/draw.c    ****         else
 145              		.loc 1 203 11 is_stmt 0 view .LVU32
 146 008a 05A8     		add	r0, sp, #20
 147 008c FFF7FEFF 		bl	setColorFB
 148              	.LVL12:
 149 0090 C4E7     		b	.L7
 150              	.LVL13:
 151              	.L4:
 203:Src/draw.c    ****         else
 152              		.loc 1 203 11 view .LVU33
 153              	.LBE18:
 178:Src/draw.c    ****     {
 154              		.loc 1 178 40 discriminator 2 view .LVU34
 155 0092 0AF1010A 		add	r10, r10, #1
 156              	.LVL14:
 178:Src/draw.c    ****     {
 157              		.loc 1 178 40 discriminator 2 view .LVU35
 158 0096 5FFA8AFA 		uxtb	r10, r10
 159              	.LVL15:
 160              	.L10:
 178:Src/draw.c    ****     {
 161              		.loc 1 178 5 discriminator 1 view .LVU36
 162 009a BAF1010F 		cmp	r10, #1
ARM GAS  /var/folders/hv/f19l0kw128sbpybv1h43gz3c0000gn/T//ccsxUPDV.s 			page 8


 163 009e 03D8     		bhi	.L14
 180:Src/draw.c    ****       for (uint8_t x = 0; x < NCOLS; x++)
 164              		.loc 1 180 7 is_stmt 1 view .LVU37
 180:Src/draw.c    ****       for (uint8_t x = 0; x < NCOLS; x++)
 165              		.loc 1 180 11 is_stmt 0 view .LVU38
 166 00a0 0AF0010B 		and	fp, r10, #1
 167              	.LVL16:
 181:Src/draw.c    ****       {
 168              		.loc 1 181 7 is_stmt 1 view .LVU39
 169              	.LBB19:
 181:Src/draw.c    ****       {
 170              		.loc 1 181 12 view .LVU40
 181:Src/draw.c    ****       {
 171              		.loc 1 181 20 is_stmt 0 view .LVU41
 172 00a4 0024     		movs	r4, #0
 181:Src/draw.c    ****       {
 173              		.loc 1 181 7 view .LVU42
 174 00a6 C8E7     		b	.L3
 175              	.LVL17:
 176              	.L14:
 181:Src/draw.c    ****       {
 177              		.loc 1 181 7 view .LVU43
 178              	.LBE19:
 179              	.LBE17:
 176:Src/draw.c    ****   {
 180              		.loc 1 176 39 discriminator 2 view .LVU44
 181 00a8 0136     		adds	r6, r6, #1
 182              	.LVL18:
 176:Src/draw.c    ****   {
 183              		.loc 1 176 39 discriminator 2 view .LVU45
 184 00aa F6B2     		uxtb	r6, r6
 185              	.LVL19:
 186              	.L2:
 176:Src/draw.c    ****   {
 187              		.loc 1 176 3 discriminator 1 view .LVU46
 188 00ac 072E     		cmp	r6, #7
 189 00ae 02D8     		bhi	.L15
 190              	.LBB20:
 178:Src/draw.c    ****     {
 191              		.loc 1 178 18 view .LVU47
 192 00b0 4FF0000A 		mov	r10, #0
 193 00b4 F1E7     		b	.L10
 194              	.L15:
 195              	.LBE20:
 196              	.LBE16:
 214:Src/draw.c    ****       }
 215:Src/draw.c    ****     }
 216:Src/draw.c    ****   }
 217:Src/draw.c    **** }
 197              		.loc 1 217 1 view .LVU48
 198 00b6 07B0     		add	sp, sp, #28
 199              	.LCFI2:
 200              		.cfi_def_cfa_offset 36
 201              		@ sp needed
 202 00b8 BDE8F08F 		pop	{r4, r5, r6, r7, r8, r9, r10, fp, pc}
 203              	.LVL20:
 204              	.L17:
ARM GAS  /var/folders/hv/f19l0kw128sbpybv1h43gz3c0000gn/T//ccsxUPDV.s 			page 9


 205              		.loc 1 217 1 view .LVU49
 206              		.align	2
 207              	.L16:
 208 00bc 00000000 		.word	backLayer
 209 00c0 00000000 		.word	textLayer
 210 00c4 00000000 		.word	textColor
 211              		.cfi_endproc
 212              	.LFE69:
 214              		.section	.text.clearBack,"ax",%progbits
 215              		.align	1
 216              		.global	clearBack
 217              		.syntax unified
 218              		.thumb
 219              		.thumb_func
 220              		.fpu softvfp
 222              	clearBack:
 223              	.LFB70:
 218:Src/draw.c    **** 
 219:Src/draw.c    **** void clearBack(void)
 220:Src/draw.c    **** {
 224              		.loc 1 220 1 is_stmt 1 view -0
 225              		.cfi_startproc
 226              		@ args = 0, pretend = 0, frame = 0
 227              		@ frame_needed = 0, uses_anonymous_args = 0
 228 0000 38B5     		push	{r3, r4, r5, lr}
 229              	.LCFI3:
 230              		.cfi_def_cfa_offset 16
 231              		.cfi_offset 3, -16
 232              		.cfi_offset 4, -12
 233              		.cfi_offset 5, -8
 234              		.cfi_offset 14, -4
 221:Src/draw.c    ****   for (uint8_t y = 0; y < NCOLS; y++)
 235              		.loc 1 221 3 view .LVU51
 236              	.LBB21:
 237              		.loc 1 221 8 view .LVU52
 238              	.LVL21:
 239              		.loc 1 221 16 is_stmt 0 view .LVU53
 240 0002 0025     		movs	r5, #0
 241              		.loc 1 221 3 view .LVU54
 242 0004 01E0     		b	.L19
 243              	.LVL22:
 244              	.L25:
 245              		.loc 1 221 35 discriminator 2 view .LVU55
 246 0006 0135     		adds	r5, r5, #1
 247              	.LVL23:
 248              		.loc 1 221 35 discriminator 2 view .LVU56
 249 0008 EDB2     		uxtb	r5, r5
 250              	.LVL24:
 251              	.L19:
 252              		.loc 1 221 3 discriminator 1 view .LVU57
 253 000a 0F2D     		cmp	r5, #15
 254 000c 0ED8     		bhi	.L24
 255              	.LBB22:
 222:Src/draw.c    ****   {
 223:Src/draw.c    ****     for (uint8_t x = 0; x < NCOLS; x++)
 256              		.loc 1 223 18 view .LVU58
 257 000e 0024     		movs	r4, #0
ARM GAS  /var/folders/hv/f19l0kw128sbpybv1h43gz3c0000gn/T//ccsxUPDV.s 			page 10


 258              	.L21:
 259              	.LVL25:
 260              		.loc 1 223 5 discriminator 1 view .LVU59
 261 0010 0F2C     		cmp	r4, #15
 262 0012 F8D8     		bhi	.L25
 224:Src/draw.c    ****     {
 225:Src/draw.c    ****       setColor(backLayer[x + (y * NCOLS)], arrColor[12]);
 263              		.loc 1 225 7 is_stmt 1 discriminator 3 view .LVU60
 264              		.loc 1 225 28 is_stmt 0 discriminator 3 view .LVU61
 265 0014 04EB0510 		add	r0, r4, r5, lsl #4
 266              		.loc 1 225 25 discriminator 3 view .LVU62
 267 0018 00EB4000 		add	r0, r0, r0, lsl #1
 268              		.loc 1 225 7 discriminator 3 view .LVU63
 269 001c 0449     		ldr	r1, .L26
 270 001e 054B     		ldr	r3, .L26+4
 271 0020 1844     		add	r0, r0, r3
 272 0022 FFF7FEFF 		bl	setColor
 273              	.LVL26:
 223:Src/draw.c    ****     {
 274              		.loc 1 223 37 discriminator 3 view .LVU64
 275 0026 0134     		adds	r4, r4, #1
 276              	.LVL27:
 223:Src/draw.c    ****     {
 277              		.loc 1 223 37 discriminator 3 view .LVU65
 278 0028 E4B2     		uxtb	r4, r4
 279              	.LVL28:
 223:Src/draw.c    ****     {
 280              		.loc 1 223 37 discriminator 3 view .LVU66
 281 002a F1E7     		b	.L21
 282              	.LVL29:
 283              	.L24:
 223:Src/draw.c    ****     {
 284              		.loc 1 223 37 discriminator 3 view .LVU67
 285              	.LBE22:
 286              	.LBE21:
 226:Src/draw.c    ****     }
 227:Src/draw.c    ****   }
 228:Src/draw.c    **** }
 287              		.loc 1 228 1 view .LVU68
 288 002c 38BD     		pop	{r3, r4, r5, pc}
 289              	.LVL30:
 290              	.L27:
 291              		.loc 1 228 1 view .LVU69
 292 002e 00BF     		.align	2
 293              	.L26:
 294 0030 24000000 		.word	.LANCHOR0+36
 295 0034 00000000 		.word	backLayer
 296              		.cfi_endproc
 297              	.LFE70:
 299              		.section	.text.clearText,"ax",%progbits
 300              		.align	1
 301              		.global	clearText
 302              		.syntax unified
 303              		.thumb
 304              		.thumb_func
 305              		.fpu softvfp
 307              	clearText:
ARM GAS  /var/folders/hv/f19l0kw128sbpybv1h43gz3c0000gn/T//ccsxUPDV.s 			page 11


 308              	.LFB71:
 229:Src/draw.c    **** 
 230:Src/draw.c    **** void clearText(void)
 231:Src/draw.c    **** {
 309              		.loc 1 231 1 is_stmt 1 view -0
 310              		.cfi_startproc
 311              		@ args = 0, pretend = 0, frame = 0
 312              		@ frame_needed = 0, uses_anonymous_args = 0
 313              		@ link register save eliminated.
 232:Src/draw.c    **** #if COLOR_1BIT
 233:Src/draw.c    ****   for (uint8_t i = 0; i < NLEDSBIT; i++)
 314              		.loc 1 233 3 view .LVU71
 315              	.LBB23:
 316              		.loc 1 233 8 view .LVU72
 317              	.LVL31:
 318              		.loc 1 233 16 is_stmt 0 view .LVU73
 319 0000 0023     		movs	r3, #0
 320              	.LVL32:
 321              	.L29:
 322              		.loc 1 233 3 discriminator 1 view .LVU74
 323 0002 1F2B     		cmp	r3, #31
 324 0004 05D8     		bhi	.L31
 234:Src/draw.c    ****   {
 235:Src/draw.c    ****     textLayer[i] = 0;
 325              		.loc 1 235 5 is_stmt 1 discriminator 3 view .LVU75
 326              		.loc 1 235 18 is_stmt 0 discriminator 3 view .LVU76
 327 0006 034A     		ldr	r2, .L32
 328 0008 0021     		movs	r1, #0
 329 000a D154     		strb	r1, [r2, r3]
 233:Src/draw.c    ****   {
 330              		.loc 1 233 38 discriminator 3 view .LVU77
 331 000c 0133     		adds	r3, r3, #1
 332              	.LVL33:
 233:Src/draw.c    ****   {
 333              		.loc 1 233 38 discriminator 3 view .LVU78
 334 000e DBB2     		uxtb	r3, r3
 335              	.LVL34:
 233:Src/draw.c    ****   {
 336              		.loc 1 233 38 discriminator 3 view .LVU79
 337 0010 F7E7     		b	.L29
 338              	.L31:
 233:Src/draw.c    ****   {
 339              		.loc 1 233 38 discriminator 3 view .LVU80
 340              	.LBE23:
 236:Src/draw.c    ****   }
 237:Src/draw.c    **** #else
 238:Src/draw.c    ****   for (uint8_t y = 0; y < NCOLS; y++)
 239:Src/draw.c    ****   {
 240:Src/draw.c    ****     for (uint8_t x = 0; x < NCOLS; x++)
 241:Src/draw.c    ****     {
 242:Src/draw.c    ****       setColor(textLayer[x + (y * NCOLS)], arrColor[12]);
 243:Src/draw.c    ****     }
 244:Src/draw.c    ****   }
 245:Src/draw.c    **** #endif
 246:Src/draw.c    **** }
 341              		.loc 1 246 1 view .LVU81
 342 0012 7047     		bx	lr
ARM GAS  /var/folders/hv/f19l0kw128sbpybv1h43gz3c0000gn/T//ccsxUPDV.s 			page 12


 343              	.L33:
 344              		.align	2
 345              	.L32:
 346 0014 00000000 		.word	textLayer
 347              		.cfi_endproc
 348              	.LFE71:
 350              		.section	.text.clearFramebuffer,"ax",%progbits
 351              		.align	1
 352              		.global	clearFramebuffer
 353              		.syntax unified
 354              		.thumb
 355              		.thumb_func
 356              		.fpu softvfp
 358              	clearFramebuffer:
 359              	.LFB72:
 247:Src/draw.c    **** 
 248:Src/draw.c    **** void clearFramebuffer(void)
 249:Src/draw.c    **** {
 360              		.loc 1 249 1 is_stmt 1 view -0
 361              		.cfi_startproc
 362              		@ args = 0, pretend = 0, frame = 0
 363              		@ frame_needed = 0, uses_anonymous_args = 0
 364 0000 70B5     		push	{r4, r5, r6, lr}
 365              	.LCFI4:
 366              		.cfi_def_cfa_offset 16
 367              		.cfi_offset 4, -16
 368              		.cfi_offset 5, -12
 369              		.cfi_offset 6, -8
 370              		.cfi_offset 14, -4
 371 0002 82B0     		sub	sp, sp, #8
 372              	.LCFI5:
 373              		.cfi_def_cfa_offset 24
 250:Src/draw.c    ****   for (uint8_t i = 0; i < NCHANNELS; i++)
 374              		.loc 1 250 3 view .LVU83
 375              	.LBB24:
 376              		.loc 1 250 8 view .LVU84
 377              	.LVL35:
 378              		.loc 1 250 16 is_stmt 0 view .LVU85
 379 0004 0026     		movs	r6, #0
 380              		.loc 1 250 3 view .LVU86
 381 0006 1FE0     		b	.L35
 382              	.LVL36:
 383              	.L36:
 384              	.LBB25:
 251:Src/draw.c    ****   {
 252:Src/draw.c    ****     for (uint8_t j = 0; j < NLINESCH; j++)
 385              		.loc 1 252 40 discriminator 2 view .LVU87
 386 0008 0135     		adds	r5, r5, #1
 387              	.LVL37:
 388              		.loc 1 252 40 discriminator 2 view .LVU88
 389 000a EDB2     		uxtb	r5, r5
 390              	.LVL38:
 391              	.L39:
 392              		.loc 1 252 5 discriminator 1 view .LVU89
 393 000c 012D     		cmp	r5, #1
 394 000e 19D8     		bhi	.L43
 395              	.LBB26:
ARM GAS  /var/folders/hv/f19l0kw128sbpybv1h43gz3c0000gn/T//ccsxUPDV.s 			page 13


 253:Src/draw.c    ****     {
 254:Src/draw.c    ****       for (uint16_t x = 0; x < NCOLS; x++)
 396              		.loc 1 254 21 view .LVU90
 397 0010 0024     		movs	r4, #0
 398              	.L38:
 399              	.LVL39:
 400              		.loc 1 254 7 discriminator 1 view .LVU91
 401 0012 0F2C     		cmp	r4, #15
 402 0014 F8D8     		bhi	.L36
 255:Src/draw.c    ****       {
 256:Src/draw.c    ****         if ((x + (j * NCOLS) + (i * NLEDSCH)) > NLEDSL)
 403              		.loc 1 256 9 is_stmt 1 view .LVU92
 404              		.loc 1 256 16 is_stmt 0 view .LVU93
 405 0016 04EB0513 		add	r3, r4, r5, lsl #4
 406              		.loc 1 256 30 view .LVU94
 407 001a 03EB4613 		add	r3, r3, r6, lsl #5
 408              		.loc 1 256 12 view .LVU95
 409 001e FF2B     		cmp	r3, #255
 410 0020 F2DC     		bgt	.L36
 257:Src/draw.c    ****           break;
 258:Src/draw.c    ****         WS2812_framedata_setPixel(i, x + (j * NCOLS), arrColor[12][0], arrColor[12][1], arrColor[12
 411              		.loc 1 258 9 is_stmt 1 discriminator 2 view .LVU96
 412 0022 0C4A     		ldr	r2, .L45
 413 0024 04EB0511 		add	r1, r4, r5, lsl #4
 414 0028 92F82630 		ldrb	r3, [r2, #38]	@ zero_extendqisi2
 415 002c 0093     		str	r3, [sp]
 416 002e 92F82530 		ldrb	r3, [r2, #37]	@ zero_extendqisi2
 417 0032 92F82420 		ldrb	r2, [r2, #36]	@ zero_extendqisi2
 418 0036 89B2     		uxth	r1, r1
 419 0038 3046     		mov	r0, r6
 420 003a FFF7FEFF 		bl	WS2812_framedata_setPixel
 421              	.LVL40:
 254:Src/draw.c    ****       {
 422              		.loc 1 254 40 is_stmt 0 discriminator 2 view .LVU97
 423 003e 0134     		adds	r4, r4, #1
 424              	.LVL41:
 254:Src/draw.c    ****       {
 425              		.loc 1 254 40 discriminator 2 view .LVU98
 426 0040 A4B2     		uxth	r4, r4
 427              	.LVL42:
 254:Src/draw.c    ****       {
 428              		.loc 1 254 40 discriminator 2 view .LVU99
 429 0042 E6E7     		b	.L38
 430              	.LVL43:
 431              	.L43:
 254:Src/draw.c    ****       {
 432              		.loc 1 254 40 discriminator 2 view .LVU100
 433              	.LBE26:
 434              	.LBE25:
 250:Src/draw.c    ****   {
 435              		.loc 1 250 39 discriminator 2 view .LVU101
 436 0044 0136     		adds	r6, r6, #1
 437              	.LVL44:
 250:Src/draw.c    ****   {
 438              		.loc 1 250 39 discriminator 2 view .LVU102
 439 0046 F6B2     		uxtb	r6, r6
 440              	.LVL45:
ARM GAS  /var/folders/hv/f19l0kw128sbpybv1h43gz3c0000gn/T//ccsxUPDV.s 			page 14


 441              	.L35:
 250:Src/draw.c    ****   {
 442              		.loc 1 250 3 discriminator 1 view .LVU103
 443 0048 072E     		cmp	r6, #7
 444 004a 01D8     		bhi	.L44
 445              	.LBB27:
 252:Src/draw.c    ****     {
 446              		.loc 1 252 18 view .LVU104
 447 004c 0025     		movs	r5, #0
 448 004e DDE7     		b	.L39
 449              	.L44:
 450              	.LBE27:
 451              	.LBE24:
 259:Src/draw.c    ****       }
 260:Src/draw.c    ****     }
 261:Src/draw.c    ****   }
 262:Src/draw.c    **** }
 452              		.loc 1 262 1 view .LVU105
 453 0050 02B0     		add	sp, sp, #8
 454              	.LCFI6:
 455              		.cfi_def_cfa_offset 16
 456              		@ sp needed
 457 0052 70BD     		pop	{r4, r5, r6, pc}
 458              	.LVL46:
 459              	.L46:
 460              		.loc 1 262 1 view .LVU106
 461              		.align	2
 462              	.L45:
 463 0054 00000000 		.word	.LANCHOR0
 464              		.cfi_endproc
 465              	.LFE72:
 467              		.global	__aeabi_i2f
 468              		.global	__aeabi_fdiv
 469              		.section	.text.drawShapeNote,"ax",%progbits
 470              		.align	1
 471              		.global	drawShapeNote
 472              		.syntax unified
 473              		.thumb
 474              		.thumb_func
 475              		.fpu softvfp
 477              	drawShapeNote:
 478              	.LFB73:
 263:Src/draw.c    **** 
 264:Src/draw.c    **** // void move(int8_t newX, int8_t newY)
 265:Src/draw.c    **** // {
 266:Src/draw.c    **** //   uint8_t tempVector[NLEDS][3];
 267:Src/draw.c    **** //   uint8_t tempX, tempY;
 268:Src/draw.c    **** //   for (int y = 0; y < NCOLS; y++)
 269:Src/draw.c    **** //   {
 270:Src/draw.c    **** //     for (int x = 0; x < NCOLS; x++)
 271:Src/draw.c    **** //     {
 272:Src/draw.c    **** //       for (int z = 0; z < 3; z++)
 273:Src/draw.c    **** //       {
 274:Src/draw.c    **** //         tempVector[x + (y * NCOLS)][z] = backLayer[x + (y * NCOLS)][z];
 275:Src/draw.c    **** //       }
 276:Src/draw.c    **** //     }
 277:Src/draw.c    **** //   }
ARM GAS  /var/folders/hv/f19l0kw128sbpybv1h43gz3c0000gn/T//ccsxUPDV.s 			page 15


 278:Src/draw.c    **** 
 279:Src/draw.c    **** //   for (int y = 0; y < NCOLS; y++)
 280:Src/draw.c    **** //   {
 281:Src/draw.c    **** //     if ((y - newY) < 0)
 282:Src/draw.c    **** //     {
 283:Src/draw.c    **** //       tempY = NCOLS - (-y + newY);
 284:Src/draw.c    **** //     }
 285:Src/draw.c    **** //     else if ((y - newY) >= NCOLS)
 286:Src/draw.c    **** //     {
 287:Src/draw.c    **** //       tempY = (y - newY) - NCOLS;
 288:Src/draw.c    **** //     }
 289:Src/draw.c    **** //     else
 290:Src/draw.c    **** //       tempY = y - newY;
 291:Src/draw.c    **** 
 292:Src/draw.c    **** //     for (int x = 0; x < NCOLS; x++)
 293:Src/draw.c    **** //     {
 294:Src/draw.c    **** //       if ((x - newX) < 0)
 295:Src/draw.c    **** //       {
 296:Src/draw.c    **** //         tempX = NCOLS - (-x + newX);
 297:Src/draw.c    **** //       }
 298:Src/draw.c    **** //       else if ((x - newX) >= NCOLS)
 299:Src/draw.c    **** //       {
 300:Src/draw.c    **** //         tempX = (x - newX) - NCOLS;
 301:Src/draw.c    **** //       }
 302:Src/draw.c    **** //       else
 303:Src/draw.c    **** //         tempX = x - newX;
 304:Src/draw.c    **** 
 305:Src/draw.c    **** //       for (int z = 0; z < 3; z++)
 306:Src/draw.c    **** //       {
 307:Src/draw.c    **** //         backLayer[x + (y * NCOLS)][z] = tempVector[tempX + (tempY * NCOLS)][z];
 308:Src/draw.c    **** //       }
 309:Src/draw.c    **** //     }
 310:Src/draw.c    **** //   }
 311:Src/draw.c    **** // }
 312:Src/draw.c    **** 
 313:Src/draw.c    **** void drawShapeNote()
 314:Src/draw.c    **** {
 479              		.loc 1 314 1 is_stmt 1 view -0
 480              		.cfi_startproc
 481              		@ args = 0, pretend = 0, frame = 0
 482              		@ frame_needed = 0, uses_anonymous_args = 0
 483 0000 2DE9F84F 		push	{r3, r4, r5, r6, r7, r8, r9, r10, fp, lr}
 484              	.LCFI7:
 485              		.cfi_def_cfa_offset 40
 486              		.cfi_offset 3, -40
 487              		.cfi_offset 4, -36
 488              		.cfi_offset 5, -32
 489              		.cfi_offset 6, -28
 490              		.cfi_offset 7, -24
 491              		.cfi_offset 8, -20
 492              		.cfi_offset 9, -16
 493              		.cfi_offset 10, -12
 494              		.cfi_offset 11, -8
 495              		.cfi_offset 14, -4
 315:Src/draw.c    ****   uint8_t rz = NCOLS / 2;
 496              		.loc 1 315 3 view .LVU108
 497              	.LVL47:
ARM GAS  /var/folders/hv/f19l0kw128sbpybv1h43gz3c0000gn/T//ccsxUPDV.s 			page 16


 316:Src/draw.c    ****   uint16_t coords = 0;
 498              		.loc 1 316 3 view .LVU109
 317:Src/draw.c    ****   uint8_t invI;
 499              		.loc 1 317 3 view .LVU110
 318:Src/draw.c    ****   for (int8_t y = -rz; y <= rz; y++)
 500              		.loc 1 318 3 view .LVU111
 501              	.LBB28:
 502              		.loc 1 318 8 view .LVU112
 503              		.loc 1 318 15 is_stmt 0 view .LVU113
 504 0004 6FF00709 		mvn	r9, #7
 505              		.loc 1 318 3 view .LVU114
 506 0008 4FE0     		b	.L48
 507              	.LVL48:
 508              	.L52:
 509              	.LBB29:
 510              	.LBB30:
 511              	.LBB31:
 319:Src/draw.c    ****   {
 320:Src/draw.c    ****     for (int8_t x = -rz; x <= rz; x++)
 321:Src/draw.c    ****     {
 322:Src/draw.c    ****       coords = (x + rz) + ((y + rz) * NCOLS);
 323:Src/draw.c    ****       invI = orientation ? MAX_DIV - 1 : 0;
 324:Src/draw.c    ****       for (int8_t i = 0; i < MAX_DIV - 1; i++)
 325:Src/draw.c    ****       {
 326:Src/draw.c    ****         float layer = ((float)(i + 1) / MAX_DIV);
 327:Src/draw.c    ****         if (callback(x, y, layer))
 328:Src/draw.c    ****         {
 329:Src/draw.c    ****           invI = orientation ? i : MAX_DIV - 1 - i;
 512              		.loc 1 329 16 discriminator 2 view .LVU115
 513 000a E7B2     		uxtb	r7, r4
 514              	.LVL49:
 515              		.loc 1 329 16 discriminator 2 view .LVU116
 516 000c 25E0     		b	.L53
 517              	.LVL50:
 518              	.L51:
 519              		.loc 1 329 16 discriminator 2 view .LVU117
 520              	.LBE31:
 324:Src/draw.c    ****       {
 521              		.loc 1 324 44 discriminator 2 view .LVU118
 522 000e 0134     		adds	r4, r4, #1
 523              	.LVL51:
 324:Src/draw.c    ****       {
 524              		.loc 1 324 44 discriminator 2 view .LVU119
 525 0010 64B2     		sxtb	r4, r4
 526              	.LVL52:
 527              	.L50:
 324:Src/draw.c    ****       {
 528              		.loc 1 324 38 discriminator 1 view .LVU120
 529 0012 2A4B     		ldr	r3, .L61
 530 0014 1D78     		ldrb	r5, [r3]	@ zero_extendqisi2
 531 0016 6B1E     		subs	r3, r5, #1
 324:Src/draw.c    ****       {
 532              		.loc 1 324 7 discriminator 1 view .LVU121
 533 0018 9C42     		cmp	r4, r3
 534 001a 1EDA     		bge	.L53
 535              	.LBB34:
 326:Src/draw.c    ****         if (callback(x, y, layer))
ARM GAS  /var/folders/hv/f19l0kw128sbpybv1h43gz3c0000gn/T//ccsxUPDV.s 			page 17


 536              		.loc 1 326 9 is_stmt 1 view .LVU122
 326:Src/draw.c    ****         if (callback(x, y, layer))
 537              		.loc 1 326 24 is_stmt 0 view .LVU123
 538 001c 601C     		adds	r0, r4, #1
 539 001e FFF7FEFF 		bl	__aeabi_i2f
 540              	.LVL53:
 541 0022 8346     		mov	fp, r0
 326:Src/draw.c    ****         if (callback(x, y, layer))
 542              		.loc 1 326 39 view .LVU124
 543 0024 2846     		mov	r0, r5
 544 0026 FFF7FEFF 		bl	__aeabi_i2f
 545              	.LVL54:
 326:Src/draw.c    ****         if (callback(x, y, layer))
 546              		.loc 1 326 15 view .LVU125
 547 002a 0146     		mov	r1, r0
 548 002c 5846     		mov	r0, fp
 549 002e FFF7FEFF 		bl	__aeabi_fdiv
 550              	.LVL55:
 327:Src/draw.c    ****         {
 551              		.loc 1 327 9 is_stmt 1 view .LVU126
 552              	.LBB32:
 553              	.LBI32:
 131:Src/draw.c    **** {
 554              		.loc 1 131 23 view .LVU127
 555              	.LBB33:
 133:Src/draw.c    ****   {
 556              		.loc 1 133 3 view .LVU128
 133:Src/draw.c    ****   {
 557              		.loc 1 133 7 is_stmt 0 view .LVU129
 558 0032 234B     		ldr	r3, .L61+4
 559 0034 1B68     		ldr	r3, [r3]
 133:Src/draw.c    ****   {
 560              		.loc 1 133 6 view .LVU130
 561 0036 002B     		cmp	r3, #0
 562 0038 E9D0     		beq	.L51
 135:Src/draw.c    ****   }
 563              		.loc 1 135 5 is_stmt 1 view .LVU131
 135:Src/draw.c    ****   }
 564              		.loc 1 135 13 is_stmt 0 view .LVU132
 565 003a 0246     		mov	r2, r0
 566 003c 4946     		mov	r1, r9
 567 003e 3046     		mov	r0, r6
 568              	.LVL56:
 135:Src/draw.c    ****   }
 569              		.loc 1 135 13 view .LVU133
 570 0040 9847     		blx	r3
 571              	.LVL57:
 135:Src/draw.c    ****   }
 572              		.loc 1 135 13 view .LVU134
 573              	.LBE33:
 574              	.LBE32:
 327:Src/draw.c    ****         {
 575              		.loc 1 327 12 view .LVU135
 576 0042 0028     		cmp	r0, #0
 577 0044 E3D0     		beq	.L51
 578              		.loc 1 329 11 is_stmt 1 view .LVU136
 579              		.loc 1 329 30 is_stmt 0 view .LVU137
ARM GAS  /var/folders/hv/f19l0kw128sbpybv1h43gz3c0000gn/T//ccsxUPDV.s 			page 18


 580 0046 1F4B     		ldr	r3, .L61+8
 581 0048 1B78     		ldrb	r3, [r3]	@ zero_extendqisi2
 582              		.loc 1 329 16 view .LVU138
 583 004a 002B     		cmp	r3, #0
 584 004c DDD1     		bne	.L52
 585              		.loc 1 329 48 discriminator 1 view .LVU139
 586 004e 1B4B     		ldr	r3, .L61
 587 0050 1F78     		ldrb	r7, [r3]	@ zero_extendqisi2
 588              	.LVL58:
 589              		.loc 1 329 48 discriminator 1 view .LVU140
 590 0052 3F1B     		subs	r7, r7, r4
 591 0054 FFB2     		uxtb	r7, r7
 592              		.loc 1 329 16 discriminator 1 view .LVU141
 593 0056 013F     		subs	r7, r7, #1
 594 0058 FFB2     		uxtb	r7, r7
 595              	.L53:
 596              	.LVL59:
 597              		.loc 1 329 16 discriminator 1 view .LVU142
 598              	.LBE34:
 599              	.LBE30:
 330:Src/draw.c    ****           break;
 331:Src/draw.c    ****         }
 332:Src/draw.c    ****       }
 333:Src/draw.c    ****       setColor(backLayer[coords], noteBuffer[invI].color);
 600              		.loc 1 333 7 is_stmt 1 discriminator 2 view .LVU143
 601              		.loc 1 333 25 is_stmt 0 discriminator 2 view .LVU144
 602 005a 08EB4808 		add	r8, r8, r8, lsl #1
 603              	.LVL60:
 604              		.loc 1 333 51 discriminator 2 view .LVU145
 605 005e 07EB4707 		add	r7, r7, r7, lsl #1
 606              	.LVL61:
 607              		.loc 1 333 51 discriminator 2 view .LVU146
 608 0062 7900     		lsls	r1, r7, #1
 609 0064 184B     		ldr	r3, .L61+12
 610 0066 1944     		add	r1, r1, r3
 611              		.loc 1 333 7 discriminator 2 view .LVU147
 612 0068 0331     		adds	r1, r1, #3
 613 006a 1848     		ldr	r0, .L61+16
 614 006c 4044     		add	r0, r0, r8
 615 006e FFF7FEFF 		bl	setColor
 616              	.LVL62:
 320:Src/draw.c    ****     {
 617              		.loc 1 320 36 discriminator 2 view .LVU148
 618 0072 0136     		adds	r6, r6, #1
 619              	.LVL63:
 320:Src/draw.c    ****     {
 620              		.loc 1 320 36 discriminator 2 view .LVU149
 621 0074 76B2     		sxtb	r6, r6
 622              	.LVL64:
 623              	.L56:
 320:Src/draw.c    ****     {
 624              		.loc 1 320 5 discriminator 1 view .LVU150
 625 0076 082E     		cmp	r6, #8
 626 0078 13DC     		bgt	.L59
 322:Src/draw.c    ****       invI = orientation ? MAX_DIV - 1 : 0;
 627              		.loc 1 322 7 is_stmt 1 view .LVU151
 322:Src/draw.c    ****       invI = orientation ? MAX_DIV - 1 : 0;
ARM GAS  /var/folders/hv/f19l0kw128sbpybv1h43gz3c0000gn/T//ccsxUPDV.s 			page 19


 628              		.loc 1 322 19 is_stmt 0 view .LVU152
 629 007a 06F10808 		add	r8, r6, #8
 630 007e 1FFA88F8 		uxth	r8, r8
 322:Src/draw.c    ****       invI = orientation ? MAX_DIV - 1 : 0;
 631              		.loc 1 322 31 view .LVU153
 632 0082 0AF10800 		add	r0, r10, #8
 322:Src/draw.c    ****       invI = orientation ? MAX_DIV - 1 : 0;
 633              		.loc 1 322 25 view .LVU154
 634 0086 0001     		lsls	r0, r0, #4
 635 0088 80B2     		uxth	r0, r0
 322:Src/draw.c    ****       invI = orientation ? MAX_DIV - 1 : 0;
 636              		.loc 1 322 14 view .LVU155
 637 008a 8044     		add	r8, r8, r0
 638 008c 1FFA88F8 		uxth	r8, r8
 639              	.LVL65:
 323:Src/draw.c    ****       for (int8_t i = 0; i < MAX_DIV - 1; i++)
 640              		.loc 1 323 7 is_stmt 1 view .LVU156
 323:Src/draw.c    ****       for (int8_t i = 0; i < MAX_DIV - 1; i++)
 641              		.loc 1 323 26 is_stmt 0 view .LVU157
 642 0090 0C4B     		ldr	r3, .L61+8
 643 0092 1F78     		ldrb	r7, [r3]	@ zero_extendqisi2
 323:Src/draw.c    ****       for (int8_t i = 0; i < MAX_DIV - 1; i++)
 644              		.loc 1 323 12 view .LVU158
 645 0094 1FB1     		cbz	r7, .L49
 323:Src/draw.c    ****       for (int8_t i = 0; i < MAX_DIV - 1; i++)
 646              		.loc 1 323 36 discriminator 1 view .LVU159
 647 0096 094B     		ldr	r3, .L61
 648 0098 1F78     		ldrb	r7, [r3]	@ zero_extendqisi2
 323:Src/draw.c    ****       for (int8_t i = 0; i < MAX_DIV - 1; i++)
 649              		.loc 1 323 12 discriminator 1 view .LVU160
 650 009a 013F     		subs	r7, r7, #1
 651 009c FFB2     		uxtb	r7, r7
 652              	.L49:
 653              	.LVL66:
 324:Src/draw.c    ****       {
 654              		.loc 1 324 7 is_stmt 1 discriminator 4 view .LVU161
 655              	.LBB35:
 324:Src/draw.c    ****       {
 656              		.loc 1 324 12 discriminator 4 view .LVU162
 324:Src/draw.c    ****       {
 657              		.loc 1 324 19 is_stmt 0 discriminator 4 view .LVU163
 658 009e 0024     		movs	r4, #0
 324:Src/draw.c    ****       {
 659              		.loc 1 324 7 discriminator 4 view .LVU164
 660 00a0 B7E7     		b	.L50
 661              	.LVL67:
 662              	.L59:
 324:Src/draw.c    ****       {
 663              		.loc 1 324 7 discriminator 4 view .LVU165
 664              	.LBE35:
 665              	.LBE29:
 318:Src/draw.c    ****   {
 666              		.loc 1 318 34 discriminator 2 view .LVU166
 667 00a2 09F10109 		add	r9, r9, #1
 668              	.LVL68:
 318:Src/draw.c    ****   {
 669              		.loc 1 318 34 discriminator 2 view .LVU167
ARM GAS  /var/folders/hv/f19l0kw128sbpybv1h43gz3c0000gn/T//ccsxUPDV.s 			page 20


 670 00a6 4FFA89F9 		sxtb	r9, r9
 671              	.LVL69:
 672              	.L48:
 318:Src/draw.c    ****   {
 673              		.loc 1 318 26 discriminator 1 view .LVU168
 674 00aa CA46     		mov	r10, r9
 318:Src/draw.c    ****   {
 675              		.loc 1 318 3 discriminator 1 view .LVU169
 676 00ac B9F1080F 		cmp	r9, #8
 677 00b0 02DC     		bgt	.L60
 678              	.LBB36:
 320:Src/draw.c    ****     {
 679              		.loc 1 320 17 view .LVU170
 680 00b2 6FF00706 		mvn	r6, #7
 681 00b6 DEE7     		b	.L56
 682              	.L60:
 683              	.LBE36:
 684              	.LBE28:
 334:Src/draw.c    ****     }
 335:Src/draw.c    ****   }
 336:Src/draw.c    **** }
 685              		.loc 1 336 1 view .LVU171
 686 00b8 BDE8F88F 		pop	{r3, r4, r5, r6, r7, r8, r9, r10, fp, pc}
 687              	.LVL70:
 688              	.L62:
 689              		.loc 1 336 1 view .LVU172
 690              		.align	2
 691              	.L61:
 692 00bc 00000000 		.word	.LANCHOR2
 693 00c0 00000000 		.word	callback_function
 694 00c4 00000000 		.word	.LANCHOR1
 695 00c8 00000000 		.word	noteBuffer
 696 00cc 00000000 		.word	backLayer
 697              		.cfi_endproc
 698              	.LFE73:
 700              		.section	.text.drawShapeNoteGrad,"ax",%progbits
 701              		.align	1
 702              		.global	drawShapeNoteGrad
 703              		.syntax unified
 704              		.thumb
 705              		.thumb_func
 706              		.fpu softvfp
 708              	drawShapeNoteGrad:
 709              	.LFB74:
 337:Src/draw.c    **** 
 338:Src/draw.c    **** void drawShapeNoteGrad()
 339:Src/draw.c    **** {
 710              		.loc 1 339 1 is_stmt 1 view -0
 711              		.cfi_startproc
 712              		@ args = 0, pretend = 0, frame = 16
 713              		@ frame_needed = 0, uses_anonymous_args = 0
 714 0000 2DE9F04F 		push	{r4, r5, r6, r7, r8, r9, r10, fp, lr}
 715              	.LCFI8:
 716              		.cfi_def_cfa_offset 36
 717              		.cfi_offset 4, -36
 718              		.cfi_offset 5, -32
 719              		.cfi_offset 6, -28
ARM GAS  /var/folders/hv/f19l0kw128sbpybv1h43gz3c0000gn/T//ccsxUPDV.s 			page 21


 720              		.cfi_offset 7, -24
 721              		.cfi_offset 8, -20
 722              		.cfi_offset 9, -16
 723              		.cfi_offset 10, -12
 724              		.cfi_offset 11, -8
 725              		.cfi_offset 14, -4
 726 0004 85B0     		sub	sp, sp, #20
 727              	.LCFI9:
 728              		.cfi_def_cfa_offset 56
 340:Src/draw.c    ****   uint8_t rz = NCOLS / 2;
 729              		.loc 1 340 3 view .LVU174
 730              	.LVL71:
 341:Src/draw.c    ****   uint16_t coords = 0;
 731              		.loc 1 341 3 view .LVU175
 342:Src/draw.c    ****   uint8_t invO = orientation ? 0 : 1;
 732              		.loc 1 342 3 view .LVU176
 733              		.loc 1 342 34 is_stmt 0 view .LVU177
 734 0006 464B     		ldr	r3, .L80
 735 0008 1C78     		ldrb	r4, [r3]	@ zero_extendqisi2
 736 000a B4FA84FA 		clz	r10, r4
 737 000e 4FEA5A1A 		lsr	r10, r10, #5
 738              	.LVL72:
 343:Src/draw.c    ****   int8_t diff[3];
 739              		.loc 1 343 3 is_stmt 1 view .LVU178
 344:Src/draw.c    ****   for (uint8_t j = 0; j < 3; j++)
 740              		.loc 1 344 3 view .LVU179
 741              	.LBB37:
 742              		.loc 1 344 8 view .LVU180
 743              		.loc 1 344 16 is_stmt 0 view .LVU181
 744 0012 0023     		movs	r3, #0
 745              		.loc 1 344 3 view .LVU182
 746 0014 18E0     		b	.L64
 747              	.LVL73:
 748              	.L65:
 345:Src/draw.c    ****   {
 346:Src/draw.c    ****     diff[j] = (noteBuffer[orientation].color[j] - noteBuffer[invO].color[j]) / MAX_DIV;
 749              		.loc 1 346 5 is_stmt 1 discriminator 3 view .LVU183
 750              		.loc 1 346 45 is_stmt 0 discriminator 3 view .LVU184
 751 0016 434A     		ldr	r2, .L80+4
 752 0018 04EB4400 		add	r0, r4, r4, lsl #1
 753 001c 4100     		lsls	r1, r0, #1
 754 001e 1144     		add	r1, r1, r2
 755 0020 1944     		add	r1, r1, r3
 756 0022 C978     		ldrb	r1, [r1, #3]	@ zero_extendqisi2
 757              		.loc 1 346 73 discriminator 3 view .LVU185
 758 0024 4FEA4A00 		lsl	r0, r10, #1
 759 0028 5044     		add	r0, r0, r10
 760 002a 4500     		lsls	r5, r0, #1
 761 002c 2A44     		add	r2, r2, r5
 762 002e 1A44     		add	r2, r2, r3
 763 0030 D278     		ldrb	r2, [r2, #3]	@ zero_extendqisi2
 764              		.loc 1 346 49 discriminator 3 view .LVU186
 765 0032 8A1A     		subs	r2, r1, r2
 766              		.loc 1 346 78 discriminator 3 view .LVU187
 767 0034 3C49     		ldr	r1, .L80+8
 768 0036 0978     		ldrb	r1, [r1]	@ zero_extendqisi2
 769 0038 92FBF1F2 		sdiv	r2, r2, r1
ARM GAS  /var/folders/hv/f19l0kw128sbpybv1h43gz3c0000gn/T//ccsxUPDV.s 			page 22


 770              		.loc 1 346 13 discriminator 3 view .LVU188
 771 003c 04A9     		add	r1, sp, #16
 772 003e 1944     		add	r1, r1, r3
 773 0040 01F8042C 		strb	r2, [r1, #-4]
 344:Src/draw.c    ****   for (uint8_t j = 0; j < 3; j++)
 774              		.loc 1 344 31 discriminator 3 view .LVU189
 775 0044 0133     		adds	r3, r3, #1
 776              	.LVL74:
 344:Src/draw.c    ****   for (uint8_t j = 0; j < 3; j++)
 777              		.loc 1 344 31 discriminator 3 view .LVU190
 778 0046 DBB2     		uxtb	r3, r3
 779              	.LVL75:
 780              	.L64:
 344:Src/draw.c    ****   for (uint8_t j = 0; j < 3; j++)
 781              		.loc 1 344 3 discriminator 1 view .LVU191
 782 0048 022B     		cmp	r3, #2
 783 004a E4D9     		bls	.L65
 784              	.LBE37:
 785              	.LBB38:
 347:Src/draw.c    ****   }
 348:Src/draw.c    **** 
 349:Src/draw.c    ****   for (int8_t y = -rz; y <= rz; y++)
 786              		.loc 1 349 15 view .LVU192
 787 004c 6FF00703 		mvn	r3, #7
 788              	.LVL76:
 789              		.loc 1 349 15 view .LVU193
 790 0050 0193     		str	r3, [sp, #4]
 791 0052 5BE0     		b	.L66
 792              	.LVL77:
 793              	.L68:
 794              	.LBB39:
 795              	.LBB40:
 350:Src/draw.c    ****   {
 351:Src/draw.c    ****     for (int8_t x = -rz; x <= rz; x++)
 352:Src/draw.c    ****     {
 353:Src/draw.c    ****       coords = (x + rz) + ((y + rz) * NCOLS);
 354:Src/draw.c    ****       setColor(backLayer[coords], noteBuffer[orientation].color);
 355:Src/draw.c    ****       for (int8_t i = 0; i < MAX_DIV - 1; i++)
 796              		.loc 1 355 44 discriminator 2 view .LVU194
 797 0054 0134     		adds	r4, r4, #1
 798              	.LVL78:
 799              		.loc 1 355 44 discriminator 2 view .LVU195
 800 0056 64B2     		sxtb	r4, r4
 801              	.LVL79:
 802              	.L67:
 803              		.loc 1 355 38 discriminator 1 view .LVU196
 804 0058 334B     		ldr	r3, .L80+8
 805 005a 1D78     		ldrb	r5, [r3]	@ zero_extendqisi2
 806 005c 6B1E     		subs	r3, r5, #1
 807              		.loc 1 355 7 discriminator 1 view .LVU197
 808 005e 9C42     		cmp	r4, r3
 809 0060 2EDA     		bge	.L71
 810              	.LBB41:
 356:Src/draw.c    ****       {
 357:Src/draw.c    ****         float layer = ((float)(i + 1) / MAX_DIV);
 811              		.loc 1 357 9 is_stmt 1 view .LVU198
 812              		.loc 1 357 34 is_stmt 0 view .LVU199
ARM GAS  /var/folders/hv/f19l0kw128sbpybv1h43gz3c0000gn/T//ccsxUPDV.s 			page 23


 813 0062 661C     		adds	r6, r4, #1
 814              		.loc 1 357 24 view .LVU200
 815 0064 3046     		mov	r0, r6
 816 0066 FFF7FEFF 		bl	__aeabi_i2f
 817              	.LVL80:
 818 006a 0746     		mov	r7, r0
 819              		.loc 1 357 39 view .LVU201
 820 006c 2846     		mov	r0, r5
 821 006e FFF7FEFF 		bl	__aeabi_i2f
 822              	.LVL81:
 823              		.loc 1 357 15 view .LVU202
 824 0072 0146     		mov	r1, r0
 825 0074 3846     		mov	r0, r7
 826 0076 FFF7FEFF 		bl	__aeabi_fdiv
 827              	.LVL82:
 358:Src/draw.c    ****         if (callback(x, y, layer))
 828              		.loc 1 358 9 is_stmt 1 view .LVU203
 829              	.LBB42:
 830              	.LBI42:
 131:Src/draw.c    **** {
 831              		.loc 1 131 23 view .LVU204
 832              	.LBB43:
 133:Src/draw.c    ****   {
 833              		.loc 1 133 3 view .LVU205
 133:Src/draw.c    ****   {
 834              		.loc 1 133 7 is_stmt 0 view .LVU206
 835 007a 2C4B     		ldr	r3, .L80+12
 836 007c 1B68     		ldr	r3, [r3]
 133:Src/draw.c    ****   {
 837              		.loc 1 133 6 view .LVU207
 838 007e 002B     		cmp	r3, #0
 839 0080 E8D0     		beq	.L68
 135:Src/draw.c    ****   }
 840              		.loc 1 135 5 is_stmt 1 view .LVU208
 135:Src/draw.c    ****   }
 841              		.loc 1 135 13 is_stmt 0 view .LVU209
 842 0082 0246     		mov	r2, r0
 843 0084 0199     		ldr	r1, [sp, #4]
 844 0086 4046     		mov	r0, r8
 845              	.LVL83:
 135:Src/draw.c    ****   }
 846              		.loc 1 135 13 view .LVU210
 847 0088 9847     		blx	r3
 848              	.LVL84:
 135:Src/draw.c    ****   }
 849              		.loc 1 135 13 view .LVU211
 850              	.LBE43:
 851              	.LBE42:
 852              		.loc 1 358 12 view .LVU212
 853 008a 0028     		cmp	r0, #0
 854 008c E2D0     		beq	.L68
 855              	.LBB44:
 359:Src/draw.c    ****         {
 360:Src/draw.c    ****           for (uint8_t j = 0; j < 3; j++)
 856              		.loc 1 360 24 view .LVU213
 857 008e 0023     		movs	r3, #0
 858              	.L69:
ARM GAS  /var/folders/hv/f19l0kw128sbpybv1h43gz3c0000gn/T//ccsxUPDV.s 			page 24


 859              	.LVL85:
 860              		.loc 1 360 11 discriminator 1 view .LVU214
 861 0090 022B     		cmp	r3, #2
 862 0092 15D8     		bhi	.L71
 361:Src/draw.c    ****           {
 362:Src/draw.c    ****             backLayer[coords][j] = noteBuffer[invO].color[j] + ((i + 1) * diff[j]);
 863              		.loc 1 362 13 is_stmt 1 discriminator 3 view .LVU215
 864              		.loc 1 362 58 is_stmt 0 discriminator 3 view .LVU216
 865 0094 4FEA4A01 		lsl	r1, r10, #1
 866 0098 5144     		add	r1, r1, r10
 867 009a 4800     		lsls	r0, r1, #1
 868 009c 214A     		ldr	r2, .L80+4
 869 009e 0244     		add	r2, r2, r0
 870 00a0 1A44     		add	r2, r2, r3
 871 00a2 D278     		ldrb	r2, [r2, #3]	@ zero_extendqisi2
 872              		.loc 1 362 79 discriminator 3 view .LVU217
 873 00a4 04A9     		add	r1, sp, #16
 874 00a6 1944     		add	r1, r1, r3
 875 00a8 11F9041C 		ldrsb	r1, [r1, #-4]
 876              		.loc 1 362 62 discriminator 3 view .LVU218
 877 00ac 06FB0121 		mla	r1, r6, r1, r2
 878              		.loc 1 362 34 discriminator 3 view .LVU219
 879 00b0 09EB4900 		add	r0, r9, r9, lsl #1
 880 00b4 1E4A     		ldr	r2, .L80+16
 881 00b6 0244     		add	r2, r2, r0
 882 00b8 D154     		strb	r1, [r2, r3]
 360:Src/draw.c    ****           {
 883              		.loc 1 360 39 discriminator 3 view .LVU220
 884 00ba 0133     		adds	r3, r3, #1
 885              	.LVL86:
 360:Src/draw.c    ****           {
 886              		.loc 1 360 39 discriminator 3 view .LVU221
 887 00bc DBB2     		uxtb	r3, r3
 888              	.LVL87:
 360:Src/draw.c    ****           {
 889              		.loc 1 360 39 discriminator 3 view .LVU222
 890 00be E7E7     		b	.L69
 891              	.LVL88:
 892              	.L71:
 360:Src/draw.c    ****           {
 893              		.loc 1 360 39 discriminator 3 view .LVU223
 894              	.LBE44:
 895              	.LBE41:
 896              	.LBE40:
 351:Src/draw.c    ****     {
 897              		.loc 1 351 36 discriminator 2 view .LVU224
 898 00c0 08F10108 		add	r8, r8, #1
 899              	.LVL89:
 351:Src/draw.c    ****     {
 900              		.loc 1 351 36 discriminator 2 view .LVU225
 901 00c4 4FFA88F8 		sxtb	r8, r8
 902              	.LVL90:
 903              	.L74:
 351:Src/draw.c    ****     {
 904              		.loc 1 351 5 discriminator 1 view .LVU226
 905 00c8 B8F1080F 		cmp	r8, #8
 906 00cc 1ADC     		bgt	.L78
ARM GAS  /var/folders/hv/f19l0kw128sbpybv1h43gz3c0000gn/T//ccsxUPDV.s 			page 25


 353:Src/draw.c    ****       setColor(backLayer[coords], noteBuffer[orientation].color);
 907              		.loc 1 353 7 is_stmt 1 view .LVU227
 353:Src/draw.c    ****       setColor(backLayer[coords], noteBuffer[orientation].color);
 908              		.loc 1 353 19 is_stmt 0 view .LVU228
 909 00ce 08F10809 		add	r9, r8, #8
 910 00d2 1FFA89F9 		uxth	r9, r9
 353:Src/draw.c    ****       setColor(backLayer[coords], noteBuffer[orientation].color);
 911              		.loc 1 353 31 view .LVU229
 912 00d6 0BF10803 		add	r3, fp, #8
 353:Src/draw.c    ****       setColor(backLayer[coords], noteBuffer[orientation].color);
 913              		.loc 1 353 25 view .LVU230
 914 00da 1B01     		lsls	r3, r3, #4
 915 00dc 9BB2     		uxth	r3, r3
 353:Src/draw.c    ****       setColor(backLayer[coords], noteBuffer[orientation].color);
 916              		.loc 1 353 14 view .LVU231
 917 00de 9944     		add	r9, r9, r3
 918 00e0 1FFA89F9 		uxth	r9, r9
 354:Src/draw.c    ****       for (int8_t i = 0; i < MAX_DIV - 1; i++)
 919              		.loc 1 354 7 is_stmt 1 view .LVU232
 354:Src/draw.c    ****       for (int8_t i = 0; i < MAX_DIV - 1; i++)
 920              		.loc 1 354 25 is_stmt 0 view .LVU233
 921 00e4 09EB4902 		add	r2, r9, r9, lsl #1
 354:Src/draw.c    ****       for (int8_t i = 0; i < MAX_DIV - 1; i++)
 922              		.loc 1 354 58 view .LVU234
 923 00e8 0D4B     		ldr	r3, .L80
 924 00ea 1B78     		ldrb	r3, [r3]	@ zero_extendqisi2
 925 00ec 03EB4303 		add	r3, r3, r3, lsl #1
 926 00f0 5900     		lsls	r1, r3, #1
 927 00f2 0C4B     		ldr	r3, .L80+4
 928 00f4 1944     		add	r1, r1, r3
 354:Src/draw.c    ****       for (int8_t i = 0; i < MAX_DIV - 1; i++)
 929              		.loc 1 354 7 view .LVU235
 930 00f6 0331     		adds	r1, r1, #3
 931 00f8 0D48     		ldr	r0, .L80+16
 932 00fa 1044     		add	r0, r0, r2
 933 00fc FFF7FEFF 		bl	setColor
 934              	.LVL91:
 355:Src/draw.c    ****       {
 935              		.loc 1 355 7 is_stmt 1 view .LVU236
 936              	.LBB45:
 355:Src/draw.c    ****       {
 937              		.loc 1 355 12 view .LVU237
 355:Src/draw.c    ****       {
 938              		.loc 1 355 19 is_stmt 0 view .LVU238
 939 0100 0024     		movs	r4, #0
 355:Src/draw.c    ****       {
 940              		.loc 1 355 7 view .LVU239
 941 0102 A9E7     		b	.L67
 942              	.LVL92:
 943              	.L78:
 355:Src/draw.c    ****       {
 944              		.loc 1 355 7 view .LVU240
 945              	.LBE45:
 946              	.LBE39:
 349:Src/draw.c    ****   {
 947              		.loc 1 349 34 discriminator 2 view .LVU241
 948 0104 019B     		ldr	r3, [sp, #4]
ARM GAS  /var/folders/hv/f19l0kw128sbpybv1h43gz3c0000gn/T//ccsxUPDV.s 			page 26


 949 0106 0133     		adds	r3, r3, #1
 950 0108 5BB2     		sxtb	r3, r3
 951 010a 0193     		str	r3, [sp, #4]
 952              	.LVL93:
 953              	.L66:
 349:Src/draw.c    ****   {
 954              		.loc 1 349 26 discriminator 1 view .LVU242
 955 010c 019B     		ldr	r3, [sp, #4]
 956 010e 9B46     		mov	fp, r3
 349:Src/draw.c    ****   {
 957              		.loc 1 349 3 discriminator 1 view .LVU243
 958 0110 082B     		cmp	r3, #8
 959 0112 02DC     		bgt	.L79
 960              	.LBB46:
 351:Src/draw.c    ****     {
 961              		.loc 1 351 17 view .LVU244
 962 0114 6FF00708 		mvn	r8, #7
 963 0118 D6E7     		b	.L74
 964              	.L79:
 965              	.LBE46:
 966              	.LBE38:
 363:Src/draw.c    ****           }
 364:Src/draw.c    ****           break;
 365:Src/draw.c    ****         }
 366:Src/draw.c    ****       }
 367:Src/draw.c    ****     }
 368:Src/draw.c    ****   }
 369:Src/draw.c    **** }
 967              		.loc 1 369 1 view .LVU245
 968 011a 05B0     		add	sp, sp, #20
 969              	.LCFI10:
 970              		.cfi_def_cfa_offset 36
 971              		@ sp needed
 972 011c BDE8F08F 		pop	{r4, r5, r6, r7, r8, r9, r10, fp, pc}
 973              	.LVL94:
 974              	.L81:
 975              		.loc 1 369 1 view .LVU246
 976              		.align	2
 977              	.L80:
 978 0120 00000000 		.word	.LANCHOR1
 979 0124 00000000 		.word	noteBuffer
 980 0128 00000000 		.word	.LANCHOR2
 981 012c 00000000 		.word	callback_function
 982 0130 00000000 		.word	backLayer
 983              		.cfi_endproc
 984              	.LFE74:
 986              		.global	__aeabi_fmul
 987              		.global	__aeabi_fcmple
 988              		.section	.text.circle,"ax",%progbits
 989              		.align	1
 990              		.global	circle
 991              		.syntax unified
 992              		.thumb
 993              		.thumb_func
 994              		.fpu softvfp
 996              	circle:
 997              	.LVL95:
ARM GAS  /var/folders/hv/f19l0kw128sbpybv1h43gz3c0000gn/T//ccsxUPDV.s 			page 27


 998              	.LFB75:
 370:Src/draw.c    **** uint8_t circle(int8_t x, int8_t y, float layer)
 371:Src/draw.c    **** {
 999              		.loc 1 371 1 is_stmt 1 view -0
 1000              		.cfi_startproc
 1001              		@ args = 0, pretend = 0, frame = 0
 1002              		@ frame_needed = 0, uses_anonymous_args = 0
 1003              		.loc 1 371 1 is_stmt 0 view .LVU248
 1004 0000 38B5     		push	{r3, r4, r5, lr}
 1005              	.LCFI11:
 1006              		.cfi_def_cfa_offset 16
 1007              		.cfi_offset 3, -16
 1008              		.cfi_offset 4, -12
 1009              		.cfi_offset 5, -8
 1010              		.cfi_offset 14, -4
 372:Src/draw.c    ****   float z = ((float)NCOLS / 2);
 1011              		.loc 1 372 3 is_stmt 1 view .LVU249
 1012              	.LVL96:
 373:Src/draw.c    ****   return ((x * x) + (y * y) <= (z * z) * layer);
 1013              		.loc 1 373 3 view .LVU250
 1014              		.loc 1 373 24 is_stmt 0 view .LVU251
 1015 0002 01FB01F1 		mul	r1, r1, r1
 1016              	.LVL97:
 1017              		.loc 1 373 19 view .LVU252
 1018 0006 00FB0014 		mla	r4, r0, r0, r1
 1019              		.loc 1 373 40 view .LVU253
 1020 000a 4FF08541 		mov	r1, #1115684864
 1021 000e 1046     		mov	r0, r2
 1022              	.LVL98:
 1023              		.loc 1 373 40 view .LVU254
 1024 0010 FFF7FEFF 		bl	__aeabi_fmul
 1025              	.LVL99:
 1026              		.loc 1 373 40 view .LVU255
 1027 0014 0546     		mov	r5, r0
 1028              		.loc 1 373 29 view .LVU256
 1029 0016 2046     		mov	r0, r4
 1030 0018 FFF7FEFF 		bl	__aeabi_i2f
 1031              	.LVL100:
 1032 001c 4FF00104 		mov	r4, #1
 1033 0020 2946     		mov	r1, r5
 1034 0022 FFF7FEFF 		bl	__aeabi_fcmple
 1035              	.LVL101:
 1036 0026 08B9     		cbnz	r0, .L83
 1037 0028 4FF00004 		mov	r4, #0
 1038              	.L83:
 374:Src/draw.c    **** }
 1039              		.loc 1 374 1 view .LVU257
 1040 002c 04F00100 		and	r0, r4, #1
 1041 0030 38BD     		pop	{r3, r4, r5, pc}
 1042              		.cfi_endproc
 1043              	.LFE75:
 1045              		.global	__aeabi_fcmpge
 1046              		.section	.text.square,"ax",%progbits
 1047              		.align	1
 1048              		.global	square
 1049              		.syntax unified
 1050              		.thumb
ARM GAS  /var/folders/hv/f19l0kw128sbpybv1h43gz3c0000gn/T//ccsxUPDV.s 			page 28


 1051              		.thumb_func
 1052              		.fpu softvfp
 1054              	square:
 1055              	.LVL102:
 1056              	.LFB76:
 375:Src/draw.c    **** 
 376:Src/draw.c    **** uint8_t square(int8_t x, int8_t y, float layer)
 377:Src/draw.c    **** {
 1057              		.loc 1 377 1 is_stmt 1 view -0
 1058              		.cfi_startproc
 1059              		@ args = 0, pretend = 0, frame = 0
 1060              		@ frame_needed = 0, uses_anonymous_args = 0
 1061              		.loc 1 377 1 is_stmt 0 view .LVU259
 1062 0000 F8B5     		push	{r3, r4, r5, r6, r7, lr}
 1063              	.LCFI12:
 1064              		.cfi_def_cfa_offset 24
 1065              		.cfi_offset 3, -24
 1066              		.cfi_offset 4, -20
 1067              		.cfi_offset 5, -16
 1068              		.cfi_offset 6, -12
 1069              		.cfi_offset 7, -8
 1070              		.cfi_offset 14, -4
 1071 0002 0546     		mov	r5, r0
 1072 0004 0F46     		mov	r7, r1
 378:Src/draw.c    ****   float z = ((float)NCOLS / 2);
 1073              		.loc 1 378 3 is_stmt 1 view .LVU260
 1074              	.LVL103:
 379:Src/draw.c    ****   float perc = layer * z;
 1075              		.loc 1 379 3 view .LVU261
 1076              		.loc 1 379 9 is_stmt 0 view .LVU262
 1077 0006 4FF08241 		mov	r1, #1090519040
 1078              	.LVL104:
 1079              		.loc 1 379 9 view .LVU263
 1080 000a 1046     		mov	r0, r2
 1081              	.LVL105:
 1082              		.loc 1 379 9 view .LVU264
 1083 000c FFF7FEFF 		bl	__aeabi_fmul
 1084              	.LVL106:
 1085              		.loc 1 379 9 view .LVU265
 1086 0010 0446     		mov	r4, r0
 1087              	.LVL107:
 380:Src/draw.c    ****   return ((x >= -perc && x <= perc) && (y >= -perc && y <= perc));
 1088              		.loc 1 380 3 is_stmt 1 view .LVU266
 1089              		.loc 1 380 14 is_stmt 0 view .LVU267
 1090 0012 2846     		mov	r0, r5
 1091              	.LVL108:
 1092              		.loc 1 380 14 view .LVU268
 1093 0014 FFF7FEFF 		bl	__aeabi_i2f
 1094              	.LVL109:
 1095 0018 0646     		mov	r6, r0
 1096              		.loc 1 380 17 view .LVU269
 1097 001a 04F10045 		add	r5, r4, #-2147483648
 1098              		.loc 1 380 37 view .LVU270
 1099 001e 2946     		mov	r1, r5
 1100 0020 FFF7FEFF 		bl	__aeabi_fcmpge
 1101              	.LVL110:
 1102 0024 A0B1     		cbz	r0, .L97
ARM GAS  /var/folders/hv/f19l0kw128sbpybv1h43gz3c0000gn/T//ccsxUPDV.s 			page 29


 1103              		.loc 1 380 23 discriminator 1 view .LVU271
 1104 0026 2146     		mov	r1, r4
 1105 0028 3046     		mov	r0, r6
 1106 002a FFF7FEFF 		bl	__aeabi_fcmple
 1107              	.LVL111:
 1108 002e 88B1     		cbz	r0, .L98
 1109              		.loc 1 380 43 discriminator 3 view .LVU272
 1110 0030 3846     		mov	r0, r7
 1111 0032 FFF7FEFF 		bl	__aeabi_i2f
 1112              	.LVL112:
 1113 0036 0646     		mov	r6, r0
 1114              		.loc 1 380 37 discriminator 3 view .LVU273
 1115 0038 0146     		mov	r1, r0
 1116 003a 2846     		mov	r0, r5
 1117 003c FFF7FEFF 		bl	__aeabi_fcmple
 1118              	.LVL113:
 1119 0040 50B1     		cbz	r0, .L99
 1120              		.loc 1 380 52 discriminator 5 view .LVU274
 1121 0042 2146     		mov	r1, r4
 1122 0044 3046     		mov	r0, r6
 1123 0046 FFF7FEFF 		bl	__aeabi_fcmple
 1124              	.LVL114:
 1125 004a 10B1     		cbz	r0, .L86
 1126              		.loc 1 380 37 view .LVU275
 1127 004c 0120     		movs	r0, #1
 1128 004e 00E0     		b	.L86
 1129              	.L97:
 1130 0050 0020     		movs	r0, #0
 1131              	.L86:
 381:Src/draw.c    **** }
 1132              		.loc 1 381 1 discriminator 10 view .LVU276
 1133 0052 F8BD     		pop	{r3, r4, r5, r6, r7, pc}
 1134              	.LVL115:
 1135              	.L98:
 380:Src/draw.c    ****   return ((x >= -perc && x <= perc) && (y >= -perc && y <= perc));
 1136              		.loc 1 380 37 view .LVU277
 1137 0054 0020     		movs	r0, #0
 1138 0056 FCE7     		b	.L86
 1139              	.L99:
 1140 0058 0020     		movs	r0, #0
 1141 005a FAE7     		b	.L86
 1142              		.cfi_endproc
 1143              	.LFE76:
 1145              		.global	__aeabi_fsub
 1146              		.section	.text.cross,"ax",%progbits
 1147              		.align	1
 1148              		.global	cross
 1149              		.syntax unified
 1150              		.thumb
 1151              		.thumb_func
 1152              		.fpu softvfp
 1154              	cross:
 1155              	.LVL116:
 1156              	.LFB77:
 382:Src/draw.c    **** 
 383:Src/draw.c    **** uint8_t cross(int8_t x, int8_t y, float layer)
 384:Src/draw.c    **** {
ARM GAS  /var/folders/hv/f19l0kw128sbpybv1h43gz3c0000gn/T//ccsxUPDV.s 			page 30


 1157              		.loc 1 384 1 is_stmt 1 view -0
 1158              		.cfi_startproc
 1159              		@ args = 0, pretend = 0, frame = 0
 1160              		@ frame_needed = 0, uses_anonymous_args = 0
 1161              		.loc 1 384 1 is_stmt 0 view .LVU279
 1162 0000 F8B5     		push	{r3, r4, r5, r6, r7, lr}
 1163              	.LCFI13:
 1164              		.cfi_def_cfa_offset 24
 1165              		.cfi_offset 3, -24
 1166              		.cfi_offset 4, -20
 1167              		.cfi_offset 5, -16
 1168              		.cfi_offset 6, -12
 1169              		.cfi_offset 7, -8
 1170              		.cfi_offset 14, -4
 1171 0002 0546     		mov	r5, r0
 1172 0004 0E46     		mov	r6, r1
 385:Src/draw.c    ****   float z = ((float)NCOLS / 2);
 1173              		.loc 1 385 3 is_stmt 1 view .LVU280
 1174              	.LVL117:
 386:Src/draw.c    ****   float perc = z - layer * z;
 1175              		.loc 1 386 3 view .LVU281
 1176              		.loc 1 386 26 is_stmt 0 view .LVU282
 1177 0006 4FF08241 		mov	r1, #1090519040
 1178              	.LVL118:
 1179              		.loc 1 386 26 view .LVU283
 1180 000a 1046     		mov	r0, r2
 1181              	.LVL119:
 1182              		.loc 1 386 26 view .LVU284
 1183 000c FFF7FEFF 		bl	__aeabi_fmul
 1184              	.LVL120:
 1185              		.loc 1 386 9 view .LVU285
 1186 0010 0146     		mov	r1, r0
 1187 0012 4FF08240 		mov	r0, #1090519040
 1188 0016 FFF7FEFF 		bl	__aeabi_fsub
 1189              	.LVL121:
 1190 001a 0446     		mov	r4, r0
 1191              	.LVL122:
 387:Src/draw.c    ****   return ((x <= -perc || x >= perc) && (y <= -perc || y >= perc));
 1192              		.loc 1 387 3 is_stmt 1 view .LVU286
 1193              		.loc 1 387 14 is_stmt 0 view .LVU287
 1194 001c 2846     		mov	r0, r5
 1195              	.LVL123:
 1196              		.loc 1 387 14 view .LVU288
 1197 001e FFF7FEFF 		bl	__aeabi_i2f
 1198              	.LVL124:
 1199 0022 0746     		mov	r7, r0
 1200              		.loc 1 387 17 view .LVU289
 1201 0024 04F10045 		add	r5, r4, #-2147483648
 1202              		.loc 1 387 37 view .LVU290
 1203 0028 2946     		mov	r1, r5
 1204 002a FFF7FEFF 		bl	__aeabi_fcmple
 1205              	.LVL125:
 1206 002e 20B9     		cbnz	r0, .L102
 1207              		.loc 1 387 23 discriminator 2 view .LVU291
 1208 0030 2146     		mov	r1, r4
 1209 0032 3846     		mov	r0, r7
 1210 0034 FFF7FEFF 		bl	__aeabi_fcmpge
ARM GAS  /var/folders/hv/f19l0kw128sbpybv1h43gz3c0000gn/T//ccsxUPDV.s 			page 31


 1211              	.LVL126:
 1212 0038 78B1     		cbz	r0, .L108
 1213              	.L102:
 1214              		.loc 1 387 43 discriminator 3 view .LVU292
 1215 003a 3046     		mov	r0, r6
 1216 003c FFF7FEFF 		bl	__aeabi_i2f
 1217              	.LVL127:
 1218 0040 0646     		mov	r6, r0
 1219              		.loc 1 387 37 discriminator 3 view .LVU293
 1220 0042 0146     		mov	r1, r0
 1221 0044 2846     		mov	r0, r5
 1222 0046 FFF7FEFF 		bl	__aeabi_fcmpge
 1223              	.LVL128:
 1224 004a 40B9     		cbnz	r0, .L106
 1225              		.loc 1 387 52 discriminator 6 view .LVU294
 1226 004c 2146     		mov	r1, r4
 1227 004e 3046     		mov	r0, r6
 1228 0050 FFF7FEFF 		bl	__aeabi_fcmpge
 1229              	.LVL129:
 1230 0054 20B1     		cbz	r0, .L103
 1231              		.loc 1 387 37 view .LVU295
 1232 0056 0120     		movs	r0, #1
 1233 0058 02E0     		b	.L103
 1234              	.L108:
 1235              		.loc 1 387 37 view .LVU296
 1236 005a 0020     		movs	r0, #0
 1237 005c 00E0     		b	.L103
 1238              	.L106:
 1239 005e 0120     		movs	r0, #1
 1240              	.L103:
 388:Src/draw.c    **** }
 1241              		.loc 1 388 1 discriminator 10 view .LVU297
 1242 0060 F8BD     		pop	{r3, r4, r5, r6, r7, pc}
 1243              		.loc 1 388 1 discriminator 10 view .LVU298
 1244              		.cfi_endproc
 1245              	.LFE77:
 1247              		.section	.text.horizontal,"ax",%progbits
 1248              		.align	1
 1249              		.global	horizontal
 1250              		.syntax unified
 1251              		.thumb
 1252              		.thumb_func
 1253              		.fpu softvfp
 1255              	horizontal:
 1256              	.LVL130:
 1257              	.LFB78:
 389:Src/draw.c    **** 
 390:Src/draw.c    **** uint8_t horizontal(int8_t x, int8_t y, float layer)
 391:Src/draw.c    **** {
 1258              		.loc 1 391 1 is_stmt 1 view -0
 1259              		.cfi_startproc
 1260              		@ args = 0, pretend = 0, frame = 0
 1261              		@ frame_needed = 0, uses_anonymous_args = 0
 1262              		.loc 1 391 1 is_stmt 0 view .LVU300
 1263 0000 F8B5     		push	{r3, r4, r5, r6, r7, lr}
 1264              	.LCFI14:
 1265              		.cfi_def_cfa_offset 24
ARM GAS  /var/folders/hv/f19l0kw128sbpybv1h43gz3c0000gn/T//ccsxUPDV.s 			page 32


 1266              		.cfi_offset 3, -24
 1267              		.cfi_offset 4, -20
 1268              		.cfi_offset 5, -16
 1269              		.cfi_offset 6, -12
 1270              		.cfi_offset 7, -8
 1271              		.cfi_offset 14, -4
 1272 0002 0546     		mov	r5, r0
 1273 0004 0E46     		mov	r6, r1
 392:Src/draw.c    ****   float z = ((float)NCOLS / 2);
 1274              		.loc 1 392 3 is_stmt 1 view .LVU301
 1275              	.LVL131:
 393:Src/draw.c    ****   float perc = z - layer * z;
 1276              		.loc 1 393 3 view .LVU302
 1277              		.loc 1 393 26 is_stmt 0 view .LVU303
 1278 0006 4FF08241 		mov	r1, #1090519040
 1279              	.LVL132:
 1280              		.loc 1 393 26 view .LVU304
 1281 000a 1046     		mov	r0, r2
 1282              	.LVL133:
 1283              		.loc 1 393 26 view .LVU305
 1284 000c FFF7FEFF 		bl	__aeabi_fmul
 1285              	.LVL134:
 1286              		.loc 1 393 9 view .LVU306
 1287 0010 0146     		mov	r1, r0
 1288 0012 4FF08240 		mov	r0, #1090519040
 1289 0016 FFF7FEFF 		bl	__aeabi_fsub
 1290              	.LVL135:
 1291 001a 0446     		mov	r4, r0
 1292              	.LVL136:
 394:Src/draw.c    ****   return ((x >= -perc || x <= perc) && (y <= -perc || y >= perc));
 1293              		.loc 1 394 3 is_stmt 1 view .LVU307
 1294              		.loc 1 394 14 is_stmt 0 view .LVU308
 1295 001c 2846     		mov	r0, r5
 1296              	.LVL137:
 1297              		.loc 1 394 14 view .LVU309
 1298 001e FFF7FEFF 		bl	__aeabi_i2f
 1299              	.LVL138:
 1300 0022 0746     		mov	r7, r0
 1301              		.loc 1 394 17 view .LVU310
 1302 0024 04F10045 		add	r5, r4, #-2147483648
 1303              		.loc 1 394 37 view .LVU311
 1304 0028 2946     		mov	r1, r5
 1305 002a FFF7FEFF 		bl	__aeabi_fcmpge
 1306              	.LVL139:
 1307 002e 20B9     		cbnz	r0, .L111
 1308              		.loc 1 394 23 discriminator 2 view .LVU312
 1309 0030 2146     		mov	r1, r4
 1310 0032 3846     		mov	r0, r7
 1311 0034 FFF7FEFF 		bl	__aeabi_fcmple
 1312              	.LVL140:
 1313 0038 78B1     		cbz	r0, .L117
 1314              	.L111:
 1315              		.loc 1 394 43 discriminator 3 view .LVU313
 1316 003a 3046     		mov	r0, r6
 1317 003c FFF7FEFF 		bl	__aeabi_i2f
 1318              	.LVL141:
 1319 0040 0646     		mov	r6, r0
ARM GAS  /var/folders/hv/f19l0kw128sbpybv1h43gz3c0000gn/T//ccsxUPDV.s 			page 33


 1320              		.loc 1 394 37 discriminator 3 view .LVU314
 1321 0042 0146     		mov	r1, r0
 1322 0044 2846     		mov	r0, r5
 1323 0046 FFF7FEFF 		bl	__aeabi_fcmpge
 1324              	.LVL142:
 1325 004a 40B9     		cbnz	r0, .L115
 1326              		.loc 1 394 52 discriminator 6 view .LVU315
 1327 004c 2146     		mov	r1, r4
 1328 004e 3046     		mov	r0, r6
 1329 0050 FFF7FEFF 		bl	__aeabi_fcmpge
 1330              	.LVL143:
 1331 0054 20B1     		cbz	r0, .L112
 1332              		.loc 1 394 37 view .LVU316
 1333 0056 0120     		movs	r0, #1
 1334 0058 02E0     		b	.L112
 1335              	.L117:
 1336              		.loc 1 394 37 view .LVU317
 1337 005a 0020     		movs	r0, #0
 1338 005c 00E0     		b	.L112
 1339              	.L115:
 1340 005e 0120     		movs	r0, #1
 1341              	.L112:
 395:Src/draw.c    **** }
 1342              		.loc 1 395 1 discriminator 10 view .LVU318
 1343 0060 F8BD     		pop	{r3, r4, r5, r6, r7, pc}
 1344              		.loc 1 395 1 discriminator 10 view .LVU319
 1345              		.cfi_endproc
 1346              	.LFE78:
 1348              		.section	.text.vertical,"ax",%progbits
 1349              		.align	1
 1350              		.global	vertical
 1351              		.syntax unified
 1352              		.thumb
 1353              		.thumb_func
 1354              		.fpu softvfp
 1356              	vertical:
 1357              	.LVL144:
 1358              	.LFB79:
 396:Src/draw.c    **** 
 397:Src/draw.c    **** uint8_t vertical(int8_t x, int8_t y, float layer)
 398:Src/draw.c    **** {
 1359              		.loc 1 398 1 is_stmt 1 view -0
 1360              		.cfi_startproc
 1361              		@ args = 0, pretend = 0, frame = 0
 1362              		@ frame_needed = 0, uses_anonymous_args = 0
 1363              		.loc 1 398 1 is_stmt 0 view .LVU321
 1364 0000 F8B5     		push	{r3, r4, r5, r6, r7, lr}
 1365              	.LCFI15:
 1366              		.cfi_def_cfa_offset 24
 1367              		.cfi_offset 3, -24
 1368              		.cfi_offset 4, -20
 1369              		.cfi_offset 5, -16
 1370              		.cfi_offset 6, -12
 1371              		.cfi_offset 7, -8
 1372              		.cfi_offset 14, -4
 1373 0002 0546     		mov	r5, r0
 1374 0004 0E46     		mov	r6, r1
ARM GAS  /var/folders/hv/f19l0kw128sbpybv1h43gz3c0000gn/T//ccsxUPDV.s 			page 34


 399:Src/draw.c    ****   float z = ((float)NCOLS / 2);
 1375              		.loc 1 399 3 is_stmt 1 view .LVU322
 1376              	.LVL145:
 400:Src/draw.c    ****   float perc = z - layer * z;
 1377              		.loc 1 400 3 view .LVU323
 1378              		.loc 1 400 26 is_stmt 0 view .LVU324
 1379 0006 4FF08241 		mov	r1, #1090519040
 1380              	.LVL146:
 1381              		.loc 1 400 26 view .LVU325
 1382 000a 1046     		mov	r0, r2
 1383              	.LVL147:
 1384              		.loc 1 400 26 view .LVU326
 1385 000c FFF7FEFF 		bl	__aeabi_fmul
 1386              	.LVL148:
 1387              		.loc 1 400 9 view .LVU327
 1388 0010 0146     		mov	r1, r0
 1389 0012 4FF08240 		mov	r0, #1090519040
 1390 0016 FFF7FEFF 		bl	__aeabi_fsub
 1391              	.LVL149:
 1392 001a 0446     		mov	r4, r0
 1393              	.LVL150:
 401:Src/draw.c    ****   return ((x <= -perc || x >= perc) && (y >= -perc || y <= perc));
 1394              		.loc 1 401 3 is_stmt 1 view .LVU328
 1395              		.loc 1 401 14 is_stmt 0 view .LVU329
 1396 001c 2846     		mov	r0, r5
 1397              	.LVL151:
 1398              		.loc 1 401 14 view .LVU330
 1399 001e FFF7FEFF 		bl	__aeabi_i2f
 1400              	.LVL152:
 1401 0022 0746     		mov	r7, r0
 1402              		.loc 1 401 17 view .LVU331
 1403 0024 04F10045 		add	r5, r4, #-2147483648
 1404              		.loc 1 401 37 view .LVU332
 1405 0028 2946     		mov	r1, r5
 1406 002a FFF7FEFF 		bl	__aeabi_fcmple
 1407              	.LVL153:
 1408 002e 20B9     		cbnz	r0, .L120
 1409              		.loc 1 401 23 discriminator 2 view .LVU333
 1410 0030 2146     		mov	r1, r4
 1411 0032 3846     		mov	r0, r7
 1412 0034 FFF7FEFF 		bl	__aeabi_fcmpge
 1413              	.LVL154:
 1414 0038 78B1     		cbz	r0, .L126
 1415              	.L120:
 1416              		.loc 1 401 43 discriminator 3 view .LVU334
 1417 003a 3046     		mov	r0, r6
 1418 003c FFF7FEFF 		bl	__aeabi_i2f
 1419              	.LVL155:
 1420 0040 0646     		mov	r6, r0
 1421              		.loc 1 401 37 discriminator 3 view .LVU335
 1422 0042 0146     		mov	r1, r0
 1423 0044 2846     		mov	r0, r5
 1424 0046 FFF7FEFF 		bl	__aeabi_fcmple
 1425              	.LVL156:
 1426 004a 40B9     		cbnz	r0, .L124
 1427              		.loc 1 401 52 discriminator 6 view .LVU336
 1428 004c 2146     		mov	r1, r4
ARM GAS  /var/folders/hv/f19l0kw128sbpybv1h43gz3c0000gn/T//ccsxUPDV.s 			page 35


 1429 004e 3046     		mov	r0, r6
 1430 0050 FFF7FEFF 		bl	__aeabi_fcmple
 1431              	.LVL157:
 1432 0054 20B1     		cbz	r0, .L121
 1433              		.loc 1 401 37 view .LVU337
 1434 0056 0120     		movs	r0, #1
 1435 0058 02E0     		b	.L121
 1436              	.L126:
 1437              		.loc 1 401 37 view .LVU338
 1438 005a 0020     		movs	r0, #0
 1439 005c 00E0     		b	.L121
 1440              	.L124:
 1441 005e 0120     		movs	r0, #1
 1442              	.L121:
 402:Src/draw.c    **** }
 1443              		.loc 1 402 1 discriminator 10 view .LVU339
 1444 0060 F8BD     		pop	{r3, r4, r5, r6, r7, pc}
 1445              		.loc 1 402 1 discriminator 10 view .LVU340
 1446              		.cfi_endproc
 1447              	.LFE79:
 1449              		.section	.text.drawLine,"ax",%progbits
 1450              		.align	1
 1451              		.global	drawLine
 1452              		.syntax unified
 1453              		.thumb
 1454              		.thumb_func
 1455              		.fpu softvfp
 1457              	drawLine:
 1458              	.LVL158:
 1459              	.LFB80:
 403:Src/draw.c    **** 
 404:Src/draw.c    **** void drawLine(uint8_t px, uint8_t py, uint8_t *color)
 405:Src/draw.c    **** {
 1460              		.loc 1 405 1 is_stmt 1 view -0
 1461              		.cfi_startproc
 1462              		@ args = 0, pretend = 0, frame = 0
 1463              		@ frame_needed = 0, uses_anonymous_args = 0
 1464              		.loc 1 405 1 is_stmt 0 view .LVU342
 1465 0000 2DE9F041 		push	{r4, r5, r6, r7, r8, lr}
 1466              	.LCFI16:
 1467              		.cfi_def_cfa_offset 24
 1468              		.cfi_offset 4, -24
 1469              		.cfi_offset 5, -20
 1470              		.cfi_offset 6, -16
 1471              		.cfi_offset 7, -12
 1472              		.cfi_offset 8, -8
 1473              		.cfi_offset 14, -4
 1474 0004 0646     		mov	r6, r0
 1475 0006 0F46     		mov	r7, r1
 1476 0008 9046     		mov	r8, r2
 406:Src/draw.c    ****   for (int y = 0; y <= NCOLS; y++)
 1477              		.loc 1 406 3 is_stmt 1 view .LVU343
 1478              	.LBB47:
 1479              		.loc 1 406 8 view .LVU344
 1480              	.LVL159:
 1481              		.loc 1 406 12 is_stmt 0 view .LVU345
 1482 000a 0025     		movs	r5, #0
ARM GAS  /var/folders/hv/f19l0kw128sbpybv1h43gz3c0000gn/T//ccsxUPDV.s 			page 36


 1483              		.loc 1 406 3 view .LVU346
 1484 000c 11E0     		b	.L129
 1485              	.LVL160:
 1486              	.L130:
 1487              	.LBB48:
 407:Src/draw.c    ****   {
 408:Src/draw.c    ****     for (int x = 0; x <= NCOLS; x++)
 409:Src/draw.c    ****     {
 410:Src/draw.c    ****       if (x == px || y == py)
 411:Src/draw.c    ****       {
 412:Src/draw.c    ****         setColor(backLayer[x + (y * NCOLS)], color);
 1488              		.loc 1 412 9 is_stmt 1 view .LVU347
 1489              		.loc 1 412 30 is_stmt 0 view .LVU348
 1490 000e 04EB0510 		add	r0, r4, r5, lsl #4
 1491              		.loc 1 412 27 view .LVU349
 1492 0012 00EB4000 		add	r0, r0, r0, lsl #1
 1493              		.loc 1 412 9 view .LVU350
 1494 0016 4146     		mov	r1, r8
 1495 0018 094B     		ldr	r3, .L138
 1496 001a 1844     		add	r0, r0, r3
 1497 001c FFF7FEFF 		bl	setColor
 1498              	.LVL161:
 1499              	.L131:
 408:Src/draw.c    ****     {
 1500              		.loc 1 408 34 discriminator 2 view .LVU351
 1501 0020 0134     		adds	r4, r4, #1
 1502              	.LVL162:
 1503              	.L133:
 408:Src/draw.c    ****     {
 1504              		.loc 1 408 5 discriminator 1 view .LVU352
 1505 0022 102C     		cmp	r4, #16
 1506 0024 04DC     		bgt	.L136
 410:Src/draw.c    ****       {
 1507              		.loc 1 410 7 is_stmt 1 view .LVU353
 410:Src/draw.c    ****       {
 1508              		.loc 1 410 10 is_stmt 0 view .LVU354
 1509 0026 A642     		cmp	r6, r4
 1510 0028 F1D0     		beq	.L130
 410:Src/draw.c    ****       {
 1511              		.loc 1 410 19 discriminator 1 view .LVU355
 1512 002a AF42     		cmp	r7, r5
 1513 002c F8D1     		bne	.L131
 410:Src/draw.c    ****       {
 1514              		.loc 1 410 19 discriminator 1 view .LVU356
 1515 002e EEE7     		b	.L130
 1516              	.L136:
 410:Src/draw.c    ****       {
 1517              		.loc 1 410 19 discriminator 1 view .LVU357
 1518              	.LBE48:
 406:Src/draw.c    ****   {
 1519              		.loc 1 406 32 discriminator 2 view .LVU358
 1520 0030 0135     		adds	r5, r5, #1
 1521              	.LVL163:
 1522              	.L129:
 406:Src/draw.c    ****   {
 1523              		.loc 1 406 3 discriminator 1 view .LVU359
 1524 0032 102D     		cmp	r5, #16
ARM GAS  /var/folders/hv/f19l0kw128sbpybv1h43gz3c0000gn/T//ccsxUPDV.s 			page 37


 1525 0034 01DC     		bgt	.L137
 1526              	.LBB49:
 408:Src/draw.c    ****     {
 1527              		.loc 1 408 14 view .LVU360
 1528 0036 0024     		movs	r4, #0
 1529 0038 F3E7     		b	.L133
 1530              	.L137:
 1531              	.LBE49:
 1532              	.LBE47:
 413:Src/draw.c    ****       }
 414:Src/draw.c    ****     }
 415:Src/draw.c    ****   }
 416:Src/draw.c    **** }
 1533              		.loc 1 416 1 view .LVU361
 1534 003a BDE8F081 		pop	{r4, r5, r6, r7, r8, pc}
 1535              	.LVL164:
 1536              	.L139:
 1537              		.loc 1 416 1 view .LVU362
 1538 003e 00BF     		.align	2
 1539              	.L138:
 1540 0040 00000000 		.word	backLayer
 1541              		.cfi_endproc
 1542              	.LFE80:
 1544              		.section	.text.drawPixel,"ax",%progbits
 1545              		.align	1
 1546              		.global	drawPixel
 1547              		.syntax unified
 1548              		.thumb
 1549              		.thumb_func
 1550              		.fpu softvfp
 1552              	drawPixel:
 1553              	.LVL165:
 1554              	.LFB81:
 417:Src/draw.c    **** 
 418:Src/draw.c    **** void drawPixel(uint8_t px, uint8_t py, uint8_t *color)
 419:Src/draw.c    **** {
 1555              		.loc 1 419 1 is_stmt 1 view -0
 1556              		.cfi_startproc
 1557              		@ args = 0, pretend = 0, frame = 0
 1558              		@ frame_needed = 0, uses_anonymous_args = 0
 1559              		.loc 1 419 1 is_stmt 0 view .LVU364
 1560 0000 2DE9F041 		push	{r4, r5, r6, r7, r8, lr}
 1561              	.LCFI17:
 1562              		.cfi_def_cfa_offset 24
 1563              		.cfi_offset 4, -24
 1564              		.cfi_offset 5, -20
 1565              		.cfi_offset 6, -16
 1566              		.cfi_offset 7, -12
 1567              		.cfi_offset 8, -8
 1568              		.cfi_offset 14, -4
 1569 0004 0546     		mov	r5, r0
 1570 0006 0F46     		mov	r7, r1
 1571 0008 9046     		mov	r8, r2
 420:Src/draw.c    ****   for (int y = 0; y <= NCOLS; y++)
 1572              		.loc 1 420 3 is_stmt 1 view .LVU365
 1573              	.LBB50:
 1574              		.loc 1 420 8 view .LVU366
ARM GAS  /var/folders/hv/f19l0kw128sbpybv1h43gz3c0000gn/T//ccsxUPDV.s 			page 38


 1575              	.LVL166:
 1576              		.loc 1 420 12 is_stmt 0 view .LVU367
 1577 000a 0026     		movs	r6, #0
 1578              		.loc 1 420 3 view .LVU368
 1579 000c 11E0     		b	.L141
 1580              	.LVL167:
 1581              	.L142:
 1582              	.LBB51:
 421:Src/draw.c    ****   {
 422:Src/draw.c    ****     for (int x = 0; x <= NCOLS; x++)
 1583              		.loc 1 422 34 discriminator 2 view .LVU369
 1584 000e 0134     		adds	r4, r4, #1
 1585              	.LVL168:
 1586              	.L144:
 1587              		.loc 1 422 5 discriminator 1 view .LVU370
 1588 0010 102C     		cmp	r4, #16
 1589 0012 0DDC     		bgt	.L147
 423:Src/draw.c    ****     {
 424:Src/draw.c    ****       if (x == px && y == py)
 1590              		.loc 1 424 7 is_stmt 1 view .LVU371
 1591              		.loc 1 424 10 is_stmt 0 view .LVU372
 1592 0014 A542     		cmp	r5, r4
 1593 0016 FAD1     		bne	.L142
 1594              		.loc 1 424 19 discriminator 1 view .LVU373
 1595 0018 B742     		cmp	r7, r6
 1596 001a F8D1     		bne	.L142
 425:Src/draw.c    ****       {
 426:Src/draw.c    ****         setColor(backLayer[x + (y * NCOLS)], color);
 1597              		.loc 1 426 9 is_stmt 1 view .LVU374
 1598              		.loc 1 426 30 is_stmt 0 view .LVU375
 1599 001c 04EB0610 		add	r0, r4, r6, lsl #4
 1600              		.loc 1 426 27 view .LVU376
 1601 0020 00EB4000 		add	r0, r0, r0, lsl #1
 1602              		.loc 1 426 9 view .LVU377
 1603 0024 4146     		mov	r1, r8
 1604 0026 064B     		ldr	r3, .L149
 1605 0028 1844     		add	r0, r0, r3
 1606 002a FFF7FEFF 		bl	setColor
 1607              	.LVL169:
 1608 002e EEE7     		b	.L142
 1609              	.L147:
 1610              		.loc 1 426 9 view .LVU378
 1611              	.LBE51:
 420:Src/draw.c    ****   {
 1612              		.loc 1 420 32 discriminator 2 view .LVU379
 1613 0030 0136     		adds	r6, r6, #1
 1614              	.LVL170:
 1615              	.L141:
 420:Src/draw.c    ****   {
 1616              		.loc 1 420 3 discriminator 1 view .LVU380
 1617 0032 102E     		cmp	r6, #16
 1618 0034 01DC     		bgt	.L148
 1619              	.LBB52:
 422:Src/draw.c    ****     {
 1620              		.loc 1 422 14 view .LVU381
 1621 0036 0024     		movs	r4, #0
 1622 0038 EAE7     		b	.L144
ARM GAS  /var/folders/hv/f19l0kw128sbpybv1h43gz3c0000gn/T//ccsxUPDV.s 			page 39


 1623              	.L148:
 1624              	.LBE52:
 1625              	.LBE50:
 427:Src/draw.c    ****       }
 428:Src/draw.c    ****     }
 429:Src/draw.c    ****   }
 430:Src/draw.c    **** }
 1626              		.loc 1 430 1 view .LVU382
 1627 003a BDE8F081 		pop	{r4, r5, r6, r7, r8, pc}
 1628              	.LVL171:
 1629              	.L150:
 1630              		.loc 1 430 1 view .LVU383
 1631 003e 00BF     		.align	2
 1632              	.L149:
 1633 0040 00000000 		.word	backLayer
 1634              		.cfi_endproc
 1635              	.LFE81:
 1637              		.section	.text.drawColor,"ax",%progbits
 1638              		.align	1
 1639              		.global	drawColor
 1640              		.syntax unified
 1641              		.thumb
 1642              		.thumb_func
 1643              		.fpu softvfp
 1645              	drawColor:
 1646              	.LVL172:
 1647              	.LFB82:
 431:Src/draw.c    **** 
 432:Src/draw.c    **** void drawColor(uint8_t *color)
 433:Src/draw.c    **** {
 1648              		.loc 1 433 1 is_stmt 1 view -0
 1649              		.cfi_startproc
 1650              		@ args = 0, pretend = 0, frame = 0
 1651              		@ frame_needed = 0, uses_anonymous_args = 0
 1652              		.loc 1 433 1 is_stmt 0 view .LVU385
 1653 0000 70B5     		push	{r4, r5, r6, lr}
 1654              	.LCFI18:
 1655              		.cfi_def_cfa_offset 16
 1656              		.cfi_offset 4, -16
 1657              		.cfi_offset 5, -12
 1658              		.cfi_offset 6, -8
 1659              		.cfi_offset 14, -4
 1660 0002 0646     		mov	r6, r0
 434:Src/draw.c    ****   for (int y = 0; y <= NCOLS; y++)
 1661              		.loc 1 434 3 is_stmt 1 view .LVU386
 1662              	.LBB53:
 1663              		.loc 1 434 8 view .LVU387
 1664              	.LVL173:
 1665              		.loc 1 434 12 is_stmt 0 view .LVU388
 1666 0004 0025     		movs	r5, #0
 1667              		.loc 1 434 3 view .LVU389
 1668 0006 0CE0     		b	.L152
 1669              	.LVL174:
 1670              	.L153:
 1671              	.LBB54:
 435:Src/draw.c    ****   {
 436:Src/draw.c    ****     for (int x = 0; x <= NCOLS; x++)
ARM GAS  /var/folders/hv/f19l0kw128sbpybv1h43gz3c0000gn/T//ccsxUPDV.s 			page 40


 437:Src/draw.c    ****     {
 438:Src/draw.c    ****       setColor(backLayer[x + (y * NCOLS)], color);
 1672              		.loc 1 438 7 is_stmt 1 discriminator 3 view .LVU390
 1673              		.loc 1 438 28 is_stmt 0 discriminator 3 view .LVU391
 1674 0008 04EB0510 		add	r0, r4, r5, lsl #4
 1675              		.loc 1 438 25 discriminator 3 view .LVU392
 1676 000c 00EB4000 		add	r0, r0, r0, lsl #1
 1677              		.loc 1 438 7 discriminator 3 view .LVU393
 1678 0010 3146     		mov	r1, r6
 1679 0012 064B     		ldr	r3, .L158
 1680 0014 1844     		add	r0, r0, r3
 1681 0016 FFF7FEFF 		bl	setColor
 1682              	.LVL175:
 436:Src/draw.c    ****     {
 1683              		.loc 1 436 34 discriminator 3 view .LVU394
 1684 001a 0134     		adds	r4, r4, #1
 1685              	.LVL176:
 1686              	.L154:
 436:Src/draw.c    ****     {
 1687              		.loc 1 436 5 discriminator 1 view .LVU395
 1688 001c 102C     		cmp	r4, #16
 1689 001e F3DD     		ble	.L153
 1690              	.LBE54:
 434:Src/draw.c    ****   for (int y = 0; y <= NCOLS; y++)
 1691              		.loc 1 434 32 discriminator 2 view .LVU396
 1692 0020 0135     		adds	r5, r5, #1
 1693              	.LVL177:
 1694              	.L152:
 434:Src/draw.c    ****   for (int y = 0; y <= NCOLS; y++)
 1695              		.loc 1 434 3 discriminator 1 view .LVU397
 1696 0022 102D     		cmp	r5, #16
 1697 0024 01DC     		bgt	.L157
 1698              	.LBB55:
 436:Src/draw.c    ****     {
 1699              		.loc 1 436 14 view .LVU398
 1700 0026 0024     		movs	r4, #0
 1701 0028 F8E7     		b	.L154
 1702              	.L157:
 1703              	.LBE55:
 1704              	.LBE53:
 439:Src/draw.c    ****     }
 440:Src/draw.c    ****   }
 441:Src/draw.c    **** }
 1705              		.loc 1 441 1 view .LVU399
 1706 002a 70BD     		pop	{r4, r5, r6, pc}
 1707              	.LVL178:
 1708              	.L159:
 1709              		.loc 1 441 1 view .LVU400
 1710              		.align	2
 1711              	.L158:
 1712 002c 00000000 		.word	backLayer
 1713              		.cfi_endproc
 1714              	.LFE82:
 1716              		.section	.text.getFontLine,"ax",%progbits
 1717              		.align	1
 1718              		.global	getFontLine
 1719              		.syntax unified
ARM GAS  /var/folders/hv/f19l0kw128sbpybv1h43gz3c0000gn/T//ccsxUPDV.s 			page 41


 1720              		.thumb
 1721              		.thumb_func
 1722              		.fpu softvfp
 1724              	getFontLine:
 1725              	.LVL179:
 1726              	.LFB85:
 442:Src/draw.c    **** 
 443:Src/draw.c    **** void checkSequence(void)
 444:Src/draw.c    **** {
 445:Src/draw.c    ****   uint8_t arrayLen = ARRAY_LEN(noteSequence);
 446:Src/draw.c    ****   uint8_t cnt = 0;
 447:Src/draw.c    ****   // uint8_t blue[3] = {1, 1, 20};
 448:Src/draw.c    ****   for (uint8_t j = 0; j < arrayLen; j++)
 449:Src/draw.c    ****   {
 450:Src/draw.c    ****     uint8_t len = ARRAY_LEN(noteSequence[j].note);
 451:Src/draw.c    ****     for (uint8_t i = 0; i < len; i++)
 452:Src/draw.c    ****     {
 453:Src/draw.c    ****       if (noteBuffer[i].note.symbol == noteSequence[j].note[len - 1 - i].symbol)
 454:Src/draw.c    ****       {
 455:Src/draw.c    ****         cnt++;
 456:Src/draw.c    ****         if (cnt == len)
 457:Src/draw.c    ****         {
 458:Src/draw.c    ****           clearText();
 459:Src/draw.c    ****           setTextColor(noteBuffer[0].color);
 460:Src/draw.c    ****           drawString(noteSequence[j].word, 1, 24, 1, 0);
 461:Src/draw.c    ****           // drawCenter(noteSequence[j].word, 1, 0);
 462:Src/draw.c    ****         }
 463:Src/draw.c    ****       }
 464:Src/draw.c    ****       else
 465:Src/draw.c    ****         break;
 466:Src/draw.c    ****     }
 467:Src/draw.c    ****   }
 468:Src/draw.c    **** }
 469:Src/draw.c    **** 
 470:Src/draw.c    **** void drawNote(void)
 471:Src/draw.c    **** {
 472:Src/draw.c    ****   // uint8_t red[3] = {20, 1, 1};
 473:Src/draw.c    ****   // uint8_t green[3] = {1, 20, 1};
 474:Src/draw.c    ****   // drawStringArray(1, 1, 1, 1);
 475:Src/draw.c    **** 
 476:Src/draw.c    ****   checkSequence();
 477:Src/draw.c    ****   // drawString(noteBuffer[0], 1, 1, 1, 0);
 478:Src/draw.c    ****   // setTextColor(noteBuffer[0].color);
 479:Src/draw.c    ****   // drawColor(noteBuffer[0].color);
 480:Src/draw.c    ****   // drawLetter(note.symbol, 1, 10);
 481:Src/draw.c    **** }
 482:Src/draw.c    **** 
 483:Src/draw.c    **** /* Draw Strings */
 484:Src/draw.c    **** 
 485:Src/draw.c    **** unsigned char getFontLine(unsigned char data, int line_num)
 486:Src/draw.c    **** {
 1727              		.loc 1 486 1 is_stmt 1 view -0
 1728              		.cfi_startproc
 1729              		@ args = 0, pretend = 0, frame = 0
 1730              		@ frame_needed = 0, uses_anonymous_args = 0
 1731              		@ link register save eliminated.
 487:Src/draw.c    ****   const uint8_t index = (data - 32);
ARM GAS  /var/folders/hv/f19l0kw128sbpybv1h43gz3c0000gn/T//ccsxUPDV.s 			page 42


 1732              		.loc 1 487 3 view .LVU402
 1733              		.loc 1 487 17 is_stmt 0 view .LVU403
 1734 0000 2038     		subs	r0, r0, #32
 1735              	.LVL180:
 1736              		.loc 1 487 17 view .LVU404
 1737 0002 C0B2     		uxtb	r0, r0
 488:Src/draw.c    ****   unsigned char pixel = 0;
 1738              		.loc 1 488 3 is_stmt 1 view .LVU405
 1739              	.LVL181:
 489:Src/draw.c    ****   if ((font4x6[index][1] & 1) == 1)
 1740              		.loc 1 489 3 view .LVU406
 1741              		.loc 1 489 22 is_stmt 0 view .LVU407
 1742 0004 164B     		ldr	r3, .L173
 1743 0006 03EB4003 		add	r3, r3, r0, lsl #1
 1744 000a 5B78     		ldrb	r3, [r3, #1]	@ zero_extendqisi2
 1745              		.loc 1 489 6 view .LVU408
 1746 000c 13F0010F 		tst	r3, #1
 1747 0010 00D0     		beq	.L161
 490:Src/draw.c    ****     line_num -= 1;
 1748              		.loc 1 490 5 is_stmt 1 view .LVU409
 1749              		.loc 1 490 14 is_stmt 0 view .LVU410
 1750 0012 0139     		subs	r1, r1, #1
 1751              	.LVL182:
 1752              	.L161:
 491:Src/draw.c    ****   if (line_num == 0)
 1753              		.loc 1 491 3 is_stmt 1 view .LVU411
 1754              		.loc 1 491 6 is_stmt 0 view .LVU412
 1755 0014 31B9     		cbnz	r1, .L162
 492:Src/draw.c    ****   {
 493:Src/draw.c    ****     pixel = (font4x6[index][0]) >> 4;
 1756              		.loc 1 493 5 is_stmt 1 view .LVU413
 1757              		.loc 1 493 28 is_stmt 0 view .LVU414
 1758 0016 124B     		ldr	r3, .L173
 1759 0018 13F81000 		ldrb	r0, [r3, r0, lsl #1]	@ zero_extendqisi2
 1760              		.loc 1 493 11 view .LVU415
 1761 001c 0009     		lsrs	r0, r0, #4
 1762              	.LVL183:
 1763              	.L163:
 494:Src/draw.c    ****   }
 495:Src/draw.c    ****   else if (line_num == 1)
 496:Src/draw.c    ****   {
 497:Src/draw.c    ****     pixel = (font4x6[index][0]) >> 1;
 498:Src/draw.c    ****   }
 499:Src/draw.c    ****   else if (line_num == 2)
 500:Src/draw.c    ****   {
 501:Src/draw.c    ****     // Split over 2 bytes
 502:Src/draw.c    ****     return (((font4x6[index][0]) & 0x03) << 2) | (((font4x6[index][1]) & 0x02));
 503:Src/draw.c    ****   }
 504:Src/draw.c    ****   else if (line_num == 3)
 505:Src/draw.c    ****   {
 506:Src/draw.c    ****     pixel = (font4x6[index][1]) >> 4;
 507:Src/draw.c    ****   }
 508:Src/draw.c    ****   else if (line_num == 4)
 509:Src/draw.c    ****   {
 510:Src/draw.c    ****     pixel = (font4x6[index][1]) >> 1;
 511:Src/draw.c    ****   }
 512:Src/draw.c    ****   return pixel & 0xE;
ARM GAS  /var/folders/hv/f19l0kw128sbpybv1h43gz3c0000gn/T//ccsxUPDV.s 			page 43


 1764              		.loc 1 512 3 is_stmt 1 view .LVU416
 1765              		.loc 1 512 16 is_stmt 0 view .LVU417
 1766 001e 00F00E00 		and	r0, r0, #14
 1767              	.LVL184:
 513:Src/draw.c    **** }
 1768              		.loc 1 513 1 view .LVU418
 1769 0022 7047     		bx	lr
 1770              	.LVL185:
 1771              	.L162:
 495:Src/draw.c    ****   {
 1772              		.loc 1 495 8 is_stmt 1 view .LVU419
 495:Src/draw.c    ****   {
 1773              		.loc 1 495 11 is_stmt 0 view .LVU420
 1774 0024 0129     		cmp	r1, #1
 1775 0026 07D0     		beq	.L169
 499:Src/draw.c    ****   {
 1776              		.loc 1 499 8 is_stmt 1 view .LVU421
 499:Src/draw.c    ****   {
 1777              		.loc 1 499 11 is_stmt 0 view .LVU422
 1778 0028 0229     		cmp	r1, #2
 1779 002a 0AD0     		beq	.L170
 504:Src/draw.c    ****   {
 1780              		.loc 1 504 8 is_stmt 1 view .LVU423
 504:Src/draw.c    ****   {
 1781              		.loc 1 504 11 is_stmt 0 view .LVU424
 1782 002c 0329     		cmp	r1, #3
 1783 002e 12D0     		beq	.L171
 508:Src/draw.c    ****   {
 1784              		.loc 1 508 8 is_stmt 1 view .LVU425
 508:Src/draw.c    ****   {
 1785              		.loc 1 508 11 is_stmt 0 view .LVU426
 1786 0030 0429     		cmp	r1, #4
 1787 0032 12D0     		beq	.L172
 488:Src/draw.c    ****   if ((font4x6[index][1] & 1) == 1)
 1788              		.loc 1 488 17 view .LVU427
 1789 0034 0020     		movs	r0, #0
 1790 0036 F2E7     		b	.L163
 1791              	.L169:
 497:Src/draw.c    ****   }
 1792              		.loc 1 497 5 is_stmt 1 view .LVU428
 497:Src/draw.c    ****   }
 1793              		.loc 1 497 28 is_stmt 0 view .LVU429
 1794 0038 094B     		ldr	r3, .L173
 1795 003a 13F81000 		ldrb	r0, [r3, r0, lsl #1]	@ zero_extendqisi2
 497:Src/draw.c    ****   }
 1796              		.loc 1 497 11 view .LVU430
 1797 003e 4008     		lsrs	r0, r0, #1
 1798              	.LVL186:
 497:Src/draw.c    ****   }
 1799              		.loc 1 497 11 view .LVU431
 1800 0040 EDE7     		b	.L163
 1801              	.LVL187:
 1802              	.L170:
 502:Src/draw.c    ****   }
 1803              		.loc 1 502 5 is_stmt 1 view .LVU432
 502:Src/draw.c    ****   }
 1804              		.loc 1 502 29 is_stmt 0 view .LVU433
ARM GAS  /var/folders/hv/f19l0kw128sbpybv1h43gz3c0000gn/T//ccsxUPDV.s 			page 44


 1805 0042 074A     		ldr	r2, .L173
 1806 0044 12F81000 		ldrb	r0, [r2, r0, lsl #1]	@ zero_extendqisi2
 502:Src/draw.c    ****   }
 1807              		.loc 1 502 42 view .LVU434
 1808 0048 8000     		lsls	r0, r0, #2
 1809 004a 00F00C00 		and	r0, r0, #12
 502:Src/draw.c    ****   }
 1810              		.loc 1 502 72 view .LVU435
 1811 004e 03F00203 		and	r3, r3, #2
 502:Src/draw.c    ****   }
 1812              		.loc 1 502 48 view .LVU436
 1813 0052 1843     		orrs	r0, r0, r3
 1814 0054 7047     		bx	lr
 1815              	.L171:
 506:Src/draw.c    ****   }
 1816              		.loc 1 506 5 is_stmt 1 view .LVU437
 506:Src/draw.c    ****   }
 1817              		.loc 1 506 11 is_stmt 0 view .LVU438
 1818 0056 1809     		lsrs	r0, r3, #4
 1819              	.LVL188:
 506:Src/draw.c    ****   }
 1820              		.loc 1 506 11 view .LVU439
 1821 0058 E1E7     		b	.L163
 1822              	.LVL189:
 1823              	.L172:
 510:Src/draw.c    ****   }
 1824              		.loc 1 510 5 is_stmt 1 view .LVU440
 510:Src/draw.c    ****   }
 1825              		.loc 1 510 11 is_stmt 0 view .LVU441
 1826 005a 5808     		lsrs	r0, r3, #1
 1827              	.LVL190:
 510:Src/draw.c    ****   }
 1828              		.loc 1 510 11 view .LVU442
 1829 005c DFE7     		b	.L163
 1830              	.L174:
 1831 005e 00BF     		.align	2
 1832              	.L173:
 1833 0060 00000000 		.word	.LANCHOR3
 1834              		.cfi_endproc
 1835              	.LFE85:
 1837              		.section	.text.drawLetter,"ax",%progbits
 1838              		.align	1
 1839              		.global	drawLetter
 1840              		.syntax unified
 1841              		.thumb
 1842              		.thumb_func
 1843              		.fpu softvfp
 1845              	drawLetter:
 1846              	.LVL191:
 1847              	.LFB86:
 514:Src/draw.c    **** 
 515:Src/draw.c    **** void drawLetter(char letter, uint8_t px, uint8_t py)
 516:Src/draw.c    **** {
 1848              		.loc 1 516 1 is_stmt 1 view -0
 1849              		.cfi_startproc
 1850              		@ args = 0, pretend = 0, frame = 0
 1851              		@ frame_needed = 0, uses_anonymous_args = 0
ARM GAS  /var/folders/hv/f19l0kw128sbpybv1h43gz3c0000gn/T//ccsxUPDV.s 			page 45


 1852              		.loc 1 516 1 is_stmt 0 view .LVU444
 1853 0000 2DE9F047 		push	{r4, r5, r6, r7, r8, r9, r10, lr}
 1854              	.LCFI19:
 1855              		.cfi_def_cfa_offset 32
 1856              		.cfi_offset 4, -32
 1857              		.cfi_offset 5, -28
 1858              		.cfi_offset 6, -24
 1859              		.cfi_offset 7, -20
 1860              		.cfi_offset 8, -16
 1861              		.cfi_offset 9, -12
 1862              		.cfi_offset 10, -8
 1863              		.cfi_offset 14, -4
 1864 0004 8146     		mov	r9, r0
 1865 0006 0C46     		mov	r4, r1
 1866 0008 9046     		mov	r8, r2
 517:Src/draw.c    ****   uint8_t fill;
 1867              		.loc 1 517 3 is_stmt 1 view .LVU445
 518:Src/draw.c    ****   for (uint8_t y = py, l = 0; y <= (py + 5); y++, l++)
 1868              		.loc 1 518 3 view .LVU446
 1869              	.LBB56:
 1870              		.loc 1 518 8 view .LVU447
 1871              	.LVL192:
 1872              		.loc 1 518 16 is_stmt 0 view .LVU448
 1873 000a 1546     		mov	r5, r2
 1874              		.loc 1 518 24 view .LVU449
 1875 000c 0027     		movs	r7, #0
 1876              		.loc 1 518 3 view .LVU450
 1877 000e 30E0     		b	.L176
 1878              	.LVL193:
 1879              	.L180:
 1880              	.LBB57:
 519:Src/draw.c    ****   {
 520:Src/draw.c    ****     if (y > NCOLSL)
 521:Src/draw.c    ****       break;
 522:Src/draw.c    ****     fill = getFontLine(letter, l);
 523:Src/draw.c    ****     for (uint8_t x = px, aX = 3; x <= (px + 3); x++, aX--)
 524:Src/draw.c    ****     {
 525:Src/draw.c    ****       if (fill & (1u << aX))
 526:Src/draw.c    ****       {
 527:Src/draw.c    **** #if COLOR_1BIT
 528:Src/draw.c    ****         BIT_SET(textLayer[DIV_8(x + (y * NCOLS))], REST_8(x + (y * NCOLS)));
 1881              		.loc 1 528 9 view .LVU451
 1882 0010 4FEAEC0C 		asr	ip, ip, #3
 1883 0014 D3F1000E 		rsbs	lr, r3, #0
 1884 0018 03F00703 		and	r3, r3, #7
 1885 001c 0EF0070E 		and	lr, lr, #7
 1886 0020 58BF     		it	pl
 1887 0022 CEF10003 		rsbpl	r3, lr, #0
 1888 0026 4FF0010E 		mov	lr, #1
 1889 002a 0EFA03FE 		lsl	lr, lr, r3
 1890 002e DFF864A0 		ldr	r10, .L185
 1891 0032 1AF80C30 		ldrb	r3, [r10, ip]	@ zero_extendqisi2
 1892 0036 43EA0E03 		orr	r3, r3, lr
 1893 003a 0AF80C30 		strb	r3, [r10, ip]
 1894              	.L179:
 523:Src/draw.c    ****     {
 1895              		.loc 1 523 50 discriminator 2 view .LVU452
ARM GAS  /var/folders/hv/f19l0kw128sbpybv1h43gz3c0000gn/T//ccsxUPDV.s 			page 46


 1896 003e 0132     		adds	r2, r2, #1
 1897              	.LVL194:
 523:Src/draw.c    ****     {
 1898              		.loc 1 523 50 discriminator 2 view .LVU453
 1899 0040 D2B2     		uxtb	r2, r2
 1900              	.LVL195:
 523:Src/draw.c    ****     {
 1901              		.loc 1 523 56 discriminator 2 view .LVU454
 1902 0042 0139     		subs	r1, r1, #1
 1903              	.LVL196:
 523:Src/draw.c    ****     {
 1904              		.loc 1 523 56 discriminator 2 view .LVU455
 1905 0044 C9B2     		uxtb	r1, r1
 1906              	.LVL197:
 1907              	.L178:
 523:Src/draw.c    ****     {
 1908              		.loc 1 523 36 discriminator 1 view .LVU456
 1909 0046 1346     		mov	r3, r2
 523:Src/draw.c    ****     {
 1910              		.loc 1 523 43 discriminator 1 view .LVU457
 1911 0048 04F1030C 		add	ip, r4, #3
 523:Src/draw.c    ****     {
 1912              		.loc 1 523 5 discriminator 1 view .LVU458
 1913 004c 6245     		cmp	r2, ip
 1914 004e 0CDC     		bgt	.L184
 525:Src/draw.c    ****       {
 1915              		.loc 1 525 7 is_stmt 1 view .LVU459
 525:Src/draw.c    ****       {
 1916              		.loc 1 525 11 is_stmt 0 view .LVU460
 1917 0050 20FA01FC 		lsr	ip, r0, r1
 525:Src/draw.c    ****       {
 1918              		.loc 1 525 10 view .LVU461
 1919 0054 1CF0010F 		tst	ip, #1
 1920 0058 F1D0     		beq	.L179
 1921              		.loc 1 528 9 is_stmt 1 view .LVU462
 1922 005a 03EB0613 		add	r3, r3, r6, lsl #4
 1923 005e 9C46     		mov	ip, r3
 1924 0060 002B     		cmp	r3, #0
 1925 0062 D5DA     		bge	.L180
 1926 0064 03F1070C 		add	ip, r3, #7
 1927 0068 D2E7     		b	.L180
 1928              	.L184:
 1929              	.LBE57:
 518:Src/draw.c    ****   {
 1930              		.loc 1 518 47 is_stmt 0 discriminator 2 view .LVU463
 1931 006a 0135     		adds	r5, r5, #1
 1932              	.LVL198:
 518:Src/draw.c    ****   {
 1933              		.loc 1 518 47 discriminator 2 view .LVU464
 1934 006c EDB2     		uxtb	r5, r5
 1935              	.LVL199:
 518:Src/draw.c    ****   {
 1936              		.loc 1 518 52 discriminator 2 view .LVU465
 1937 006e 0137     		adds	r7, r7, #1
 1938              	.LVL200:
 518:Src/draw.c    ****   {
 1939              		.loc 1 518 52 discriminator 2 view .LVU466
ARM GAS  /var/folders/hv/f19l0kw128sbpybv1h43gz3c0000gn/T//ccsxUPDV.s 			page 47


 1940 0070 FFB2     		uxtb	r7, r7
 1941              	.LVL201:
 1942              	.L176:
 518:Src/draw.c    ****   {
 1943              		.loc 1 518 33 discriminator 1 view .LVU467
 1944 0072 2E46     		mov	r6, r5
 518:Src/draw.c    ****   {
 1945              		.loc 1 518 40 discriminator 1 view .LVU468
 1946 0074 08F10503 		add	r3, r8, #5
 518:Src/draw.c    ****   {
 1947              		.loc 1 518 3 discriminator 1 view .LVU469
 1948 0078 9D42     		cmp	r5, r3
 1949 007a 08DC     		bgt	.L175
 520:Src/draw.c    ****       break;
 1950              		.loc 1 520 5 is_stmt 1 view .LVU470
 520:Src/draw.c    ****       break;
 1951              		.loc 1 520 8 is_stmt 0 view .LVU471
 1952 007c 0F2D     		cmp	r5, #15
 1953 007e 06D8     		bhi	.L175
 522:Src/draw.c    ****     for (uint8_t x = px, aX = 3; x <= (px + 3); x++, aX--)
 1954              		.loc 1 522 5 is_stmt 1 view .LVU472
 522:Src/draw.c    ****     for (uint8_t x = px, aX = 3; x <= (px + 3); x++, aX--)
 1955              		.loc 1 522 12 is_stmt 0 view .LVU473
 1956 0080 3946     		mov	r1, r7
 1957 0082 4846     		mov	r0, r9
 1958 0084 FFF7FEFF 		bl	getFontLine
 1959              	.LVL202:
 523:Src/draw.c    ****     {
 1960              		.loc 1 523 5 is_stmt 1 view .LVU474
 1961              	.LBB58:
 523:Src/draw.c    ****     {
 1962              		.loc 1 523 10 view .LVU475
 523:Src/draw.c    ****     {
 1963              		.loc 1 523 18 is_stmt 0 view .LVU476
 1964 0088 2246     		mov	r2, r4
 523:Src/draw.c    ****     {
 1965              		.loc 1 523 26 view .LVU477
 1966 008a 0321     		movs	r1, #3
 523:Src/draw.c    ****     {
 1967              		.loc 1 523 5 view .LVU478
 1968 008c DBE7     		b	.L178
 1969              	.LVL203:
 1970              	.L175:
 523:Src/draw.c    ****     {
 1971              		.loc 1 523 5 view .LVU479
 1972              	.LBE58:
 1973              	.LBE56:
 529:Src/draw.c    **** #else
 530:Src/draw.c    ****         setColor(textLayer[x + (y * NCOLS)], textColor);
 531:Src/draw.c    **** #endif
 532:Src/draw.c    ****       }
 533:Src/draw.c    ****     }
 534:Src/draw.c    ****   }
 535:Src/draw.c    **** }
 1974              		.loc 1 535 1 view .LVU480
 1975 008e BDE8F087 		pop	{r4, r5, r6, r7, r8, r9, r10, pc}
 1976              	.LVL204:
ARM GAS  /var/folders/hv/f19l0kw128sbpybv1h43gz3c0000gn/T//ccsxUPDV.s 			page 48


 1977              	.L186:
 1978              		.loc 1 535 1 view .LVU481
 1979 0092 00BF     		.align	2
 1980              	.L185:
 1981 0094 00000000 		.word	textLayer
 1982              		.cfi_endproc
 1983              	.LFE86:
 1985              		.section	.text.drawString,"ax",%progbits
 1986              		.align	1
 1987              		.global	drawString
 1988              		.syntax unified
 1989              		.thumb
 1990              		.thumb_func
 1991              		.fpu softvfp
 1993              	drawString:
 1994              	.LVL205:
 1995              	.LFB88:
 536:Src/draw.c    **** 
 537:Src/draw.c    **** void drawCenter(char *frase, uint8_t spacex, uint8_t spacey)
 538:Src/draw.c    **** {
 539:Src/draw.c    ****   uint8_t len = strlen(frase) * (3 + spacex);
 540:Src/draw.c    ****   int8_t px = (NCOLS - len) / 2;
 541:Src/draw.c    ****   len = (5 + spacey);
 542:Src/draw.c    ****   int8_t py = (NCOLS - len) / 2;
 543:Src/draw.c    ****   px = px < 0 ? 0 : px;
 544:Src/draw.c    ****   drawString(frase, px, py, spacex, spacey);
 545:Src/draw.c    **** }
 546:Src/draw.c    **** 
 547:Src/draw.c    **** void drawString(char *frase, uint8_t px, uint8_t py, uint8_t spacex, uint8_t spacey)
 548:Src/draw.c    **** {
 1996              		.loc 1 548 1 is_stmt 1 view -0
 1997              		.cfi_startproc
 1998              		@ args = 4, pretend = 0, frame = 0
 1999              		@ frame_needed = 0, uses_anonymous_args = 0
 2000              		.loc 1 548 1 is_stmt 0 view .LVU483
 2001 0000 2DE9F84F 		push	{r3, r4, r5, r6, r7, r8, r9, r10, fp, lr}
 2002              	.LCFI20:
 2003              		.cfi_def_cfa_offset 40
 2004              		.cfi_offset 3, -40
 2005              		.cfi_offset 4, -36
 2006              		.cfi_offset 5, -32
 2007              		.cfi_offset 6, -28
 2008              		.cfi_offset 7, -24
 2009              		.cfi_offset 8, -20
 2010              		.cfi_offset 9, -16
 2011              		.cfi_offset 10, -12
 2012              		.cfi_offset 11, -8
 2013              		.cfi_offset 14, -4
 2014 0004 0746     		mov	r7, r0
 2015 0006 8846     		mov	r8, r1
 2016 0008 9346     		mov	fp, r2
 2017 000a 9A46     		mov	r10, r3
 2018 000c 9DF82890 		ldrb	r9, [sp, #40]	@ zero_extendqisi2
 549:Src/draw.c    ****   uint8_t posX, incX = 0, posY, nLine = 0;
 2019              		.loc 1 549 3 is_stmt 1 view .LVU484
 2020              	.LVL206:
 550:Src/draw.c    ****   for (size_t i = 0; i < strlen(frase); i++)
ARM GAS  /var/folders/hv/f19l0kw128sbpybv1h43gz3c0000gn/T//ccsxUPDV.s 			page 49


 2021              		.loc 1 550 3 view .LVU485
 2022              	.LBB59:
 2023              		.loc 1 550 8 view .LVU486
 2024              		.loc 1 550 15 is_stmt 0 view .LVU487
 2025 0010 0025     		movs	r5, #0
 2026              	.LBE59:
 549:Src/draw.c    ****   uint8_t posX, incX = 0, posY, nLine = 0;
 2027              		.loc 1 549 33 view .LVU488
 2028 0012 2E46     		mov	r6, r5
 549:Src/draw.c    ****   uint8_t posX, incX = 0, posY, nLine = 0;
 2029              		.loc 1 549 17 view .LVU489
 2030 0014 2C46     		mov	r4, r5
 2031              	.LBB60:
 2032              		.loc 1 550 3 view .LVU490
 2033 0016 0CE0     		b	.L188
 2034              	.LVL207:
 2035              	.L189:
 551:Src/draw.c    ****   {
 552:Src/draw.c    ****     // posX = (char)frase[i] == (char)32 ? (i * 3) + px - 1 : (i * (3 + spacex)) + px;
 553:Src/draw.c    ****     posX = incX * (3 + spacex) + px;
 554:Src/draw.c    ****     if (posX + ((3 + spacex)) > NCOLS - 2)
 555:Src/draw.c    ****     {
 556:Src/draw.c    ****       posX = px;
 557:Src/draw.c    ****       nLine++;
 558:Src/draw.c    ****       incX = 0;
 559:Src/draw.c    ****     }
 560:Src/draw.c    ****     posY = nLine * (5 + spacey) + py;
 2036              		.loc 1 560 5 is_stmt 1 discriminator 2 view .LVU491
 2037              		.loc 1 560 33 is_stmt 0 discriminator 2 view .LVU492
 2038 0018 09F10502 		add	r2, r9, #5
 2039 001c 02FB06F2 		mul	r2, r2, r6
 2040 0020 D2B2     		uxtb	r2, r2
 2041              		.loc 1 560 10 discriminator 2 view .LVU493
 2042 0022 5A44     		add	r2, r2, fp
 2043              	.LVL208:
 561:Src/draw.c    ****     drawLetter(frase[i], posX, posY);
 2044              		.loc 1 561 5 is_stmt 1 discriminator 2 view .LVU494
 2045 0024 D2B2     		uxtb	r2, r2
 2046              		.loc 1 561 5 is_stmt 0 discriminator 2 view .LVU495
 2047 0026 785D     		ldrb	r0, [r7, r5]	@ zero_extendqisi2
 2048 0028 FFF7FEFF 		bl	drawLetter
 2049              	.LVL209:
 562:Src/draw.c    ****     // posX = (posI - (nLine * (NCOLS - 3))) + 1;
 563:Src/draw.c    ****     incX++;
 2050              		.loc 1 563 5 is_stmt 1 discriminator 2 view .LVU496
 2051              		.loc 1 563 9 is_stmt 0 discriminator 2 view .LVU497
 2052 002c 0134     		adds	r4, r4, #1
 2053              	.LVL210:
 2054              		.loc 1 563 9 discriminator 2 view .LVU498
 2055 002e E4B2     		uxtb	r4, r4
 2056              	.LVL211:
 550:Src/draw.c    ****   {
 2057              		.loc 1 550 42 discriminator 2 view .LVU499
 2058 0030 0135     		adds	r5, r5, #1
 2059              	.LVL212:
 2060              	.L188:
 550:Src/draw.c    ****   {
ARM GAS  /var/folders/hv/f19l0kw128sbpybv1h43gz3c0000gn/T//ccsxUPDV.s 			page 50


 2061              		.loc 1 550 26 discriminator 1 view .LVU500
 2062 0032 3846     		mov	r0, r7
 2063 0034 FFF7FEFF 		bl	strlen
 2064              	.LVL213:
 550:Src/draw.c    ****   {
 2065              		.loc 1 550 3 discriminator 1 view .LVU501
 2066 0038 A842     		cmp	r0, r5
 2067 003a 0ED9     		bls	.L192
 553:Src/draw.c    ****     if (posX + ((3 + spacex)) > NCOLS - 2)
 2068              		.loc 1 553 5 is_stmt 1 view .LVU502
 553:Src/draw.c    ****     if (posX + ((3 + spacex)) > NCOLS - 2)
 2069              		.loc 1 553 32 is_stmt 0 view .LVU503
 2070 003c 0AF10303 		add	r3, r10, #3
 2071 0040 03FB04F1 		mul	r1, r3, r4
 2072 0044 C9B2     		uxtb	r1, r1
 553:Src/draw.c    ****     if (posX + ((3 + spacex)) > NCOLS - 2)
 2073              		.loc 1 553 10 view .LVU504
 2074 0046 4144     		add	r1, r1, r8
 2075 0048 C9B2     		uxtb	r1, r1
 2076              	.LVL214:
 554:Src/draw.c    ****     {
 2077              		.loc 1 554 5 is_stmt 1 view .LVU505
 554:Src/draw.c    ****     {
 2078              		.loc 1 554 14 is_stmt 0 view .LVU506
 2079 004a 0B44     		add	r3, r3, r1
 554:Src/draw.c    ****     {
 2080              		.loc 1 554 8 view .LVU507
 2081 004c 0E2B     		cmp	r3, #14
 2082 004e E3DD     		ble	.L189
 556:Src/draw.c    ****       nLine++;
 2083              		.loc 1 556 7 is_stmt 1 view .LVU508
 2084              	.LVL215:
 557:Src/draw.c    ****       incX = 0;
 2085              		.loc 1 557 7 view .LVU509
 557:Src/draw.c    ****       incX = 0;
 2086              		.loc 1 557 12 is_stmt 0 view .LVU510
 2087 0050 0136     		adds	r6, r6, #1
 2088              	.LVL216:
 557:Src/draw.c    ****       incX = 0;
 2089              		.loc 1 557 12 view .LVU511
 2090 0052 F6B2     		uxtb	r6, r6
 2091              	.LVL217:
 558:Src/draw.c    ****     }
 2092              		.loc 1 558 7 is_stmt 1 view .LVU512
 556:Src/draw.c    ****       nLine++;
 2093              		.loc 1 556 12 is_stmt 0 view .LVU513
 2094 0054 4146     		mov	r1, r8
 558:Src/draw.c    ****     }
 2095              		.loc 1 558 12 view .LVU514
 2096 0056 0024     		movs	r4, #0
 2097 0058 DEE7     		b	.L189
 2098              	.LVL218:
 2099              	.L192:
 558:Src/draw.c    ****     }
 2100              		.loc 1 558 12 view .LVU515
 2101              	.LBE60:
 564:Src/draw.c    ****   }
ARM GAS  /var/folders/hv/f19l0kw128sbpybv1h43gz3c0000gn/T//ccsxUPDV.s 			page 51


 565:Src/draw.c    **** }
 2102              		.loc 1 565 1 view .LVU516
 2103 005a BDE8F88F 		pop	{r3, r4, r5, r6, r7, r8, r9, r10, fp, pc}
 2104              		.loc 1 565 1 view .LVU517
 2105              		.cfi_endproc
 2106              	.LFE88:
 2108              		.section	.text.checkSequence,"ax",%progbits
 2109              		.align	1
 2110              		.global	checkSequence
 2111              		.syntax unified
 2112              		.thumb
 2113              		.thumb_func
 2114              		.fpu softvfp
 2116              	checkSequence:
 2117              	.LFB83:
 444:Src/draw.c    ****   uint8_t arrayLen = ARRAY_LEN(noteSequence);
 2118              		.loc 1 444 1 is_stmt 1 view -0
 2119              		.cfi_startproc
 2120              		@ args = 0, pretend = 0, frame = 0
 2121              		@ frame_needed = 0, uses_anonymous_args = 0
 2122 0000 F0B5     		push	{r4, r5, r6, r7, lr}
 2123              	.LCFI21:
 2124              		.cfi_def_cfa_offset 20
 2125              		.cfi_offset 4, -20
 2126              		.cfi_offset 5, -16
 2127              		.cfi_offset 6, -12
 2128              		.cfi_offset 7, -8
 2129              		.cfi_offset 14, -4
 2130 0002 83B0     		sub	sp, sp, #12
 2131              	.LCFI22:
 2132              		.cfi_def_cfa_offset 32
 445:Src/draw.c    ****   uint8_t cnt = 0;
 2133              		.loc 1 445 3 view .LVU519
 2134              	.LVL219:
 446:Src/draw.c    ****   // uint8_t blue[3] = {1, 1, 20};
 2135              		.loc 1 446 3 view .LVU520
 448:Src/draw.c    ****   {
 2136              		.loc 1 448 3 view .LVU521
 2137              	.LBB61:
 448:Src/draw.c    ****   {
 2138              		.loc 1 448 8 view .LVU522
 448:Src/draw.c    ****   {
 2139              		.loc 1 448 16 is_stmt 0 view .LVU523
 2140 0004 0025     		movs	r5, #0
 2141              	.LBE61:
 446:Src/draw.c    ****   // uint8_t blue[3] = {1, 1, 20};
 2142              		.loc 1 446 11 view .LVU524
 2143 0006 2E46     		mov	r6, r5
 2144              	.LBB66:
 448:Src/draw.c    ****   {
 2145              		.loc 1 448 3 view .LVU525
 2146 0008 30E0     		b	.L194
 2147              	.LVL220:
 2148              	.L201:
 2149              	.LBB62:
 2150              	.LBB63:
 458:Src/draw.c    ****           setTextColor(noteBuffer[0].color);
ARM GAS  /var/folders/hv/f19l0kw128sbpybv1h43gz3c0000gn/T//ccsxUPDV.s 			page 52


 2151              		.loc 1 458 11 is_stmt 1 view .LVU526
 2152 000a FFF7FEFF 		bl	clearText
 2153              	.LVL221:
 459:Src/draw.c    ****           drawString(noteSequence[j].word, 1, 24, 1, 0);
 2154              		.loc 1 459 11 view .LVU527
 2155 000e 1A48     		ldr	r0, .L203
 2156 0010 FFF7FEFF 		bl	setTextColor
 2157              	.LVL222:
 460:Src/draw.c    ****           // drawCenter(noteSequence[j].word, 1, 0);
 2158              		.loc 1 460 11 view .LVU528
 460:Src/draw.c    ****           // drawCenter(noteSequence[j].word, 1, 0);
 2159              		.loc 1 460 37 is_stmt 0 view .LVU529
 2160 0014 05EBC500 		add	r0, r5, r5, lsl #3
 2161 0018 05EB4000 		add	r0, r5, r0, lsl #1
 2162 001c 0830     		adds	r0, r0, #8
 2163 001e 174F     		ldr	r7, .L203+4
 2164 0020 3844     		add	r0, r0, r7
 460:Src/draw.c    ****           // drawCenter(noteSequence[j].word, 1, 0);
 2165              		.loc 1 460 11 view .LVU530
 2166 0022 0023     		movs	r3, #0
 2167 0024 0093     		str	r3, [sp]
 2168 0026 0123     		movs	r3, #1
 2169 0028 1822     		movs	r2, #24
 2170 002a 1946     		mov	r1, r3
 2171 002c 1844     		add	r0, r0, r3
 2172 002e FFF7FEFF 		bl	drawString
 2173              	.LVL223:
 2174              	.L196:
 451:Src/draw.c    ****     {
 2175              		.loc 1 451 35 discriminator 2 view .LVU531
 2176 0032 0134     		adds	r4, r4, #1
 2177              	.LVL224:
 451:Src/draw.c    ****     {
 2178              		.loc 1 451 35 discriminator 2 view .LVU532
 2179 0034 E4B2     		uxtb	r4, r4
 2180              	.LVL225:
 2181              	.L198:
 451:Src/draw.c    ****     {
 2182              		.loc 1 451 5 discriminator 1 view .LVU533
 2183 0036 022C     		cmp	r4, #2
 2184 0038 16D8     		bhi	.L195
 453:Src/draw.c    ****       {
 2185              		.loc 1 453 7 is_stmt 1 view .LVU534
 453:Src/draw.c    ****       {
 2186              		.loc 1 453 29 is_stmt 0 view .LVU535
 2187 003a 04EB4402 		add	r2, r4, r4, lsl #1
 2188 003e 5300     		lsls	r3, r2, #1
 2189 0040 0F4A     		ldr	r2, .L203+8
 2190 0042 D15C     		ldrb	r1, [r2, r3]	@ zero_extendqisi2
 453:Src/draw.c    ****       {
 2191              		.loc 1 453 69 view .LVU536
 2192 0044 C4F10203 		rsb	r3, r4, #2
 453:Src/draw.c    ****       {
 2193              		.loc 1 453 73 view .LVU537
 2194 0048 03EB4303 		add	r3, r3, r3, lsl #1
 2195 004c 05EBC502 		add	r2, r5, r5, lsl #3
 2196 0050 05EB4202 		add	r2, r5, r2, lsl #1
ARM GAS  /var/folders/hv/f19l0kw128sbpybv1h43gz3c0000gn/T//ccsxUPDV.s 			page 53


 2197 0054 1344     		add	r3, r3, r2
 2198 0056 094A     		ldr	r2, .L203+4
 2199 0058 D35C     		ldrb	r3, [r2, r3]	@ zero_extendqisi2
 453:Src/draw.c    ****       {
 2200              		.loc 1 453 10 view .LVU538
 2201 005a 9942     		cmp	r1, r3
 2202 005c 04D1     		bne	.L195
 455:Src/draw.c    ****         if (cnt == len)
 2203              		.loc 1 455 9 is_stmt 1 view .LVU539
 455:Src/draw.c    ****         if (cnt == len)
 2204              		.loc 1 455 12 is_stmt 0 view .LVU540
 2205 005e 0136     		adds	r6, r6, #1
 2206              	.LVL226:
 455:Src/draw.c    ****         if (cnt == len)
 2207              		.loc 1 455 12 view .LVU541
 2208 0060 F6B2     		uxtb	r6, r6
 2209              	.LVL227:
 456:Src/draw.c    ****         {
 2210              		.loc 1 456 9 is_stmt 1 view .LVU542
 456:Src/draw.c    ****         {
 2211              		.loc 1 456 12 is_stmt 0 view .LVU543
 2212 0062 032E     		cmp	r6, #3
 2213 0064 E5D1     		bne	.L196
 2214 0066 D0E7     		b	.L201
 2215              	.L195:
 456:Src/draw.c    ****         {
 2216              		.loc 1 456 12 view .LVU544
 2217              	.LBE63:
 2218              	.LBE62:
 448:Src/draw.c    ****   {
 2219              		.loc 1 448 38 discriminator 2 view .LVU545
 2220 0068 0135     		adds	r5, r5, #1
 2221              	.LVL228:
 448:Src/draw.c    ****   {
 2222              		.loc 1 448 38 discriminator 2 view .LVU546
 2223 006a EDB2     		uxtb	r5, r5
 2224              	.LVL229:
 2225              	.L194:
 448:Src/draw.c    ****   {
 2226              		.loc 1 448 3 discriminator 1 view .LVU547
 2227 006c 052D     		cmp	r5, #5
 2228 006e 01D8     		bhi	.L202
 2229              	.LBB65:
 2230              	.LBB64:
 451:Src/draw.c    ****     {
 2231              		.loc 1 451 18 view .LVU548
 2232 0070 0024     		movs	r4, #0
 2233 0072 E0E7     		b	.L198
 2234              	.L202:
 2235              	.LBE64:
 2236              	.LBE65:
 2237              	.LBE66:
 468:Src/draw.c    **** 
 2238              		.loc 1 468 1 view .LVU549
 2239 0074 03B0     		add	sp, sp, #12
 2240              	.LCFI23:
 2241              		.cfi_def_cfa_offset 20
ARM GAS  /var/folders/hv/f19l0kw128sbpybv1h43gz3c0000gn/T//ccsxUPDV.s 			page 54


 2242              		@ sp needed
 2243 0076 F0BD     		pop	{r4, r5, r6, r7, pc}
 2244              	.LVL230:
 2245              	.L204:
 468:Src/draw.c    **** 
 2246              		.loc 1 468 1 view .LVU550
 2247              		.align	2
 2248              	.L203:
 2249 0078 03000000 		.word	noteBuffer+3
 2250 007c 00000000 		.word	noteSequence
 2251 0080 00000000 		.word	noteBuffer
 2252              		.cfi_endproc
 2253              	.LFE83:
 2255              		.section	.text.drawNote,"ax",%progbits
 2256              		.align	1
 2257              		.global	drawNote
 2258              		.syntax unified
 2259              		.thumb
 2260              		.thumb_func
 2261              		.fpu softvfp
 2263              	drawNote:
 2264              	.LFB84:
 471:Src/draw.c    ****   // uint8_t red[3] = {20, 1, 1};
 2265              		.loc 1 471 1 is_stmt 1 view -0
 2266              		.cfi_startproc
 2267              		@ args = 0, pretend = 0, frame = 0
 2268              		@ frame_needed = 0, uses_anonymous_args = 0
 2269 0000 08B5     		push	{r3, lr}
 2270              	.LCFI24:
 2271              		.cfi_def_cfa_offset 8
 2272              		.cfi_offset 3, -8
 2273              		.cfi_offset 14, -4
 476:Src/draw.c    ****   // drawString(noteBuffer[0], 1, 1, 1, 0);
 2274              		.loc 1 476 3 view .LVU552
 2275 0002 FFF7FEFF 		bl	checkSequence
 2276              	.LVL231:
 481:Src/draw.c    **** 
 2277              		.loc 1 481 1 is_stmt 0 view .LVU553
 2278 0006 08BD     		pop	{r3, pc}
 2279              		.cfi_endproc
 2280              	.LFE84:
 2282              		.section	.text.drawCenter,"ax",%progbits
 2283              		.align	1
 2284              		.global	drawCenter
 2285              		.syntax unified
 2286              		.thumb
 2287              		.thumb_func
 2288              		.fpu softvfp
 2290              	drawCenter:
 2291              	.LVL232:
 2292              	.LFB87:
 538:Src/draw.c    ****   uint8_t len = strlen(frase) * (3 + spacex);
 2293              		.loc 1 538 1 is_stmt 1 view -0
 2294              		.cfi_startproc
 2295              		@ args = 0, pretend = 0, frame = 0
 2296              		@ frame_needed = 0, uses_anonymous_args = 0
 538:Src/draw.c    ****   uint8_t len = strlen(frase) * (3 + spacex);
ARM GAS  /var/folders/hv/f19l0kw128sbpybv1h43gz3c0000gn/T//ccsxUPDV.s 			page 55


 2297              		.loc 1 538 1 is_stmt 0 view .LVU555
 2298 0000 70B5     		push	{r4, r5, r6, lr}
 2299              	.LCFI25:
 2300              		.cfi_def_cfa_offset 16
 2301              		.cfi_offset 4, -16
 2302              		.cfi_offset 5, -12
 2303              		.cfi_offset 6, -8
 2304              		.cfi_offset 14, -4
 2305 0002 82B0     		sub	sp, sp, #8
 2306              	.LCFI26:
 2307              		.cfi_def_cfa_offset 24
 2308 0004 0646     		mov	r6, r0
 2309 0006 0C46     		mov	r4, r1
 2310 0008 1546     		mov	r5, r2
 539:Src/draw.c    ****   int8_t px = (NCOLS - len) / 2;
 2311              		.loc 1 539 3 is_stmt 1 view .LVU556
 539:Src/draw.c    ****   int8_t px = (NCOLS - len) / 2;
 2312              		.loc 1 539 17 is_stmt 0 view .LVU557
 2313 000a FFF7FEFF 		bl	strlen
 2314              	.LVL233:
 539:Src/draw.c    ****   int8_t px = (NCOLS - len) / 2;
 2315              		.loc 1 539 11 view .LVU558
 2316 000e E31C     		adds	r3, r4, #3
 2317 0010 03FB00F0 		mul	r0, r3, r0
 2318 0014 C0B2     		uxtb	r0, r0
 2319              	.LVL234:
 540:Src/draw.c    ****   len = (5 + spacey);
 2320              		.loc 1 540 3 is_stmt 1 view .LVU559
 540:Src/draw.c    ****   len = (5 + spacey);
 2321              		.loc 1 540 22 is_stmt 0 view .LVU560
 2322 0016 C0F11000 		rsb	r0, r0, #16
 2323              	.LVL235:
 540:Src/draw.c    ****   len = (5 + spacey);
 2324              		.loc 1 540 29 view .LVU561
 2325 001a 00EBD071 		add	r1, r0, r0, lsr #31
 540:Src/draw.c    ****   len = (5 + spacey);
 2326              		.loc 1 540 10 view .LVU562
 2327 001e 41F34701 		sbfx	r1, r1, #1, #8
 2328              	.LVL236:
 541:Src/draw.c    ****   int8_t py = (NCOLS - len) / 2;
 2329              		.loc 1 541 3 is_stmt 1 view .LVU563
 541:Src/draw.c    ****   int8_t py = (NCOLS - len) / 2;
 2330              		.loc 1 541 7 is_stmt 0 view .LVU564
 2331 0022 6A1D     		adds	r2, r5, #5
 2332 0024 D2B2     		uxtb	r2, r2
 2333              	.LVL237:
 542:Src/draw.c    ****   px = px < 0 ? 0 : px;
 2334              		.loc 1 542 3 is_stmt 1 view .LVU565
 542:Src/draw.c    ****   px = px < 0 ? 0 : px;
 2335              		.loc 1 542 22 is_stmt 0 view .LVU566
 2336 0026 C2F11002 		rsb	r2, r2, #16
 2337              	.LVL238:
 542:Src/draw.c    ****   px = px < 0 ? 0 : px;
 2338              		.loc 1 542 29 view .LVU567
 2339 002a 02EBD272 		add	r2, r2, r2, lsr #31
 2340              	.LVL239:
 543:Src/draw.c    ****   drawString(frase, px, py, spacex, spacey);
ARM GAS  /var/folders/hv/f19l0kw128sbpybv1h43gz3c0000gn/T//ccsxUPDV.s 			page 56


 2341              		.loc 1 543 3 is_stmt 1 view .LVU568
 543:Src/draw.c    ****   drawString(frase, px, py, spacex, spacey);
 2342              		.loc 1 543 6 is_stmt 0 view .LVU569
 2343 002e 21EAE171 		bic	r1, r1, r1, asr #31
 2344              	.LVL240:
 544:Src/draw.c    **** }
 2345              		.loc 1 544 3 is_stmt 1 view .LVU570
 2346 0032 0095     		str	r5, [sp]
 2347 0034 2346     		mov	r3, r4
 2348 0036 C2F34702 		ubfx	r2, r2, #1, #8
 2349              	.LVL241:
 544:Src/draw.c    **** }
 2350              		.loc 1 544 3 is_stmt 0 view .LVU571
 2351 003a C9B2     		uxtb	r1, r1
 544:Src/draw.c    **** }
 2352              		.loc 1 544 3 view .LVU572
 2353 003c 3046     		mov	r0, r6
 2354 003e FFF7FEFF 		bl	drawString
 2355              	.LVL242:
 545:Src/draw.c    **** 
 2356              		.loc 1 545 1 view .LVU573
 2357 0042 02B0     		add	sp, sp, #8
 2358              	.LCFI27:
 2359              		.cfi_def_cfa_offset 16
 2360              		@ sp needed
 2361 0044 70BD     		pop	{r4, r5, r6, pc}
 545:Src/draw.c    **** 
 2362              		.loc 1 545 1 view .LVU574
 2363              		.cfi_endproc
 2364              	.LFE87:
 2366              		.section	.text.drawStringArray,"ax",%progbits
 2367              		.align	1
 2368              		.global	drawStringArray
 2369              		.syntax unified
 2370              		.thumb
 2371              		.thumb_func
 2372              		.fpu softvfp
 2374              	drawStringArray:
 2375              	.LVL243:
 2376              	.LFB89:
 566:Src/draw.c    **** 
 567:Src/draw.c    **** void drawStringArray(uint8_t px, uint8_t py, uint8_t spacex, uint8_t spacey)
 568:Src/draw.c    **** {
 2377              		.loc 1 568 1 is_stmt 1 view -0
 2378              		.cfi_startproc
 2379              		@ args = 0, pretend = 0, frame = 8
 2380              		@ frame_needed = 0, uses_anonymous_args = 0
 2381              		.loc 1 568 1 is_stmt 0 view .LVU576
 2382 0000 2DE9F04F 		push	{r4, r5, r6, r7, r8, r9, r10, fp, lr}
 2383              	.LCFI28:
 2384              		.cfi_def_cfa_offset 36
 2385              		.cfi_offset 4, -36
 2386              		.cfi_offset 5, -32
 2387              		.cfi_offset 6, -28
 2388              		.cfi_offset 7, -24
 2389              		.cfi_offset 8, -20
 2390              		.cfi_offset 9, -16
ARM GAS  /var/folders/hv/f19l0kw128sbpybv1h43gz3c0000gn/T//ccsxUPDV.s 			page 57


 2391              		.cfi_offset 10, -12
 2392              		.cfi_offset 11, -8
 2393              		.cfi_offset 14, -4
 2394 0004 83B0     		sub	sp, sp, #12
 2395              	.LCFI29:
 2396              		.cfi_def_cfa_offset 48
 2397 0006 8246     		mov	r10, r0
 2398 0008 8B46     		mov	fp, r1
 2399 000a 0092     		str	r2, [sp]
 2400 000c 0193     		str	r3, [sp, #4]
 569:Src/draw.c    ****   uint8_t posX, incX = 0, posY, nLine = 0;
 2401              		.loc 1 569 3 is_stmt 1 view .LVU577
 2402              	.LVL244:
 570:Src/draw.c    ****   char temp;
 2403              		.loc 1 570 3 view .LVU578
 571:Src/draw.c    ****   for (uint8_t j = 0; j < ARRAY_LEN(noteBuffer); j++)
 2404              		.loc 1 571 3 view .LVU579
 2405              	.LBB67:
 2406              		.loc 1 571 8 view .LVU580
 2407              		.loc 1 571 16 is_stmt 0 view .LVU581
 2408 000e 0027     		movs	r7, #0
 2409              	.LBE67:
 569:Src/draw.c    ****   uint8_t posX, incX = 0, posY, nLine = 0;
 2410              		.loc 1 569 33 view .LVU582
 2411 0010 B846     		mov	r8, r7
 569:Src/draw.c    ****   uint8_t posX, incX = 0, posY, nLine = 0;
 2412              		.loc 1 569 17 view .LVU583
 2413 0012 B946     		mov	r9, r7
 2414              	.LBB70:
 2415              		.loc 1 571 3 view .LVU584
 2416 0014 2CE0     		b	.L210
 2417              	.LVL245:
 2418              	.L212:
 2419              	.LBB68:
 572:Src/draw.c    ****   {
 573:Src/draw.c    ****     setTextColor(noteBuffer[j].color);
 574:Src/draw.c    ****     for (uint8_t i = 0; i < 3; i++)
 575:Src/draw.c    ****     {
 576:Src/draw.c    ****       posX = incX * (3 + spacex) + px;
 577:Src/draw.c    ****       if (posX + ((3 + spacex)) > NCOLS - 2)
 578:Src/draw.c    ****       {
 579:Src/draw.c    ****         posX = px;
 580:Src/draw.c    ****         nLine++;
 581:Src/draw.c    ****         incX = 0;
 582:Src/draw.c    ****       }
 583:Src/draw.c    ****       posY = nLine * (5 + spacey) + py;
 2420              		.loc 1 583 7 is_stmt 1 view .LVU585
 2421              		.loc 1 583 35 is_stmt 0 view .LVU586
 2422 0016 019B     		ldr	r3, [sp, #4]
 2423 0018 5C1D     		adds	r4, r3, #5
 2424 001a 04FB08F4 		mul	r4, r4, r8
 2425 001e E4B2     		uxtb	r4, r4
 2426              		.loc 1 583 12 view .LVU587
 2427 0020 5C44     		add	r4, r4, fp
 2428 0022 E4B2     		uxtb	r4, r4
 2429              	.LVL246:
 584:Src/draw.c    ****       temp = getNoteBuffer(j, i);
ARM GAS  /var/folders/hv/f19l0kw128sbpybv1h43gz3c0000gn/T//ccsxUPDV.s 			page 58


 2430              		.loc 1 584 7 is_stmt 1 view .LVU588
 2431              		.loc 1 584 14 is_stmt 0 view .LVU589
 2432 0024 3146     		mov	r1, r6
 2433 0026 3846     		mov	r0, r7
 2434 0028 FFF7FEFF 		bl	getNoteBuffer
 2435              	.LVL247:
 585:Src/draw.c    ****       if (temp)
 2436              		.loc 1 585 7 is_stmt 1 view .LVU590
 2437              		.loc 1 585 10 is_stmt 0 view .LVU591
 2438 002c A8B9     		cbnz	r0, .L217
 2439              	.LVL248:
 2440              	.L213:
 574:Src/draw.c    ****     {
 2441              		.loc 1 574 33 discriminator 2 view .LVU592
 2442 002e 0136     		adds	r6, r6, #1
 2443              	.LVL249:
 574:Src/draw.c    ****     {
 2444              		.loc 1 574 33 discriminator 2 view .LVU593
 2445 0030 F6B2     		uxtb	r6, r6
 2446              	.LVL250:
 2447              	.L211:
 574:Src/draw.c    ****     {
 2448              		.loc 1 574 5 discriminator 1 view .LVU594
 2449 0032 022E     		cmp	r6, #2
 2450 0034 1AD8     		bhi	.L218
 576:Src/draw.c    ****       if (posX + ((3 + spacex)) > NCOLS - 2)
 2451              		.loc 1 576 7 is_stmt 1 view .LVU595
 576:Src/draw.c    ****       if (posX + ((3 + spacex)) > NCOLS - 2)
 2452              		.loc 1 576 34 is_stmt 0 view .LVU596
 2453 0036 009B     		ldr	r3, [sp]
 2454 0038 0333     		adds	r3, r3, #3
 2455 003a 03FB09F5 		mul	r5, r3, r9
 2456 003e EDB2     		uxtb	r5, r5
 576:Src/draw.c    ****       if (posX + ((3 + spacex)) > NCOLS - 2)
 2457              		.loc 1 576 12 view .LVU597
 2458 0040 5544     		add	r5, r5, r10
 2459 0042 EDB2     		uxtb	r5, r5
 2460              	.LVL251:
 577:Src/draw.c    ****       {
 2461              		.loc 1 577 7 is_stmt 1 view .LVU598
 577:Src/draw.c    ****       {
 2462              		.loc 1 577 16 is_stmt 0 view .LVU599
 2463 0044 2B44     		add	r3, r3, r5
 577:Src/draw.c    ****       {
 2464              		.loc 1 577 10 view .LVU600
 2465 0046 0E2B     		cmp	r3, #14
 2466 0048 E5DD     		ble	.L212
 579:Src/draw.c    ****         nLine++;
 2467              		.loc 1 579 9 is_stmt 1 view .LVU601
 2468              	.LVL252:
 580:Src/draw.c    ****         incX = 0;
 2469              		.loc 1 580 9 view .LVU602
 580:Src/draw.c    ****         incX = 0;
 2470              		.loc 1 580 14 is_stmt 0 view .LVU603
 2471 004a 08F10108 		add	r8, r8, #1
 2472              	.LVL253:
 580:Src/draw.c    ****         incX = 0;
ARM GAS  /var/folders/hv/f19l0kw128sbpybv1h43gz3c0000gn/T//ccsxUPDV.s 			page 59


 2473              		.loc 1 580 14 view .LVU604
 2474 004e 5FFA88F8 		uxtb	r8, r8
 2475              	.LVL254:
 581:Src/draw.c    ****       }
 2476              		.loc 1 581 9 is_stmt 1 view .LVU605
 579:Src/draw.c    ****         nLine++;
 2477              		.loc 1 579 14 is_stmt 0 view .LVU606
 2478 0052 5546     		mov	r5, r10
 581:Src/draw.c    ****       }
 2479              		.loc 1 581 14 view .LVU607
 2480 0054 4FF00009 		mov	r9, #0
 2481 0058 DDE7     		b	.L212
 2482              	.LVL255:
 2483              	.L217:
 586:Src/draw.c    ****       {
 587:Src/draw.c    ****         drawLetter(temp, posX, posY);
 2484              		.loc 1 587 9 is_stmt 1 view .LVU608
 2485 005a 2246     		mov	r2, r4
 2486 005c 2946     		mov	r1, r5
 2487 005e FFF7FEFF 		bl	drawLetter
 2488              	.LVL256:
 588:Src/draw.c    ****         incX++;
 2489              		.loc 1 588 9 view .LVU609
 2490              		.loc 1 588 13 is_stmt 0 view .LVU610
 2491 0062 09F10109 		add	r9, r9, #1
 2492              	.LVL257:
 2493              		.loc 1 588 13 view .LVU611
 2494 0066 5FFA89F9 		uxtb	r9, r9
 2495              	.LVL258:
 2496              		.loc 1 588 13 view .LVU612
 2497 006a E0E7     		b	.L213
 2498              	.LVL259:
 2499              	.L218:
 2500              		.loc 1 588 13 view .LVU613
 2501              	.LBE68:
 571:Src/draw.c    ****   {
 2502              		.loc 1 571 51 discriminator 2 view .LVU614
 2503 006c 0137     		adds	r7, r7, #1
 2504              	.LVL260:
 571:Src/draw.c    ****   {
 2505              		.loc 1 571 51 discriminator 2 view .LVU615
 2506 006e FFB2     		uxtb	r7, r7
 2507              	.LVL261:
 2508              	.L210:
 571:Src/draw.c    ****   {
 2509              		.loc 1 571 3 discriminator 1 view .LVU616
 2510 0070 092F     		cmp	r7, #9
 2511 0072 09D8     		bhi	.L219
 573:Src/draw.c    ****     for (uint8_t i = 0; i < 3; i++)
 2512              		.loc 1 573 5 is_stmt 1 view .LVU617
 573:Src/draw.c    ****     for (uint8_t i = 0; i < 3; i++)
 2513              		.loc 1 573 31 is_stmt 0 view .LVU618
 2514 0074 07EB4703 		add	r3, r7, r7, lsl #1
 2515 0078 5800     		lsls	r0, r3, #1
 2516 007a 054B     		ldr	r3, .L220
 2517 007c 1844     		add	r0, r0, r3
 573:Src/draw.c    ****     for (uint8_t i = 0; i < 3; i++)
ARM GAS  /var/folders/hv/f19l0kw128sbpybv1h43gz3c0000gn/T//ccsxUPDV.s 			page 60


 2518              		.loc 1 573 5 view .LVU619
 2519 007e 0330     		adds	r0, r0, #3
 2520 0080 FFF7FEFF 		bl	setTextColor
 2521              	.LVL262:
 574:Src/draw.c    ****     {
 2522              		.loc 1 574 5 is_stmt 1 view .LVU620
 2523              	.LBB69:
 574:Src/draw.c    ****     {
 2524              		.loc 1 574 10 view .LVU621
 574:Src/draw.c    ****     {
 2525              		.loc 1 574 18 is_stmt 0 view .LVU622
 2526 0084 0026     		movs	r6, #0
 574:Src/draw.c    ****     {
 2527              		.loc 1 574 5 view .LVU623
 2528 0086 D4E7     		b	.L211
 2529              	.LVL263:
 2530              	.L219:
 574:Src/draw.c    ****     {
 2531              		.loc 1 574 5 view .LVU624
 2532              	.LBE69:
 2533              	.LBE70:
 589:Src/draw.c    ****       }
 590:Src/draw.c    ****     }
 591:Src/draw.c    ****   }
 592:Src/draw.c    **** }
 2534              		.loc 1 592 1 view .LVU625
 2535 0088 03B0     		add	sp, sp, #12
 2536              	.LCFI30:
 2537              		.cfi_def_cfa_offset 36
 2538              		@ sp needed
 2539 008a BDE8F08F 		pop	{r4, r5, r6, r7, r8, r9, r10, fp, pc}
 2540              	.LVL264:
 2541              	.L221:
 2542              		.loc 1 592 1 view .LVU626
 2543 008e 00BF     		.align	2
 2544              	.L220:
 2545 0090 00000000 		.word	noteBuffer
 2546              		.cfi_endproc
 2547              	.LFE89:
 2549              		.section	.text.drawScrollingString,"ax",%progbits
 2550              		.align	1
 2551              		.global	drawScrollingString
 2552              		.syntax unified
 2553              		.thumb
 2554              		.thumb_func
 2555              		.fpu softvfp
 2557              	drawScrollingString:
 2558              	.LVL265:
 2559              	.LFB90:
 593:Src/draw.c    **** 
 594:Src/draw.c    **** void drawScrollingString(char *frase, uint16_t interval_ms, uint8_t space, uint8_t offX, uint8_t of
 595:Src/draw.c    **** {
 2560              		.loc 1 595 1 is_stmt 1 view -0
 2561              		.cfi_startproc
 2562              		@ args = 4, pretend = 0, frame = 40
 2563              		@ frame_needed = 0, uses_anonymous_args = 0
 2564              		.loc 1 595 1 is_stmt 0 view .LVU628
ARM GAS  /var/folders/hv/f19l0kw128sbpybv1h43gz3c0000gn/T//ccsxUPDV.s 			page 61


 2565 0000 2DE9F04F 		push	{r4, r5, r6, r7, r8, r9, r10, fp, lr}
 2566              	.LCFI31:
 2567              		.cfi_def_cfa_offset 36
 2568              		.cfi_offset 4, -36
 2569              		.cfi_offset 5, -32
 2570              		.cfi_offset 6, -28
 2571              		.cfi_offset 7, -24
 2572              		.cfi_offset 8, -20
 2573              		.cfi_offset 9, -16
 2574              		.cfi_offset 10, -12
 2575              		.cfi_offset 11, -8
 2576              		.cfi_offset 14, -4
 2577 0004 8BB0     		sub	sp, sp, #44
 2578              	.LCFI32:
 2579              		.cfi_def_cfa_offset 80
 2580 0006 0390     		str	r0, [sp, #12]
 2581 0008 0991     		str	r1, [sp, #36]
 2582 000a 9946     		mov	r9, r3
 2583 000c 9DF85030 		ldrb	r3, [sp, #80]	@ zero_extendqisi2
 2584              	.LVL266:
 2585              		.loc 1 595 1 view .LVU629
 2586 0010 0293     		str	r3, [sp, #8]
 596:Src/draw.c    ****   int8_t posX, posY;
 2587              		.loc 1 596 3 is_stmt 1 view .LVU630
 597:Src/draw.c    ****   uint8_t fill, width = 3 + space;
 2588              		.loc 1 597 3 view .LVU631
 2589              		.loc 1 597 17 is_stmt 0 view .LVU632
 2590 0012 0332     		adds	r2, r2, #3
 2591              	.LVL267:
 2592              		.loc 1 597 17 view .LVU633
 2593 0014 5FFA82FA 		uxtb	r10, r2
 2594              	.LVL268:
 598:Src/draw.c    ****   for (uint8_t letter = 0; letter < strlen(frase); letter++)
 2595              		.loc 1 598 3 is_stmt 1 view .LVU634
 2596              	.LBB71:
 2597              		.loc 1 598 8 view .LVU635
 2598              		.loc 1 598 16 is_stmt 0 view .LVU636
 2599 0018 0023     		movs	r3, #0
 2600 001a 0893     		str	r3, [sp, #32]
 2601              		.loc 1 598 3 view .LVU637
 2602 001c 87E0     		b	.L223
 2603              	.LVL269:
 2604              	.L230:
 2605              	.LBB72:
 2606              	.LBB73:
 2607              	.LBB74:
 2608              	.LBB75:
 599:Src/draw.c    ****   {
 600:Src/draw.c    ****     for (uint8_t pos = 0; pos < 3; pos++)
 601:Src/draw.c    ****     {
 602:Src/draw.c    ****       clearText();
 603:Src/draw.c    ****       for (uint8_t i = letter, idx = 0; i < strlen(frase); i++, idx++)
 604:Src/draw.c    ****       {
 605:Src/draw.c    ****         posX = (idx * width) + offX;
 606:Src/draw.c    ****         posY = offY;
 607:Src/draw.c    **** 
 608:Src/draw.c    ****         for (int8_t y = posY, l = 0; y < (posY + 5); y++, l++)
ARM GAS  /var/folders/hv/f19l0kw128sbpybv1h43gz3c0000gn/T//ccsxUPDV.s 			page 62


 609:Src/draw.c    ****         {
 610:Src/draw.c    ****           if (y >= (NCOLS - offY))
 611:Src/draw.c    ****             break;
 612:Src/draw.c    ****           fill = getFontLine(frase[i], l);
 613:Src/draw.c    ****           for (int8_t x = posX - pos, aX = 3; x < (posX + width) - pos; x++, aX--)
 614:Src/draw.c    ****           {
 615:Src/draw.c    ****             if (x >= (NCOLS - offX))
 616:Src/draw.c    ****               break;
 617:Src/draw.c    ****             if (x >= offX)
 618:Src/draw.c    ****             {
 619:Src/draw.c    ****               if (fill & (1u << aX))
 620:Src/draw.c    ****               {
 621:Src/draw.c    **** #if COLOR_1BIT
 622:Src/draw.c    ****                 BIT_SET(textLayer[DIV_8(x + (y * NCOLS))], REST_8(x + (y * NCOLS)));
 2609              		.loc 1 622 17 view .LVU638
 2610 001e C910     		asrs	r1, r1, #3
 2611 0020 D0F1000C 		rsbs	ip, r0, #0
 2612 0024 00F00700 		and	r0, r0, #7
 2613 0028 0CF0070C 		and	ip, ip, #7
 2614 002c 58BF     		it	pl
 2615 002e CCF10000 		rsbpl	r0, ip, #0
 2616 0032 4FF0010E 		mov	lr, #1
 2617 0036 0EFA00FE 		lsl	lr, lr, r0
 2618 003a DFF814C1 		ldr	ip, .L241
 2619 003e 1CF80100 		ldrb	r0, [ip, r1]	@ zero_extendqisi2
 2620 0042 40EA0E00 		orr	r0, r0, lr
 2621 0046 0CF80100 		strb	r0, [ip, r1]
 2622              	.L229:
 613:Src/draw.c    ****           {
 2623              		.loc 1 613 74 discriminator 2 view .LVU639
 2624 004a 0133     		adds	r3, r3, #1
 2625              	.LVL270:
 613:Src/draw.c    ****           {
 2626              		.loc 1 613 74 discriminator 2 view .LVU640
 2627 004c 5BB2     		sxtb	r3, r3
 2628              	.LVL271:
 613:Src/draw.c    ****           {
 2629              		.loc 1 613 80 discriminator 2 view .LVU641
 2630 004e 013A     		subs	r2, r2, #1
 2631              	.LVL272:
 613:Src/draw.c    ****           {
 2632              		.loc 1 613 80 discriminator 2 view .LVU642
 2633 0050 52B2     		sxtb	r2, r2
 2634              	.LVL273:
 2635              	.L227:
 613:Src/draw.c    ****           {
 2636              		.loc 1 613 49 discriminator 1 view .LVU643
 2637 0052 1846     		mov	r0, r3
 613:Src/draw.c    ****           {
 2638              		.loc 1 613 57 discriminator 1 view .LVU644
 2639 0054 04EB0901 		add	r1, r4, r9
 613:Src/draw.c    ****           {
 2640              		.loc 1 613 66 discriminator 1 view .LVU645
 2641 0058 A1EB0A01 		sub	r1, r1, r10
 613:Src/draw.c    ****           {
 2642              		.loc 1 613 11 discriminator 1 view .LVU646
 2643 005c 8B42     		cmp	r3, r1
ARM GAS  /var/folders/hv/f19l0kw128sbpybv1h43gz3c0000gn/T//ccsxUPDV.s 			page 63


 2644 005e 11DA     		bge	.L228
 615:Src/draw.c    ****               break;
 2645              		.loc 1 615 13 is_stmt 1 view .LVU647
 615:Src/draw.c    ****               break;
 2646              		.loc 1 615 29 is_stmt 0 view .LVU648
 2647 0060 C8F11001 		rsb	r1, r8, #16
 615:Src/draw.c    ****               break;
 2648              		.loc 1 615 16 view .LVU649
 2649 0064 9942     		cmp	r1, r3
 2650 0066 0DDD     		ble	.L228
 617:Src/draw.c    ****             {
 2651              		.loc 1 617 13 is_stmt 1 view .LVU650
 617:Src/draw.c    ****             {
 2652              		.loc 1 617 16 is_stmt 0 view .LVU651
 2653 0068 8045     		cmp	r8, r0
 2654 006a EEDC     		bgt	.L229
 619:Src/draw.c    ****               {
 2655              		.loc 1 619 15 is_stmt 1 view .LVU652
 619:Src/draw.c    ****               {
 2656              		.loc 1 619 19 is_stmt 0 view .LVU653
 2657 006c 2BFA02F1 		lsr	r1, fp, r2
 619:Src/draw.c    ****               {
 2658              		.loc 1 619 18 view .LVU654
 2659 0070 11F0010F 		tst	r1, #1
 2660 0074 E9D0     		beq	.L229
 2661              		.loc 1 622 17 is_stmt 1 view .LVU655
 2662 0076 00EB0710 		add	r0, r0, r7, lsl #4
 2663 007a 0146     		mov	r1, r0
 2664 007c 0028     		cmp	r0, #0
 2665 007e CEDA     		bge	.L230
 2666 0080 C11D     		adds	r1, r0, #7
 2667 0082 CCE7     		b	.L230
 2668              	.L228:
 2669              	.LBE75:
 608:Src/draw.c    ****         {
 2670              		.loc 1 608 55 is_stmt 0 discriminator 2 view .LVU656
 2671 0084 0135     		adds	r5, r5, #1
 2672              	.LVL274:
 608:Src/draw.c    ****         {
 2673              		.loc 1 608 55 discriminator 2 view .LVU657
 2674 0086 6DB2     		sxtb	r5, r5
 2675              	.LVL275:
 608:Src/draw.c    ****         {
 2676              		.loc 1 608 60 discriminator 2 view .LVU658
 2677 0088 0136     		adds	r6, r6, #1
 2678              	.LVL276:
 608:Src/draw.c    ****         {
 2679              		.loc 1 608 60 discriminator 2 view .LVU659
 2680 008a 76B2     		sxtb	r6, r6
 2681              	.LVL277:
 2682              	.L225:
 608:Src/draw.c    ****         {
 2683              		.loc 1 608 40 discriminator 1 view .LVU660
 2684 008c 019B     		ldr	r3, [sp, #4]
 2685 008e 0433     		adds	r3, r3, #4
 2686 0090 2F46     		mov	r7, r5
 608:Src/draw.c    ****         {
ARM GAS  /var/folders/hv/f19l0kw128sbpybv1h43gz3c0000gn/T//ccsxUPDV.s 			page 64


 2687              		.loc 1 608 9 discriminator 1 view .LVU661
 2688 0092 AB42     		cmp	r3, r5
 2689 0094 11DB     		blt	.L226
 610:Src/draw.c    ****             break;
 2690              		.loc 1 610 11 is_stmt 1 view .LVU662
 610:Src/draw.c    ****             break;
 2691              		.loc 1 610 27 is_stmt 0 view .LVU663
 2692 0096 029B     		ldr	r3, [sp, #8]
 2693 0098 C3F11003 		rsb	r3, r3, #16
 610:Src/draw.c    ****             break;
 2694              		.loc 1 610 14 view .LVU664
 2695 009c AB42     		cmp	r3, r5
 2696 009e 0CDD     		ble	.L226
 612:Src/draw.c    ****           for (int8_t x = posX - pos, aX = 3; x < (posX + width) - pos; x++, aX--)
 2697              		.loc 1 612 11 is_stmt 1 view .LVU665
 612:Src/draw.c    ****           for (int8_t x = posX - pos, aX = 3; x < (posX + width) - pos; x++, aX--)
 2698              		.loc 1 612 18 is_stmt 0 view .LVU666
 2699 00a0 3146     		mov	r1, r6
 2700 00a2 039B     		ldr	r3, [sp, #12]
 2701 00a4 049A     		ldr	r2, [sp, #16]
 2702 00a6 985C     		ldrb	r0, [r3, r2]	@ zero_extendqisi2
 2703 00a8 FFF7FEFF 		bl	getFontLine
 2704              	.LVL278:
 2705 00ac 8346     		mov	fp, r0
 2706              	.LVL279:
 613:Src/draw.c    ****           {
 2707              		.loc 1 613 11 is_stmt 1 view .LVU667
 2708              	.LBB76:
 613:Src/draw.c    ****           {
 2709              		.loc 1 613 16 view .LVU668
 613:Src/draw.c    ****           {
 2710              		.loc 1 613 32 is_stmt 0 view .LVU669
 2711 00ae 059B     		ldr	r3, [sp, #20]
 2712 00b0 A3EB0A03 		sub	r3, r3, r10
 613:Src/draw.c    ****           {
 2713              		.loc 1 613 23 view .LVU670
 2714 00b4 5BB2     		sxtb	r3, r3
 2715              	.LVL280:
 613:Src/draw.c    ****           {
 2716              		.loc 1 613 39 view .LVU671
 2717 00b6 0322     		movs	r2, #3
 613:Src/draw.c    ****           {
 2718              		.loc 1 613 11 view .LVU672
 2719 00b8 CBE7     		b	.L227
 2720              	.LVL281:
 2721              	.L226:
 613:Src/draw.c    ****           {
 2722              		.loc 1 613 11 view .LVU673
 2723              	.LBE76:
 2724              	.LBE74:
 603:Src/draw.c    ****       {
 2725              		.loc 1 603 61 discriminator 2 view .LVU674
 2726 00ba 069B     		ldr	r3, [sp, #24]
 2727 00bc 0133     		adds	r3, r3, #1
 2728 00be DBB2     		uxtb	r3, r3
 2729 00c0 0693     		str	r3, [sp, #24]
 2730              	.LVL282:
ARM GAS  /var/folders/hv/f19l0kw128sbpybv1h43gz3c0000gn/T//ccsxUPDV.s 			page 65


 603:Src/draw.c    ****       {
 2731              		.loc 1 603 68 discriminator 2 view .LVU675
 2732 00c2 079B     		ldr	r3, [sp, #28]
 2733 00c4 0133     		adds	r3, r3, #1
 2734 00c6 DBB2     		uxtb	r3, r3
 2735 00c8 0793     		str	r3, [sp, #28]
 2736              	.LVL283:
 2737              	.L224:
 603:Src/draw.c    ****       {
 2738              		.loc 1 603 43 discriminator 1 view .LVU676
 2739 00ca 069C     		ldr	r4, [sp, #24]
 2740 00cc 0494     		str	r4, [sp, #16]
 603:Src/draw.c    ****       {
 2741              		.loc 1 603 45 discriminator 1 view .LVU677
 2742 00ce 0398     		ldr	r0, [sp, #12]
 2743 00d0 FFF7FEFF 		bl	strlen
 2744              	.LVL284:
 603:Src/draw.c    ****       {
 2745              		.loc 1 603 7 discriminator 1 view .LVU678
 2746 00d4 8442     		cmp	r4, r0
 2747 00d6 0DD2     		bcs	.L238
 605:Src/draw.c    ****         posY = offY;
 2748              		.loc 1 605 9 is_stmt 1 view .LVU679
 605:Src/draw.c    ****         posY = offY;
 2749              		.loc 1 605 21 is_stmt 0 view .LVU680
 2750 00d8 079B     		ldr	r3, [sp, #28]
 2751 00da 09FB03F3 		mul	r3, r9, r3
 2752 00de DBB2     		uxtb	r3, r3
 605:Src/draw.c    ****         posY = offY;
 2753              		.loc 1 605 30 view .LVU681
 2754 00e0 4344     		add	r3, r3, r8
 2755 00e2 DBB2     		uxtb	r3, r3
 2756 00e4 0593     		str	r3, [sp, #20]
 605:Src/draw.c    ****         posY = offY;
 2757              		.loc 1 605 14 view .LVU682
 2758 00e6 5CB2     		sxtb	r4, r3
 2759              	.LVL285:
 606:Src/draw.c    **** 
 2760              		.loc 1 606 9 is_stmt 1 view .LVU683
 606:Src/draw.c    **** 
 2761              		.loc 1 606 14 is_stmt 0 view .LVU684
 2762 00e8 9DF90830 		ldrsb	r3, [sp, #8]
 2763 00ec 0193     		str	r3, [sp, #4]
 2764              	.LVL286:
 608:Src/draw.c    ****         {
 2765              		.loc 1 608 9 is_stmt 1 view .LVU685
 2766              	.LBB77:
 608:Src/draw.c    ****         {
 2767              		.loc 1 608 14 view .LVU686
 608:Src/draw.c    ****         {
 2768              		.loc 1 608 21 is_stmt 0 view .LVU687
 2769 00ee 1D46     		mov	r5, r3
 608:Src/draw.c    ****         {
 2770              		.loc 1 608 31 view .LVU688
 2771 00f0 0026     		movs	r6, #0
 608:Src/draw.c    ****         {
 2772              		.loc 1 608 9 view .LVU689
ARM GAS  /var/folders/hv/f19l0kw128sbpybv1h43gz3c0000gn/T//ccsxUPDV.s 			page 66


 2773 00f2 CBE7     		b	.L225
 2774              	.LVL287:
 2775              	.L238:
 608:Src/draw.c    ****         {
 2776              		.loc 1 608 9 view .LVU690
 2777              	.LBE77:
 2778              	.LBE73:
 623:Src/draw.c    **** #else
 624:Src/draw.c    ****                 setColor(textLayer[x + (y * NCOLS)], textColor);
 625:Src/draw.c    **** #endif
 626:Src/draw.c    ****               }
 627:Src/draw.c    ****             }
 628:Src/draw.c    ****           }
 629:Src/draw.c    ****         }
 630:Src/draw.c    ****       }
 631:Src/draw.c    ****       fillFramebuffer();
 2779              		.loc 1 631 7 is_stmt 1 discriminator 2 view .LVU691
 2780 00f4 FFF7FEFF 		bl	fillFramebuffer
 2781              	.LVL288:
 632:Src/draw.c    ****       WS2812_sendbuf(24 * NLEDSCH);
 2782              		.loc 1 632 7 discriminator 2 view .LVU692
 2783 00f8 4FF44070 		mov	r0, #768
 2784 00fc FFF7FEFF 		bl	WS2812_sendbuf
 2785              	.LVL289:
 633:Src/draw.c    ****       LL_mDelay(interval_ms);
 2786              		.loc 1 633 7 discriminator 2 view .LVU693
 2787 0100 0998     		ldr	r0, [sp, #36]
 2788 0102 FFF7FEFF 		bl	LL_mDelay
 2789              	.LVL290:
 600:Src/draw.c    ****     {
 2790              		.loc 1 600 39 is_stmt 0 discriminator 2 view .LVU694
 2791 0106 0AF10103 		add	r3, r10, #1
 2792 010a 5FFA83FA 		uxtb	r10, r3
 2793              	.LVL291:
 2794              	.L235:
 600:Src/draw.c    ****     {
 2795              		.loc 1 600 5 discriminator 1 view .LVU695
 2796 010e BAF1020F 		cmp	r10, #2
 2797 0112 06D8     		bhi	.L239
 602:Src/draw.c    ****       for (uint8_t i = letter, idx = 0; i < strlen(frase); i++, idx++)
 2798              		.loc 1 602 7 is_stmt 1 view .LVU696
 2799 0114 FFF7FEFF 		bl	clearText
 2800              	.LVL292:
 603:Src/draw.c    ****       {
 2801              		.loc 1 603 7 view .LVU697
 2802              	.LBB78:
 603:Src/draw.c    ****       {
 2803              		.loc 1 603 12 view .LVU698
 603:Src/draw.c    ****       {
 2804              		.loc 1 603 20 is_stmt 0 view .LVU699
 2805 0118 089B     		ldr	r3, [sp, #32]
 2806 011a 0693     		str	r3, [sp, #24]
 603:Src/draw.c    ****       {
 2807              		.loc 1 603 32 view .LVU700
 2808 011c 0023     		movs	r3, #0
 2809 011e 0793     		str	r3, [sp, #28]
 603:Src/draw.c    ****       {
ARM GAS  /var/folders/hv/f19l0kw128sbpybv1h43gz3c0000gn/T//ccsxUPDV.s 			page 67


 2810              		.loc 1 603 7 view .LVU701
 2811 0120 D3E7     		b	.L224
 2812              	.LVL293:
 2813              	.L239:
 603:Src/draw.c    ****       {
 2814              		.loc 1 603 7 view .LVU702
 2815 0122 CA46     		mov	r10, r9
 2816              	.LVL294:
 603:Src/draw.c    ****       {
 2817              		.loc 1 603 7 view .LVU703
 2818 0124 C146     		mov	r9, r8
 2819              	.LVL295:
 603:Src/draw.c    ****       {
 2820              		.loc 1 603 7 view .LVU704
 2821              	.LBE78:
 2822              	.LBE72:
 598:Src/draw.c    ****   {
 2823              		.loc 1 598 58 discriminator 2 view .LVU705
 2824 0126 089B     		ldr	r3, [sp, #32]
 2825 0128 0133     		adds	r3, r3, #1
 2826 012a DBB2     		uxtb	r3, r3
 2827 012c 0893     		str	r3, [sp, #32]
 2828              	.LVL296:
 2829              	.L223:
 598:Src/draw.c    ****   {
 2830              		.loc 1 598 37 discriminator 1 view .LVU706
 2831 012e 0398     		ldr	r0, [sp, #12]
 2832 0130 FFF7FEFF 		bl	strlen
 2833              	.LVL297:
 598:Src/draw.c    ****   {
 2834              		.loc 1 598 3 discriminator 1 view .LVU707
 2835 0134 089B     		ldr	r3, [sp, #32]
 2836 0136 8342     		cmp	r3, r0
 2837 0138 06D2     		bcs	.L240
 2838              	.LBB79:
 600:Src/draw.c    ****     {
 2839              		.loc 1 600 18 view .LVU708
 2840 013a 4FF00008 		mov	r8, #0
 2841 013e 4B46     		mov	r3, r9
 2842 0140 D146     		mov	r9, r10
 2843 0142 C246     		mov	r10, r8
 2844              	.LVL298:
 600:Src/draw.c    ****     {
 2845              		.loc 1 600 18 view .LVU709
 2846 0144 9846     		mov	r8, r3
 2847 0146 E2E7     		b	.L235
 2848              	.LVL299:
 2849              	.L240:
 600:Src/draw.c    ****     {
 2850              		.loc 1 600 18 view .LVU710
 2851              	.LBE79:
 2852              	.LBE71:
 634:Src/draw.c    ****     }
 635:Src/draw.c    ****   }
 636:Src/draw.c    **** }...
 2853              		.loc 1 636 1 view .LVU711
 2854 0148 0BB0     		add	sp, sp, #44
ARM GAS  /var/folders/hv/f19l0kw128sbpybv1h43gz3c0000gn/T//ccsxUPDV.s 			page 68


 2855              	.LCFI33:
 2856              		.cfi_def_cfa_offset 36
 2857              		@ sp needed
 2858 014a BDE8F08F 		pop	{r4, r5, r6, r7, r8, r9, r10, fp, pc}
 2859              	.LVL300:
 2860              	.L242:
 2861              		.loc 1 636 1 view .LVU712
 2862 014e 00BF     		.align	2
 2863              	.L241:
 2864 0150 00000000 		.word	textLayer
 2865              		.cfi_endproc
 2866              	.LFE90:
 2868              		.comm	callback_function,4,4
 2869              		.global	MAX_DIV
 2870              		.global	orientation
 2871              		.global	font4x6
 2872              		.global	arrColor
 2873              		.global	arr
 2874              		.global	letterColor
 2875              		.global	currColor
 2876              		.comm	WS2812_IO_framedata,1536,4
 2877              		.comm	noteBuffer,60,4
 2878              		.comm	noteSequence,114,4
 2879              		.comm	note,3,4
 2880              		.comm	textColor,3,4
 2881              		.comm	backColor,3,4
 2882              		.comm	textLayer,32,4
 2883              		.comm	backLayer,768,4
 2884              		.section	.bss.arr,"aw",%nobits
 2885              		.align	2
 2888              	arr:
 2889 0000 000000   		.space	3
 2890              		.section	.bss.orientation,"aw",%nobits
 2891              		.set	.LANCHOR1,. + 0
 2894              	orientation:
 2895 0000 00       		.space	1
 2896              		.section	.data.MAX_DIV,"aw"
 2897              		.set	.LANCHOR2,. + 0
 2900              	MAX_DIV:
 2901 0000 03       		.byte	3
 2902              		.section	.data.arrColor,"aw"
 2903              		.align	2
 2904              		.set	.LANCHOR0,. + 0
 2907              	arrColor:
 2908 0000 32       		.byte	50
 2909 0001 00       		.byte	0
 2910 0002 00       		.byte	0
 2911 0003 32       		.byte	50
 2912 0004 19       		.byte	25
 2913 0005 00       		.byte	0
 2914 0006 32       		.byte	50
 2915 0007 32       		.byte	50
 2916 0008 00       		.byte	0
 2917 0009 32       		.byte	50
 2918 000a 26       		.byte	38
 2919 000b 00       		.byte	0
 2920 000c 00       		.byte	0
ARM GAS  /var/folders/hv/f19l0kw128sbpybv1h43gz3c0000gn/T//ccsxUPDV.s 			page 69


 2921 000d 32       		.byte	50
 2922 000e 24       		.byte	36
 2923 000f 19       		.byte	25
 2924 0010 00       		.byte	0
 2925 0011 32       		.byte	50
 2926 0012 32       		.byte	50
 2927 0013 00       		.byte	0
 2928 0014 19       		.byte	25
 2929 0015 32       		.byte	50
 2930 0016 00       		.byte	0
 2931 0017 32       		.byte	50
 2932 0018 00       		.byte	0
 2933 0019 00       		.byte	0
 2934 001a 28       		.byte	40
 2935 001b 1E       		.byte	30
 2936 001c 1E       		.byte	30
 2937 001d 1E       		.byte	30
 2938 001e 3C       		.byte	60
 2939 001f 3C       		.byte	60
 2940 0020 14       		.byte	20
 2941 0021 3C       		.byte	60
 2942 0022 1E       		.byte	30
 2943 0023 14       		.byte	20
 2944 0024 00       		.byte	0
 2945 0025 00       		.byte	0
 2946 0026 00       		.byte	0
 2947              		.section	.data.currColor,"aw"
 2948              		.align	2
 2951              	currColor:
 2952 0000 3C       		.byte	60
 2953 0001 19       		.byte	25
 2954 0002 00       		.byte	0
 2955              		.section	.data.letterColor,"aw"
 2956              		.align	2
 2959              	letterColor:
 2960 0000 00       		.byte	0
 2961 0001 0A       		.byte	10
 2962 0002 00       		.byte	0
 2963              		.section	.rodata.font4x6,"a"
 2964              		.align	2
 2965              		.set	.LANCHOR3,. + 0
 2968              	font4x6:
 2969 0000 00       		.byte	0
 2970 0001 00       		.byte	0
 2971 0002 49       		.byte	73
 2972 0003 08       		.byte	8
 2973 0004 B4       		.byte	-76
 2974 0005 00       		.byte	0
 2975 0006 BE       		.byte	-66
 2976 0007 F6       		.byte	-10
 2977 0008 7B       		.byte	123
 2978 0009 7A       		.byte	122
 2979 000a A5       		.byte	-91
 2980 000b 94       		.byte	-108
 2981 000c 55       		.byte	85
 2982 000d B8       		.byte	-72
 2983 000e 48       		.byte	72
ARM GAS  /var/folders/hv/f19l0kw128sbpybv1h43gz3c0000gn/T//ccsxUPDV.s 			page 70


 2984 000f 00       		.byte	0
 2985 0010 29       		.byte	41
 2986 0011 44       		.byte	68
 2987 0012 44       		.byte	68
 2988 0013 2A       		.byte	42
 2989 0014 15       		.byte	21
 2990 0015 A0       		.byte	-96
 2991 0016 0B       		.byte	11
 2992 0017 42       		.byte	66
 2993 0018 00       		.byte	0
 2994 0019 50       		.byte	80
 2995 001a 03       		.byte	3
 2996 001b 02       		.byte	2
 2997 001c 00       		.byte	0
 2998 001d 08       		.byte	8
 2999 001e 25       		.byte	37
 3000 001f 90       		.byte	-112
 3001 0020 76       		.byte	118
 3002 0021 BA       		.byte	-70
 3003 0022 59       		.byte	89
 3004 0023 5C       		.byte	92
 3005 0024 C5       		.byte	-59
 3006 0025 9E       		.byte	-98
 3007 0026 C5       		.byte	-59
 3008 0027 38       		.byte	56
 3009 0028 92       		.byte	-110
 3010 0029 E6       		.byte	-26
 3011 002a F3       		.byte	-13
 3012 002b 3A       		.byte	58
 3013 002c 73       		.byte	115
 3014 002d BA       		.byte	-70
 3015 002e E5       		.byte	-27
 3016 002f 90       		.byte	-112
 3017 0030 77       		.byte	119
 3018 0031 BA       		.byte	-70
 3019 0032 77       		.byte	119
 3020 0033 3A       		.byte	58
 3021 0034 08       		.byte	8
 3022 0035 40       		.byte	64
 3023 0036 08       		.byte	8
 3024 0037 50       		.byte	80
 3025 0038 2A       		.byte	42
 3026 0039 44       		.byte	68
 3027 003a 1C       		.byte	28
 3028 003b E0       		.byte	-32
 3029 003c 88       		.byte	-120
 3030 003d 52       		.byte	82
 3031 003e E5       		.byte	-27
 3032 003f 08       		.byte	8
 3033 0040 56       		.byte	86
 3034 0041 8E       		.byte	-114
 3035 0042 77       		.byte	119
 3036 0043 B6       		.byte	-74
 3037 0044 77       		.byte	119
 3038 0045 B8       		.byte	-72
 3039 0046 72       		.byte	114
 3040 0047 8C       		.byte	-116
ARM GAS  /var/folders/hv/f19l0kw128sbpybv1h43gz3c0000gn/T//ccsxUPDV.s 			page 71


 3041 0048 D6       		.byte	-42
 3042 0049 BA       		.byte	-70
 3043 004a 73       		.byte	115
 3044 004b 9E       		.byte	-98
 3045 004c 73       		.byte	115
 3046 004d 92       		.byte	-110
 3047 004e 72       		.byte	114
 3048 004f AE       		.byte	-82
 3049 0050 B7       		.byte	-73
 3050 0051 B6       		.byte	-74
 3051 0052 E9       		.byte	-23
 3052 0053 5C       		.byte	92
 3053 0054 64       		.byte	100
 3054 0055 AA       		.byte	-86
 3055 0056 B7       		.byte	-73
 3056 0057 B4       		.byte	-76
 3057 0058 92       		.byte	-110
 3058 0059 9C       		.byte	-100
 3059 005a BE       		.byte	-66
 3060 005b B6       		.byte	-74
 3061 005c D6       		.byte	-42
 3062 005d B6       		.byte	-74
 3063 005e 56       		.byte	86
 3064 005f AA       		.byte	-86
 3065 0060 D7       		.byte	-41
 3066 0061 92       		.byte	-110
 3067 0062 76       		.byte	118
 3068 0063 EE       		.byte	-18
 3069 0064 77       		.byte	119
 3070 0065 B4       		.byte	-76
 3071 0066 71       		.byte	113
 3072 0067 38       		.byte	56
 3073 0068 E9       		.byte	-23
 3074 0069 48       		.byte	72
 3075 006a B6       		.byte	-74
 3076 006b AE       		.byte	-82
 3077 006c B6       		.byte	-74
 3078 006d AA       		.byte	-86
 3079 006e B6       		.byte	-74
 3080 006f F6       		.byte	-10
 3081 0070 B5       		.byte	-75
 3082 0071 B4       		.byte	-76
 3083 0072 B5       		.byte	-75
 3084 0073 48       		.byte	72
 3085 0074 E5       		.byte	-27
 3086 0075 9C       		.byte	-100
 3087 0076 69       		.byte	105
 3088 0077 4C       		.byte	76
 3089 0078 91       		.byte	-111
 3090 0079 24       		.byte	36
 3091 007a 64       		.byte	100
 3092 007b 2E       		.byte	46
 3093 007c 54       		.byte	84
 3094 007d 00       		.byte	0
 3095 007e 00       		.byte	0
 3096 007f 1C       		.byte	28
 3097 0080 44       		.byte	68
ARM GAS  /var/folders/hv/f19l0kw128sbpybv1h43gz3c0000gn/T//ccsxUPDV.s 			page 72


 3098 0081 00       		.byte	0
 3099 0082 0E       		.byte	14
 3100 0083 AE       		.byte	-82
 3101 0084 9A       		.byte	-102
 3102 0085 BA       		.byte	-70
 3103 0086 0E       		.byte	14
 3104 0087 8C       		.byte	-116
 3105 0088 2E       		.byte	46
 3106 0089 AE       		.byte	-82
 3107 008a 0E       		.byte	14
 3108 008b CE       		.byte	-50
 3109 008c 56       		.byte	86
 3110 008d D0       		.byte	-48
 3111 008e 55       		.byte	85
 3112 008f 3B       		.byte	59
 3113 0090 93       		.byte	-109
 3114 0091 B4       		.byte	-76
 3115 0092 41       		.byte	65
 3116 0093 44       		.byte	68
 3117 0094 41       		.byte	65
 3118 0095 51       		.byte	81
 3119 0096 97       		.byte	-105
 3120 0097 B4       		.byte	-76
 3121 0098 49       		.byte	73
 3122 0099 44       		.byte	68
 3123 009a 17       		.byte	23
 3124 009b B6       		.byte	-74
 3125 009c 1A       		.byte	26
 3126 009d B6       		.byte	-74
 3127 009e 0A       		.byte	10
 3128 009f AA       		.byte	-86
 3129 00a0 D6       		.byte	-42
 3130 00a1 D3       		.byte	-45
 3131 00a2 76       		.byte	118
 3132 00a3 67       		.byte	103
 3133 00a4 17       		.byte	23
 3134 00a5 90       		.byte	-112
 3135 00a6 0F       		.byte	15
 3136 00a7 38       		.byte	56
 3137 00a8 9A       		.byte	-102
 3138 00a9 8C       		.byte	-116
 3139 00aa 16       		.byte	22
 3140 00ab AE       		.byte	-82
 3141 00ac 16       		.byte	22
 3142 00ad BA       		.byte	-70
 3143 00ae 16       		.byte	22
 3144 00af F6       		.byte	-10
 3145 00b0 15       		.byte	21
 3146 00b1 B4       		.byte	-76
 3147 00b2 B5       		.byte	-75
 3148 00b3 2B       		.byte	43
 3149 00b4 1C       		.byte	28
 3150 00b5 5E       		.byte	94
 3151 00b6 6B       		.byte	107
 3152 00b7 4C       		.byte	76
 3153 00b8 49       		.byte	73
 3154 00b9 48       		.byte	72
ARM GAS  /var/folders/hv/f19l0kw128sbpybv1h43gz3c0000gn/T//ccsxUPDV.s 			page 73


 3155 00ba C9       		.byte	-55
 3156 00bb 5A       		.byte	90
 3157 00bc 54       		.byte	84
 3158 00bd 00       		.byte	0
 3159 00be 56       		.byte	86
 3160 00bf E2       		.byte	-30
 3161              		.text
 3162              	.Letext0:
 3163              		.file 2 "/Users/luissousa/opt/gcc-arm-none-eabi-8-2018-q4-major/arm-none-eabi/include/machine/_def
 3164              		.file 3 "/Users/luissousa/opt/gcc-arm-none-eabi-8-2018-q4-major/arm-none-eabi/include/sys/_stdint.
 3165              		.file 4 "/Users/luissousa/opt/gcc-arm-none-eabi-8-2018-q4-major/lib/gcc/arm-none-eabi/8.2.1/includ
 3166              		.file 5 "/Users/luissousa/opt/gcc-arm-none-eabi-8-2018-q4-major/arm-none-eabi/include/sys/lock.h"
 3167              		.file 6 "/Users/luissousa/opt/gcc-arm-none-eabi-8-2018-q4-major/arm-none-eabi/include/sys/_types.h
 3168              		.file 7 "/Users/luissousa/opt/gcc-arm-none-eabi-8-2018-q4-major/arm-none-eabi/include/sys/reent.h"
 3169              		.file 8 "Drivers/CMSIS/Include/core_cm3.h"
 3170              		.file 9 "Drivers/CMSIS/Device/ST/STM32F1xx/Include/system_stm32f1xx.h"
 3171              		.file 10 "Src/definitions.h"
 3172              		.file 11 "Src/notes.h"
 3173              		.file 12 "Src/ws2812.h"
 3174              		.file 13 "Src/draw.h"
 3175              		.file 14 "/Users/luissousa/opt/gcc-arm-none-eabi-8-2018-q4-major/arm-none-eabi/include/string.h"
 3176              		.file 15 "Drivers/STM32F1xx_HAL_Driver/Inc/stm32f1xx_ll_utils.h"
ARM GAS  /var/folders/hv/f19l0kw128sbpybv1h43gz3c0000gn/T//ccsxUPDV.s 			page 74


DEFINED SYMBOLS
                            *ABS*:0000000000000000 draw.c
/var/folders/hv/f19l0kw128sbpybv1h43gz3c0000gn/T//ccsxUPDV.s:16     .text.fillFramebuffer:0000000000000000 $t
/var/folders/hv/f19l0kw128sbpybv1h43gz3c0000gn/T//ccsxUPDV.s:24     .text.fillFramebuffer:0000000000000000 fillFramebuffer
/var/folders/hv/f19l0kw128sbpybv1h43gz3c0000gn/T//ccsxUPDV.s:208    .text.fillFramebuffer:00000000000000bc $d
                            *COM*:0000000000000300 backLayer
                            *COM*:0000000000000020 textLayer
                            *COM*:0000000000000003 textColor
/var/folders/hv/f19l0kw128sbpybv1h43gz3c0000gn/T//ccsxUPDV.s:215    .text.clearBack:0000000000000000 $t
/var/folders/hv/f19l0kw128sbpybv1h43gz3c0000gn/T//ccsxUPDV.s:222    .text.clearBack:0000000000000000 clearBack
/var/folders/hv/f19l0kw128sbpybv1h43gz3c0000gn/T//ccsxUPDV.s:294    .text.clearBack:0000000000000030 $d
/var/folders/hv/f19l0kw128sbpybv1h43gz3c0000gn/T//ccsxUPDV.s:300    .text.clearText:0000000000000000 $t
/var/folders/hv/f19l0kw128sbpybv1h43gz3c0000gn/T//ccsxUPDV.s:307    .text.clearText:0000000000000000 clearText
/var/folders/hv/f19l0kw128sbpybv1h43gz3c0000gn/T//ccsxUPDV.s:346    .text.clearText:0000000000000014 $d
/var/folders/hv/f19l0kw128sbpybv1h43gz3c0000gn/T//ccsxUPDV.s:351    .text.clearFramebuffer:0000000000000000 $t
/var/folders/hv/f19l0kw128sbpybv1h43gz3c0000gn/T//ccsxUPDV.s:358    .text.clearFramebuffer:0000000000000000 clearFramebuffer
/var/folders/hv/f19l0kw128sbpybv1h43gz3c0000gn/T//ccsxUPDV.s:463    .text.clearFramebuffer:0000000000000054 $d
/var/folders/hv/f19l0kw128sbpybv1h43gz3c0000gn/T//ccsxUPDV.s:470    .text.drawShapeNote:0000000000000000 $t
/var/folders/hv/f19l0kw128sbpybv1h43gz3c0000gn/T//ccsxUPDV.s:477    .text.drawShapeNote:0000000000000000 drawShapeNote
/var/folders/hv/f19l0kw128sbpybv1h43gz3c0000gn/T//ccsxUPDV.s:692    .text.drawShapeNote:00000000000000bc $d
                            *COM*:0000000000000004 callback_function
                            *COM*:000000000000003c noteBuffer
/var/folders/hv/f19l0kw128sbpybv1h43gz3c0000gn/T//ccsxUPDV.s:701    .text.drawShapeNoteGrad:0000000000000000 $t
/var/folders/hv/f19l0kw128sbpybv1h43gz3c0000gn/T//ccsxUPDV.s:708    .text.drawShapeNoteGrad:0000000000000000 drawShapeNoteGrad
/var/folders/hv/f19l0kw128sbpybv1h43gz3c0000gn/T//ccsxUPDV.s:978    .text.drawShapeNoteGrad:0000000000000120 $d
/var/folders/hv/f19l0kw128sbpybv1h43gz3c0000gn/T//ccsxUPDV.s:989    .text.circle:0000000000000000 $t
/var/folders/hv/f19l0kw128sbpybv1h43gz3c0000gn/T//ccsxUPDV.s:996    .text.circle:0000000000000000 circle
/var/folders/hv/f19l0kw128sbpybv1h43gz3c0000gn/T//ccsxUPDV.s:1047   .text.square:0000000000000000 $t
/var/folders/hv/f19l0kw128sbpybv1h43gz3c0000gn/T//ccsxUPDV.s:1054   .text.square:0000000000000000 square
/var/folders/hv/f19l0kw128sbpybv1h43gz3c0000gn/T//ccsxUPDV.s:1147   .text.cross:0000000000000000 $t
/var/folders/hv/f19l0kw128sbpybv1h43gz3c0000gn/T//ccsxUPDV.s:1154   .text.cross:0000000000000000 cross
/var/folders/hv/f19l0kw128sbpybv1h43gz3c0000gn/T//ccsxUPDV.s:1248   .text.horizontal:0000000000000000 $t
/var/folders/hv/f19l0kw128sbpybv1h43gz3c0000gn/T//ccsxUPDV.s:1255   .text.horizontal:0000000000000000 horizontal
/var/folders/hv/f19l0kw128sbpybv1h43gz3c0000gn/T//ccsxUPDV.s:1349   .text.vertical:0000000000000000 $t
/var/folders/hv/f19l0kw128sbpybv1h43gz3c0000gn/T//ccsxUPDV.s:1356   .text.vertical:0000000000000000 vertical
/var/folders/hv/f19l0kw128sbpybv1h43gz3c0000gn/T//ccsxUPDV.s:1450   .text.drawLine:0000000000000000 $t
/var/folders/hv/f19l0kw128sbpybv1h43gz3c0000gn/T//ccsxUPDV.s:1457   .text.drawLine:0000000000000000 drawLine
/var/folders/hv/f19l0kw128sbpybv1h43gz3c0000gn/T//ccsxUPDV.s:1540   .text.drawLine:0000000000000040 $d
/var/folders/hv/f19l0kw128sbpybv1h43gz3c0000gn/T//ccsxUPDV.s:1545   .text.drawPixel:0000000000000000 $t
/var/folders/hv/f19l0kw128sbpybv1h43gz3c0000gn/T//ccsxUPDV.s:1552   .text.drawPixel:0000000000000000 drawPixel
/var/folders/hv/f19l0kw128sbpybv1h43gz3c0000gn/T//ccsxUPDV.s:1633   .text.drawPixel:0000000000000040 $d
/var/folders/hv/f19l0kw128sbpybv1h43gz3c0000gn/T//ccsxUPDV.s:1638   .text.drawColor:0000000000000000 $t
/var/folders/hv/f19l0kw128sbpybv1h43gz3c0000gn/T//ccsxUPDV.s:1645   .text.drawColor:0000000000000000 drawColor
/var/folders/hv/f19l0kw128sbpybv1h43gz3c0000gn/T//ccsxUPDV.s:1712   .text.drawColor:000000000000002c $d
/var/folders/hv/f19l0kw128sbpybv1h43gz3c0000gn/T//ccsxUPDV.s:1717   .text.getFontLine:0000000000000000 $t
/var/folders/hv/f19l0kw128sbpybv1h43gz3c0000gn/T//ccsxUPDV.s:1724   .text.getFontLine:0000000000000000 getFontLine
/var/folders/hv/f19l0kw128sbpybv1h43gz3c0000gn/T//ccsxUPDV.s:1833   .text.getFontLine:0000000000000060 $d
/var/folders/hv/f19l0kw128sbpybv1h43gz3c0000gn/T//ccsxUPDV.s:1838   .text.drawLetter:0000000000000000 $t
/var/folders/hv/f19l0kw128sbpybv1h43gz3c0000gn/T//ccsxUPDV.s:1845   .text.drawLetter:0000000000000000 drawLetter
/var/folders/hv/f19l0kw128sbpybv1h43gz3c0000gn/T//ccsxUPDV.s:1981   .text.drawLetter:0000000000000094 $d
/var/folders/hv/f19l0kw128sbpybv1h43gz3c0000gn/T//ccsxUPDV.s:1986   .text.drawString:0000000000000000 $t
/var/folders/hv/f19l0kw128sbpybv1h43gz3c0000gn/T//ccsxUPDV.s:1993   .text.drawString:0000000000000000 drawString
/var/folders/hv/f19l0kw128sbpybv1h43gz3c0000gn/T//ccsxUPDV.s:2109   .text.checkSequence:0000000000000000 $t
/var/folders/hv/f19l0kw128sbpybv1h43gz3c0000gn/T//ccsxUPDV.s:2116   .text.checkSequence:0000000000000000 checkSequence
/var/folders/hv/f19l0kw128sbpybv1h43gz3c0000gn/T//ccsxUPDV.s:2249   .text.checkSequence:0000000000000078 $d
                            *COM*:0000000000000072 noteSequence
/var/folders/hv/f19l0kw128sbpybv1h43gz3c0000gn/T//ccsxUPDV.s:2256   .text.drawNote:0000000000000000 $t
ARM GAS  /var/folders/hv/f19l0kw128sbpybv1h43gz3c0000gn/T//ccsxUPDV.s 			page 75


/var/folders/hv/f19l0kw128sbpybv1h43gz3c0000gn/T//ccsxUPDV.s:2263   .text.drawNote:0000000000000000 drawNote
/var/folders/hv/f19l0kw128sbpybv1h43gz3c0000gn/T//ccsxUPDV.s:2283   .text.drawCenter:0000000000000000 $t
/var/folders/hv/f19l0kw128sbpybv1h43gz3c0000gn/T//ccsxUPDV.s:2290   .text.drawCenter:0000000000000000 drawCenter
/var/folders/hv/f19l0kw128sbpybv1h43gz3c0000gn/T//ccsxUPDV.s:2367   .text.drawStringArray:0000000000000000 $t
/var/folders/hv/f19l0kw128sbpybv1h43gz3c0000gn/T//ccsxUPDV.s:2374   .text.drawStringArray:0000000000000000 drawStringArray
/var/folders/hv/f19l0kw128sbpybv1h43gz3c0000gn/T//ccsxUPDV.s:2545   .text.drawStringArray:0000000000000090 $d
/var/folders/hv/f19l0kw128sbpybv1h43gz3c0000gn/T//ccsxUPDV.s:2550   .text.drawScrollingString:0000000000000000 $t
/var/folders/hv/f19l0kw128sbpybv1h43gz3c0000gn/T//ccsxUPDV.s:2557   .text.drawScrollingString:0000000000000000 drawScrollingString
/var/folders/hv/f19l0kw128sbpybv1h43gz3c0000gn/T//ccsxUPDV.s:2864   .text.drawScrollingString:0000000000000150 $d
/var/folders/hv/f19l0kw128sbpybv1h43gz3c0000gn/T//ccsxUPDV.s:2900   .data.MAX_DIV:0000000000000000 MAX_DIV
/var/folders/hv/f19l0kw128sbpybv1h43gz3c0000gn/T//ccsxUPDV.s:2894   .bss.orientation:0000000000000000 orientation
/var/folders/hv/f19l0kw128sbpybv1h43gz3c0000gn/T//ccsxUPDV.s:2968   .rodata.font4x6:0000000000000000 font4x6
/var/folders/hv/f19l0kw128sbpybv1h43gz3c0000gn/T//ccsxUPDV.s:2907   .data.arrColor:0000000000000000 arrColor
/var/folders/hv/f19l0kw128sbpybv1h43gz3c0000gn/T//ccsxUPDV.s:2888   .bss.arr:0000000000000000 arr
/var/folders/hv/f19l0kw128sbpybv1h43gz3c0000gn/T//ccsxUPDV.s:2959   .data.letterColor:0000000000000000 letterColor
/var/folders/hv/f19l0kw128sbpybv1h43gz3c0000gn/T//ccsxUPDV.s:2951   .data.currColor:0000000000000000 currColor
                            *COM*:0000000000000600 WS2812_IO_framedata
                            *COM*:0000000000000003 note
                            *COM*:0000000000000003 backColor
/var/folders/hv/f19l0kw128sbpybv1h43gz3c0000gn/T//ccsxUPDV.s:2885   .bss.arr:0000000000000000 $d
/var/folders/hv/f19l0kw128sbpybv1h43gz3c0000gn/T//ccsxUPDV.s:2895   .bss.orientation:0000000000000000 $d
/var/folders/hv/f19l0kw128sbpybv1h43gz3c0000gn/T//ccsxUPDV.s:2903   .data.arrColor:0000000000000000 $d
/var/folders/hv/f19l0kw128sbpybv1h43gz3c0000gn/T//ccsxUPDV.s:2948   .data.currColor:0000000000000000 $d
/var/folders/hv/f19l0kw128sbpybv1h43gz3c0000gn/T//ccsxUPDV.s:2956   .data.letterColor:0000000000000000 $d
/var/folders/hv/f19l0kw128sbpybv1h43gz3c0000gn/T//ccsxUPDV.s:2964   .rodata.font4x6:0000000000000000 $d

UNDEFINED SYMBOLS
setColorFB
WS2812_framedata_setPixel
setColor
__aeabi_i2f
__aeabi_fdiv
__aeabi_fmul
__aeabi_fcmple
__aeabi_fcmpge
__aeabi_fsub
strlen
setTextColor
getNoteBuffer
WS2812_sendbuf
LL_mDelay
