ARM GAS  /var/folders/hv/f19l0kw128sbpybv1h43gz3c0000gn/T//ccojdbgc.s 			page 1


   1              		.cpu cortex-m3
   2              		.eabi_attribute 20, 1
   3              		.eabi_attribute 21, 1
   4              		.eabi_attribute 23, 3
   5              		.eabi_attribute 24, 1
   6              		.eabi_attribute 25, 1
   7              		.eabi_attribute 26, 1
   8              		.eabi_attribute 30, 1
   9              		.eabi_attribute 34, 1
  10              		.eabi_attribute 18, 4
  11              		.file	"draw.c"
  12              		.text
  13              	.Ltext0:
  14              		.cfi_sections	.debug_frame
  15              		.section	.text.fillFramebuffer,"ax",%progbits
  16              		.align	1
  17              		.global	fillFramebuffer
  18              		.arch armv7-m
  19              		.syntax unified
  20              		.thumb
  21              		.thumb_func
  22              		.fpu softvfp
  24              	fillFramebuffer:
  25              	.LFB68:
  26              		.file 1 "Src/draw.c"
   1:Src/draw.c    **** #include "stdint.h"
   2:Src/draw.c    **** #include "string.h"
   3:Src/draw.c    **** #include "stm32f1xx_ll_utils.h"
   4:Src/draw.c    **** #include "definitions.h"
   5:Src/draw.c    **** #include "notes.h"
   6:Src/draw.c    **** #include "ws2812.h"
   7:Src/draw.c    **** #include "draw.h"
   8:Src/draw.c    **** 
   9:Src/draw.c    **** uint8_t currColor[3] = {60, 25, 0};
  10:Src/draw.c    **** uint8_t letterColor[3] = {0, 10, 0};
  11:Src/draw.c    **** 
  12:Src/draw.c    **** volatile uint8_t arr[3] = {0, 0, 0};
  13:Src/draw.c    **** uint8_t arrColor[13][3] = {
  14:Src/draw.c    ****     {50, 0, 0},   //red ~~
  15:Src/draw.c    ****     {50, 25, 0},  //orange ~~
  16:Src/draw.c    ****     {50, 50, 0},  //amarelo ~~
  17:Src/draw.c    ****     {50, 38, 0},  //castanho ~~
  18:Src/draw.c    ****     {0, 50, 36},  //azul turquesa ~~
  19:Src/draw.c    ****     {25, 0, 50},  //cor de rosa ~~
  20:Src/draw.c    ****     {50, 0, 25},  //rosa choque ~~
  21:Src/draw.c    ****     {50, 0, 50},  //violeta escuro ~~
  22:Src/draw.c    ****     {0, 0, 40},   //azul escuro
  23:Src/draw.c    ****     {30, 30, 30}, //cinzento
  24:Src/draw.c    ****     {60, 60, 20}, //branca
  25:Src/draw.c    ****     {60, 30, 20}, //red magenta
  26:Src/draw.c    ****     {0, 0, 0}};
  27:Src/draw.c    **** 
  28:Src/draw.c    **** const uint8_t font4x6[96][2] = {
  29:Src/draw.c    ****     {0x00, 0x00}, /*SPACE*/
  30:Src/draw.c    ****     {0x49, 0x08}, /*'!'*/
  31:Src/draw.c    ****     {0xb4, 0x00}, /*'"'*/
  32:Src/draw.c    ****     {0xbe, 0xf6}, /*'#'*/
ARM GAS  /var/folders/hv/f19l0kw128sbpybv1h43gz3c0000gn/T//ccojdbgc.s 			page 2


  33:Src/draw.c    ****     {0x7b, 0x7a}, /*'$'*/
  34:Src/draw.c    ****     {0xa5, 0x94}, /*'%'*/
  35:Src/draw.c    ****     {0x55, 0xb8}, /*'&'*/
  36:Src/draw.c    ****     {0x48, 0x00}, /*'''*/
  37:Src/draw.c    ****     {0x29, 0x44}, /*'('*/
  38:Src/draw.c    ****     {0x44, 0x2a}, /*')'*/
  39:Src/draw.c    ****     {0x15, 0xa0}, /*'*'*/
  40:Src/draw.c    ****     {0x0b, 0x42}, /*'+'*/
  41:Src/draw.c    ****     {0x00, 0x50}, /*','*/
  42:Src/draw.c    ****     {0x03, 0x02}, /*'-'*/
  43:Src/draw.c    ****     {0x00, 0x08}, /*'.'*/
  44:Src/draw.c    ****     {0x25, 0x90}, /*'/'*/
  45:Src/draw.c    ****     {0x76, 0xba}, /*'0'*/
  46:Src/draw.c    ****     {0x59, 0x5c}, /*'1'*/
  47:Src/draw.c    ****     {0xc5, 0x9e}, /*'2'*/
  48:Src/draw.c    ****     {0xc5, 0x38}, /*'3'*/
  49:Src/draw.c    ****     {0x92, 0xe6}, /*'4'*/
  50:Src/draw.c    ****     {0xf3, 0x3a}, /*'5'*/
  51:Src/draw.c    ****     {0x73, 0xba}, /*'6'*/
  52:Src/draw.c    ****     {0xe5, 0x90}, /*'7'*/
  53:Src/draw.c    ****     {0x77, 0xba}, /*'8'*/
  54:Src/draw.c    ****     {0x77, 0x3a}, /*'9'*/
  55:Src/draw.c    ****     {0x08, 0x40}, /*':'*/
  56:Src/draw.c    ****     {0x08, 0x50}, /*';'*/
  57:Src/draw.c    ****     {0x2a, 0x44}, /*'<'*/
  58:Src/draw.c    ****     {0x1c, 0xe0}, /*'='*/
  59:Src/draw.c    ****     {0x88, 0x52}, /*'>'*/
  60:Src/draw.c    ****     {0xe5, 0x08}, /*'?'*/
  61:Src/draw.c    ****     {0x56, 0x8e}, /*'@'*/
  62:Src/draw.c    ****     {0x77, 0xb6}, /*'A'*/
  63:Src/draw.c    ****     {0x77, 0xb8}, /*'B'*/
  64:Src/draw.c    ****     {0x72, 0x8c}, /*'C'*/
  65:Src/draw.c    ****     {0xd6, 0xba}, /*'D'*/
  66:Src/draw.c    ****     {0x73, 0x9e}, /*'E'*/
  67:Src/draw.c    ****     {0x73, 0x92}, /*'F'*/
  68:Src/draw.c    ****     {0x72, 0xae}, /*'G'*/
  69:Src/draw.c    ****     {0xb7, 0xb6}, /*'H'*/
  70:Src/draw.c    ****     {0xe9, 0x5c}, /*'I'*/
  71:Src/draw.c    ****     {0x64, 0xaa}, /*'J'*/
  72:Src/draw.c    ****     {0xb7, 0xb4}, /*'K'*/
  73:Src/draw.c    ****     {0x92, 0x9c}, /*'L'*/
  74:Src/draw.c    ****     {0xbe, 0xb6}, /*'M'*/
  75:Src/draw.c    ****     {0xd6, 0xb6}, /*'N'*/
  76:Src/draw.c    ****     {0x56, 0xaa}, /*'O'*/
  77:Src/draw.c    ****     {0xd7, 0x92}, /*'P'*/
  78:Src/draw.c    ****     {0x76, 0xee}, /*'Q'*/
  79:Src/draw.c    ****     {0x77, 0xb4}, /*'R'*/
  80:Src/draw.c    ****     {0x71, 0x38}, /*'S'*/
  81:Src/draw.c    ****     {0xe9, 0x48}, /*'T'*/
  82:Src/draw.c    ****     {0xb6, 0xae}, /*'U'*/
  83:Src/draw.c    ****     {0xb6, 0xaa}, /*'V'*/
  84:Src/draw.c    ****     {0xb6, 0xf6}, /*'W'*/
  85:Src/draw.c    ****     {0xb5, 0xb4}, /*'X'*/
  86:Src/draw.c    ****     {0xb5, 0x48}, /*'Y'*/
  87:Src/draw.c    ****     {0xe5, 0x9c}, /*'Z'*/
  88:Src/draw.c    ****     {0x69, 0x4c}, /*'['*/
  89:Src/draw.c    ****     {0x91, 0x24}, /*'\'*/
ARM GAS  /var/folders/hv/f19l0kw128sbpybv1h43gz3c0000gn/T//ccojdbgc.s 			page 3


  90:Src/draw.c    ****     {0x64, 0x2e}, /*']'*/
  91:Src/draw.c    ****     {0x54, 0x00}, /*'^'*/
  92:Src/draw.c    ****     {0x00, 0x1c}, /*'_'*/
  93:Src/draw.c    ****     {0x44, 0x00}, /*'`'*/
  94:Src/draw.c    ****     {0x0e, 0xae}, /*'a'*/
  95:Src/draw.c    ****     {0x9a, 0xba}, /*'b'*/
  96:Src/draw.c    ****     {0x0e, 0x8c}, /*'c'*/
  97:Src/draw.c    ****     {0x2e, 0xae}, /*'d'*/
  98:Src/draw.c    ****     {0x0e, 0xce}, /*'e'*/
  99:Src/draw.c    ****     {0x56, 0xd0}, /*'f'*/
 100:Src/draw.c    ****     {0x55, 0x3B}, /*'g'*/
 101:Src/draw.c    ****     {0x93, 0xb4}, /*'h'*/
 102:Src/draw.c    ****     {0x41, 0x44}, /*'i'*/
 103:Src/draw.c    ****     {0x41, 0x51}, /*'j'*/
 104:Src/draw.c    ****     {0x97, 0xb4}, /*'k'*/
 105:Src/draw.c    ****     {0x49, 0x44}, /*'l'*/
 106:Src/draw.c    ****     {0x17, 0xb6}, /*'m'*/
 107:Src/draw.c    ****     {0x1a, 0xb6}, /*'n'*/
 108:Src/draw.c    ****     {0x0a, 0xaa}, /*'o'*/
 109:Src/draw.c    ****     {0xd6, 0xd3}, /*'p'*/
 110:Src/draw.c    ****     {0x76, 0x67}, /*'q'*/
 111:Src/draw.c    ****     {0x17, 0x90}, /*'r'*/
 112:Src/draw.c    ****     {0x0f, 0x38}, /*'s'*/
 113:Src/draw.c    ****     {0x9a, 0x8c}, /*'t'*/
 114:Src/draw.c    ****     {0x16, 0xae}, /*'u'*/
 115:Src/draw.c    ****     {0x16, 0xba}, /*'v'*/
 116:Src/draw.c    ****     {0x16, 0xf6}, /*'w'*/
 117:Src/draw.c    ****     {0x15, 0xb4}, /*'x'*/
 118:Src/draw.c    ****     {0xb5, 0x2b}, /*'y'*/
 119:Src/draw.c    ****     {0x1c, 0x5e}, /*'z'*/
 120:Src/draw.c    ****     {0x6b, 0x4c}, /*'{'*/
 121:Src/draw.c    ****     {0x49, 0x48}, /*'|'*/
 122:Src/draw.c    ****     {0xc9, 0x5a}, /*'}'*/
 123:Src/draw.c    ****     {0x54, 0x00}, /*'~'*/
 124:Src/draw.c    ****     {0x56, 0xe2}  /*''*/
 125:Src/draw.c    **** };
 126:Src/draw.c    **** 
 127:Src/draw.c    **** void fillFramebuffer(void)
 128:Src/draw.c    **** {
  27              		.loc 1 128 1 view -0
  28              		.cfi_startproc
  29              		@ args = 0, pretend = 0, frame = 8
  30              		@ frame_needed = 0, uses_anonymous_args = 0
  31 0000 2DE9F04F 		push	{r4, r5, r6, r7, r8, r9, r10, fp, lr}
  32              	.LCFI0:
  33              		.cfi_def_cfa_offset 36
  34              		.cfi_offset 4, -36
  35              		.cfi_offset 5, -32
  36              		.cfi_offset 6, -28
  37              		.cfi_offset 7, -24
  38              		.cfi_offset 8, -20
  39              		.cfi_offset 9, -16
  40              		.cfi_offset 10, -12
  41              		.cfi_offset 11, -8
  42              		.cfi_offset 14, -4
  43 0004 85B0     		sub	sp, sp, #20
  44              	.LCFI1:
ARM GAS  /var/folders/hv/f19l0kw128sbpybv1h43gz3c0000gn/T//ccojdbgc.s 			page 4


  45              		.cfi_def_cfa_offset 56
 129:Src/draw.c    ****   uint8_t mod, tempPoint[3], invI, invJ, invX, tmp;
  46              		.loc 1 129 3 view .LVU1
 130:Src/draw.c    ****   uint16_t coords;
  47              		.loc 1 130 3 view .LVU2
 131:Src/draw.c    **** #if REVERSE_ORIENTATION
 132:Src/draw.c    ****   for (uint8_t x = 0; x < NCOLS; x++)
  48              		.loc 1 132 3 view .LVU3
  49              	.LBB2:
  50              		.loc 1 132 8 view .LVU4
  51              	.LVL0:
  52              		.loc 1 132 16 is_stmt 0 view .LVU5
  53 0006 4FF00009 		mov	r9, #0
  54              		.loc 1 132 3 view .LVU6
  55 000a 53E0     		b	.L2
  56              	.LVL1:
  57              	.L10:
  58              	.LBB3:
  59              	.LBB4:
 133:Src/draw.c    ****   {
 134:Src/draw.c    ****     for (uint8_t i = 0; i < NCHANNELS; i++)
 135:Src/draw.c    ****     {
 136:Src/draw.c    ****       for (uint8_t j = 0; j < NLINESCH; j++)
 137:Src/draw.c    ****       {
 138:Src/draw.c    ****         mod = j % 2;
 139:Src/draw.c    ****         if ((j + (i * NLINESCH)) > NCOLSL)
 140:Src/draw.c    ****           break;
 141:Src/draw.c    ****         coords = j + (i * NLINESCH) + (x * NCOLS);
 142:Src/draw.c    **** 
 143:Src/draw.c    **** #if MIRROR_X
 144:Src/draw.c    ****         invX = mod ? NCOLSL - x : x;
 145:Src/draw.c    **** #if MIRROR_Y
 146:Src/draw.c    ****         invI = i;
 147:Src/draw.c    ****         invJ = j;
 148:Src/draw.c    **** #else
 149:Src/draw.c    ****         invI = NCHANNELS - 1 - i;
 150:Src/draw.c    ****         invJ = NLINESCH - 1 - j;
 151:Src/draw.c    **** #endif
 152:Src/draw.c    **** #else
 153:Src/draw.c    ****         invX = mod ? x : NCOLSL - x;
  60              		.loc 1 153 14 view .LVU7
  61 000c CA46     		mov	r10, r9
  62              	.L4:
  63              	.LVL2:
 154:Src/draw.c    **** #if MIRROR_Y
 155:Src/draw.c    ****         invI = NCHANNELS - 1 - i;
 156:Src/draw.c    ****         invJ = NLINESCH - 1 - j;
 157:Src/draw.c    **** #else
 158:Src/draw.c    ****         invI = i;
  64              		.loc 1 158 9 is_stmt 1 discriminator 4 view .LVU8
 159:Src/draw.c    ****         invJ = j;
  65              		.loc 1 159 9 discriminator 4 view .LVU9
 160:Src/draw.c    **** #endif
 161:Src/draw.c    **** #endif
 162:Src/draw.c    **** #else
 163:Src/draw.c    ****   for (uint8_t i = 0; i < NCHANNELS; i++)
 164:Src/draw.c    ****   {
ARM GAS  /var/folders/hv/f19l0kw128sbpybv1h43gz3c0000gn/T//ccojdbgc.s 			page 5


 165:Src/draw.c    ****     for (uint8_t j = 0; j < NLINESCH; j++)
 166:Src/draw.c    ****     {
 167:Src/draw.c    ****       mod = j % 2;
 168:Src/draw.c    ****       for (uint8_t x = 0; x < NCOLS; x++)
 169:Src/draw.c    ****       {
 170:Src/draw.c    ****         if ((x + (j * NCOLS) + (i * NLEDSCH)) > NLEDSL)
 171:Src/draw.c    ****           break;
 172:Src/draw.c    ****         coords = x + (j * NCOLS) + (i * NLEDSCH);
 173:Src/draw.c    **** 
 174:Src/draw.c    **** #if MIRROR_X
 175:Src/draw.c    ****         invX = mod ? x : NCOLSL - x;
 176:Src/draw.c    **** #else
 177:Src/draw.c    ****         invX = mod ? NCOLSL - x : x;
 178:Src/draw.c    **** #endif
 179:Src/draw.c    **** #if MIRROR_Y
 180:Src/draw.c    ****         invI = NCHANNELS - 1 - i;
 181:Src/draw.c    ****         invJ = NLINESCH - 1 - j;
 182:Src/draw.c    **** #else
 183:Src/draw.c    ****         invI = i;
 184:Src/draw.c    ****         invJ = j;
 185:Src/draw.c    **** #endif
 186:Src/draw.c    **** #endif
 187:Src/draw.c    **** #if COLOR_1BIT
 188:Src/draw.c    ****         tmp = BIT_CHECK(textLayer[DIV_8(coords)], REST_8(coords));
  66              		.loc 1 188 9 discriminator 4 view .LVU10
  67              		.loc 1 188 15 is_stmt 0 discriminator 4 view .LVU11
  68 000e CB08     		lsrs	r3, r1, #3
  69 0010 2D4A     		ldr	r2, .L16
  70              	.LVL3:
  71              		.loc 1 188 15 discriminator 4 view .LVU12
  72 0012 12F803B0 		ldrb	fp, [r2, r3]	@ zero_extendqisi2
  73 0016 01F00703 		and	r3, r1, #7
  74 001a 2BFA03F2 		lsr	r2, fp, r3
  75 001e 02F00106 		and	r6, r2, #1
  76 0022 0027     		movs	r7, #0
  77              	.LVL4:
 189:Src/draw.c    ****         if (tmp)
  78              		.loc 1 189 9 is_stmt 1 discriminator 4 view .LVU13
  79              		.loc 1 189 12 is_stmt 0 discriminator 4 view .LVU14
  80 0024 56EA0703 		orrs	r3, r6, r7
  81 0028 2FD0     		beq	.L5
 190:Src/draw.c    ****           setColorFB(tempPoint, textColor);
  82              		.loc 1 190 11 is_stmt 1 view .LVU15
  83 002a 2849     		ldr	r1, .L16+4
  84              	.LVL5:
  85              		.loc 1 190 11 is_stmt 0 view .LVU16
  86 002c 03A8     		add	r0, sp, #12
  87 002e FFF7FEFF 		bl	setColorFB
  88              	.LVL6:
  89              	.L6:
 191:Src/draw.c    ****         else
 192:Src/draw.c    ****           setColorFB(tempPoint, backLayer[coords]);
 193:Src/draw.c    **** #else
 194:Src/draw.c    ****         tmp = textLayer[coords][0] + textLayer[coords][1] + textLayer[coords][2];
 195:Src/draw.c    ****         if (tmp)
 196:Src/draw.c    ****           setColorFB(tempPoint, textLayer[coords]);
 197:Src/draw.c    ****         else
ARM GAS  /var/folders/hv/f19l0kw128sbpybv1h43gz3c0000gn/T//ccojdbgc.s 			page 6


 198:Src/draw.c    ****           setColorFB(tempPoint, backLayer[coords]);
 199:Src/draw.c    **** #endif
 200:Src/draw.c    ****         WS2812_framedata_setPixel(invI, invX + (invJ * NCOLS), tempPoint[0], tempPoint[1], tempPoin
  90              		.loc 1 200 9 is_stmt 1 discriminator 2 view .LVU17
  91 0032 04EB4404 		add	r4, r4, r4, lsl #1
  92              	.LVL7:
  93              		.loc 1 200 9 is_stmt 0 discriminator 2 view .LVU18
  94 0036 C4EB0414 		rsb	r4, r4, r4, lsl #4
  95 003a 04EB0A01 		add	r1, r4, r10
  96 003e 9DF80E30 		ldrb	r3, [sp, #14]	@ zero_extendqisi2
  97 0042 0093     		str	r3, [sp]
  98 0044 9DF80D30 		ldrb	r3, [sp, #13]	@ zero_extendqisi2
  99 0048 9DF80C20 		ldrb	r2, [sp, #12]	@ zero_extendqisi2
 100 004c 89B2     		uxth	r1, r1
 101 004e 4046     		mov	r0, r8
 102 0050 FFF7FEFF 		bl	WS2812_framedata_setPixel
 103              	.LVL8:
 136:Src/draw.c    ****       {
 104              		.loc 1 136 42 discriminator 2 view .LVU19
 105 0054 0135     		adds	r5, r5, #1
 106              	.LVL9:
 136:Src/draw.c    ****       {
 107              		.loc 1 136 42 discriminator 2 view .LVU20
 108 0056 EDB2     		uxtb	r5, r5
 109              	.LVL10:
 110              	.L8:
 136:Src/draw.c    ****       {
 111              		.loc 1 136 7 discriminator 1 view .LVU21
 112 0058 032D     		cmp	r5, #3
 113 005a 1ED8     		bhi	.L3
 138:Src/draw.c    ****         if ((j + (i * NLINESCH)) > NCOLSL)
 114              		.loc 1 138 9 is_stmt 1 view .LVU22
 138:Src/draw.c    ****         if ((j + (i * NLINESCH)) > NCOLSL)
 115              		.loc 1 138 13 is_stmt 0 view .LVU23
 116 005c 05F00102 		and	r2, r5, #1
 117              	.LVL11:
 139:Src/draw.c    ****           break;
 118              		.loc 1 139 9 is_stmt 1 view .LVU24
 139:Src/draw.c    ****           break;
 119              		.loc 1 139 16 is_stmt 0 view .LVU25
 120 0060 05EB8803 		add	r3, r5, r8, lsl #2
 139:Src/draw.c    ****           break;
 121              		.loc 1 139 12 view .LVU26
 122 0064 2C2B     		cmp	r3, #44
 123 0066 18DC     		bgt	.L3
 141:Src/draw.c    **** 
 124              		.loc 1 141 9 is_stmt 1 view .LVU27
 141:Src/draw.c    **** 
 125              		.loc 1 141 37 is_stmt 0 view .LVU28
 126 0068 ACB2     		uxth	r4, r5
 127 006a 09EB4901 		add	r1, r9, r9, lsl #1
 128 006e C1EB0111 		rsb	r1, r1, r1, lsl #4
 129 0072 01EB8801 		add	r1, r1, r8, lsl #2
 130 0076 89B2     		uxth	r1, r1
 141:Src/draw.c    **** 
 131              		.loc 1 141 16 view .LVU29
 132 0078 2144     		add	r1, r1, r4
ARM GAS  /var/folders/hv/f19l0kw128sbpybv1h43gz3c0000gn/T//ccojdbgc.s 			page 7


 133 007a 89B2     		uxth	r1, r1
 134              	.LVL12:
 153:Src/draw.c    **** #if MIRROR_Y
 135              		.loc 1 153 9 is_stmt 1 view .LVU30
 153:Src/draw.c    **** #if MIRROR_Y
 136              		.loc 1 153 14 is_stmt 0 view .LVU31
 137 007c 002A     		cmp	r2, #0
 138 007e C5D1     		bne	.L10
 153:Src/draw.c    **** #if MIRROR_Y
 139              		.loc 1 153 14 discriminator 1 view .LVU32
 140 0080 C9F12C0A 		rsb	r10, r9, #44
 141 0084 5FFA8AFA 		uxtb	r10, r10
 142 0088 C1E7     		b	.L4
 143              	.LVL13:
 144              	.L5:
 192:Src/draw.c    **** #else
 145              		.loc 1 192 11 is_stmt 1 view .LVU33
 192:Src/draw.c    **** #else
 146              		.loc 1 192 42 is_stmt 0 view .LVU34
 147 008a 01EB4101 		add	r1, r1, r1, lsl #1
 148              	.LVL14:
 192:Src/draw.c    **** #else
 149              		.loc 1 192 11 view .LVU35
 150 008e 104B     		ldr	r3, .L16+8
 151 0090 1944     		add	r1, r1, r3
 152 0092 03A8     		add	r0, sp, #12
 153 0094 FFF7FEFF 		bl	setColorFB
 154              	.LVL15:
 155 0098 CBE7     		b	.L6
 156              	.LVL16:
 157              	.L3:
 192:Src/draw.c    **** #else
 158              		.loc 1 192 11 view .LVU36
 159              	.LBE4:
 134:Src/draw.c    ****     {
 160              		.loc 1 134 41 discriminator 2 view .LVU37
 161 009a 08F10108 		add	r8, r8, #1
 162              	.LVL17:
 134:Src/draw.c    ****     {
 163              		.loc 1 134 41 discriminator 2 view .LVU38
 164 009e 5FFA88F8 		uxtb	r8, r8
 165              	.LVL18:
 166              	.L9:
 134:Src/draw.c    ****     {
 167              		.loc 1 134 5 discriminator 1 view .LVU39
 168 00a2 B8F10B0F 		cmp	r8, #11
 169 00a6 01D8     		bhi	.L14
 170              	.LBB5:
 136:Src/draw.c    ****       {
 171              		.loc 1 136 20 view .LVU40
 172 00a8 0025     		movs	r5, #0
 173 00aa D5E7     		b	.L8
 174              	.L14:
 175              	.LBE5:
 176              	.LBE3:
 132:Src/draw.c    ****   {
 177              		.loc 1 132 35 discriminator 2 view .LVU41
ARM GAS  /var/folders/hv/f19l0kw128sbpybv1h43gz3c0000gn/T//ccojdbgc.s 			page 8


 178 00ac 09F10109 		add	r9, r9, #1
 179              	.LVL19:
 132:Src/draw.c    ****   {
 180              		.loc 1 132 35 discriminator 2 view .LVU42
 181 00b0 5FFA89F9 		uxtb	r9, r9
 182              	.LVL20:
 183              	.L2:
 132:Src/draw.c    ****   {
 184              		.loc 1 132 3 discriminator 1 view .LVU43
 185 00b4 B9F12C0F 		cmp	r9, #44
 186 00b8 02D8     		bhi	.L15
 187              	.LBB6:
 134:Src/draw.c    ****     {
 188              		.loc 1 134 18 view .LVU44
 189 00ba 4FF00008 		mov	r8, #0
 190 00be F0E7     		b	.L9
 191              	.L15:
 192              	.LBE6:
 193              	.LBE2:
 201:Src/draw.c    ****       }
 202:Src/draw.c    ****     }
 203:Src/draw.c    ****   }
 204:Src/draw.c    **** }
 194              		.loc 1 204 1 view .LVU45
 195 00c0 05B0     		add	sp, sp, #20
 196              	.LCFI2:
 197              		.cfi_def_cfa_offset 36
 198              		@ sp needed
 199 00c2 BDE8F08F 		pop	{r4, r5, r6, r7, r8, r9, r10, fp, pc}
 200              	.LVL21:
 201              	.L17:
 202              		.loc 1 204 1 view .LVU46
 203 00c6 00BF     		.align	2
 204              	.L16:
 205 00c8 00000000 		.word	textLayer
 206 00cc 00000000 		.word	textColor
 207 00d0 00000000 		.word	backLayer
 208              		.cfi_endproc
 209              	.LFE68:
 211              		.section	.text.clearBack,"ax",%progbits
 212              		.align	1
 213              		.global	clearBack
 214              		.syntax unified
 215              		.thumb
 216              		.thumb_func
 217              		.fpu softvfp
 219              	clearBack:
 220              	.LFB69:
 205:Src/draw.c    **** 
 206:Src/draw.c    **** void clearBack(void)
 207:Src/draw.c    **** {
 221              		.loc 1 207 1 is_stmt 1 view -0
 222              		.cfi_startproc
 223              		@ args = 0, pretend = 0, frame = 0
 224              		@ frame_needed = 0, uses_anonymous_args = 0
 225 0000 38B5     		push	{r3, r4, r5, lr}
 226              	.LCFI3:
ARM GAS  /var/folders/hv/f19l0kw128sbpybv1h43gz3c0000gn/T//ccojdbgc.s 			page 9


 227              		.cfi_def_cfa_offset 16
 228              		.cfi_offset 3, -16
 229              		.cfi_offset 4, -12
 230              		.cfi_offset 5, -8
 231              		.cfi_offset 14, -4
 208:Src/draw.c    ****   for (uint8_t y = 0; y < NCOLS; y++)
 232              		.loc 1 208 3 view .LVU48
 233              	.LBB7:
 234              		.loc 1 208 8 view .LVU49
 235              	.LVL22:
 236              		.loc 1 208 16 is_stmt 0 view .LVU50
 237 0002 0025     		movs	r5, #0
 238              		.loc 1 208 3 view .LVU51
 239 0004 11E0     		b	.L19
 240              	.LVL23:
 241              	.L20:
 242              	.LBB8:
 209:Src/draw.c    ****   {
 210:Src/draw.c    ****     for (uint8_t x = 0; x < NCOLS; x++)
 211:Src/draw.c    ****     {
 212:Src/draw.c    ****       setColor(backLayer[x + (y * NCOLS)], arrColor[12]);
 243              		.loc 1 212 7 is_stmt 1 discriminator 3 view .LVU52
 244              		.loc 1 212 33 is_stmt 0 discriminator 3 view .LVU53
 245 0006 05EB4500 		add	r0, r5, r5, lsl #1
 246 000a C0EB0010 		rsb	r0, r0, r0, lsl #4
 247              		.loc 1 212 28 discriminator 3 view .LVU54
 248 000e 2044     		add	r0, r0, r4
 249              		.loc 1 212 25 discriminator 3 view .LVU55
 250 0010 00EB4000 		add	r0, r0, r0, lsl #1
 251              		.loc 1 212 7 discriminator 3 view .LVU56
 252 0014 0749     		ldr	r1, .L25
 253 0016 084B     		ldr	r3, .L25+4
 254 0018 1844     		add	r0, r0, r3
 255 001a FFF7FEFF 		bl	setColor
 256              	.LVL24:
 210:Src/draw.c    ****     {
 257              		.loc 1 210 37 discriminator 3 view .LVU57
 258 001e 0134     		adds	r4, r4, #1
 259              	.LVL25:
 210:Src/draw.c    ****     {
 260              		.loc 1 210 37 discriminator 3 view .LVU58
 261 0020 E4B2     		uxtb	r4, r4
 262              	.LVL26:
 263              	.L21:
 210:Src/draw.c    ****     {
 264              		.loc 1 210 5 discriminator 1 view .LVU59
 265 0022 2C2C     		cmp	r4, #44
 266 0024 EFD9     		bls	.L20
 267              	.LBE8:
 208:Src/draw.c    ****   for (uint8_t y = 0; y < NCOLS; y++)
 268              		.loc 1 208 35 discriminator 2 view .LVU60
 269 0026 0135     		adds	r5, r5, #1
 270              	.LVL27:
 208:Src/draw.c    ****   for (uint8_t y = 0; y < NCOLS; y++)
 271              		.loc 1 208 35 discriminator 2 view .LVU61
 272 0028 EDB2     		uxtb	r5, r5
 273              	.LVL28:
ARM GAS  /var/folders/hv/f19l0kw128sbpybv1h43gz3c0000gn/T//ccojdbgc.s 			page 10


 274              	.L19:
 208:Src/draw.c    ****   for (uint8_t y = 0; y < NCOLS; y++)
 275              		.loc 1 208 3 discriminator 1 view .LVU62
 276 002a 2C2D     		cmp	r5, #44
 277 002c 01D8     		bhi	.L24
 278              	.LBB9:
 210:Src/draw.c    ****     {
 279              		.loc 1 210 18 view .LVU63
 280 002e 0024     		movs	r4, #0
 281 0030 F7E7     		b	.L21
 282              	.L24:
 283              	.LBE9:
 284              	.LBE7:
 213:Src/draw.c    ****     }
 214:Src/draw.c    ****   }
 215:Src/draw.c    **** }
 285              		.loc 1 215 1 view .LVU64
 286 0032 38BD     		pop	{r3, r4, r5, pc}
 287              	.LVL29:
 288              	.L26:
 289              		.loc 1 215 1 view .LVU65
 290              		.align	2
 291              	.L25:
 292 0034 24000000 		.word	.LANCHOR0+36
 293 0038 00000000 		.word	backLayer
 294              		.cfi_endproc
 295              	.LFE69:
 297              		.section	.text.clearText,"ax",%progbits
 298              		.align	1
 299              		.global	clearText
 300              		.syntax unified
 301              		.thumb
 302              		.thumb_func
 303              		.fpu softvfp
 305              	clearText:
 306              	.LFB70:
 216:Src/draw.c    **** 
 217:Src/draw.c    **** void clearText(void)
 218:Src/draw.c    **** {
 307              		.loc 1 218 1 is_stmt 1 view -0
 308              		.cfi_startproc
 309              		@ args = 0, pretend = 0, frame = 0
 310              		@ frame_needed = 0, uses_anonymous_args = 0
 311              		@ link register save eliminated.
 219:Src/draw.c    **** #if COLOR_1BIT
 220:Src/draw.c    ****   for (uint8_t i = 0; i < NLEDSBIT; i++)
 312              		.loc 1 220 3 view .LVU67
 313              	.LBB10:
 314              		.loc 1 220 8 view .LVU68
 315              	.LVL30:
 316              		.loc 1 220 16 is_stmt 0 view .LVU69
 317 0000 0023     		movs	r3, #0
 318              	.LVL31:
 319              	.L28:
 320              		.loc 1 220 3 discriminator 1 view .LVU70
 321 0002 FD2B     		cmp	r3, #253
 322 0004 05D8     		bhi	.L30
ARM GAS  /var/folders/hv/f19l0kw128sbpybv1h43gz3c0000gn/T//ccojdbgc.s 			page 11


 221:Src/draw.c    ****   {
 222:Src/draw.c    ****     textLayer[i] = 0;
 323              		.loc 1 222 5 is_stmt 1 discriminator 3 view .LVU71
 324              		.loc 1 222 18 is_stmt 0 discriminator 3 view .LVU72
 325 0006 034A     		ldr	r2, .L31
 326 0008 0021     		movs	r1, #0
 327 000a D154     		strb	r1, [r2, r3]
 220:Src/draw.c    ****   {
 328              		.loc 1 220 38 discriminator 3 view .LVU73
 329 000c 0133     		adds	r3, r3, #1
 330              	.LVL32:
 220:Src/draw.c    ****   {
 331              		.loc 1 220 38 discriminator 3 view .LVU74
 332 000e DBB2     		uxtb	r3, r3
 333              	.LVL33:
 220:Src/draw.c    ****   {
 334              		.loc 1 220 38 discriminator 3 view .LVU75
 335 0010 F7E7     		b	.L28
 336              	.L30:
 220:Src/draw.c    ****   {
 337              		.loc 1 220 38 discriminator 3 view .LVU76
 338              	.LBE10:
 223:Src/draw.c    ****   }
 224:Src/draw.c    **** #else
 225:Src/draw.c    ****   for (uint8_t y = 0; y < NCOLS; y++)
 226:Src/draw.c    ****   {
 227:Src/draw.c    ****     for (uint8_t x = 0; x < NCOLS; x++)
 228:Src/draw.c    ****     {
 229:Src/draw.c    ****       setColor(textLayer[x + (y * NCOLS)], arrColor[12]);
 230:Src/draw.c    ****     }
 231:Src/draw.c    ****   }
 232:Src/draw.c    **** #endif
 233:Src/draw.c    **** }
 339              		.loc 1 233 1 view .LVU77
 340 0012 7047     		bx	lr
 341              	.L32:
 342              		.align	2
 343              	.L31:
 344 0014 00000000 		.word	textLayer
 345              		.cfi_endproc
 346              	.LFE70:
 348              		.section	.text.clearFramebuffer,"ax",%progbits
 349              		.align	1
 350              		.global	clearFramebuffer
 351              		.syntax unified
 352              		.thumb
 353              		.thumb_func
 354              		.fpu softvfp
 356              	clearFramebuffer:
 357              	.LFB71:
 234:Src/draw.c    **** 
 235:Src/draw.c    **** void clearFramebuffer(void)
 236:Src/draw.c    **** {
 358              		.loc 1 236 1 is_stmt 1 view -0
 359              		.cfi_startproc
 360              		@ args = 0, pretend = 0, frame = 0
 361              		@ frame_needed = 0, uses_anonymous_args = 0
ARM GAS  /var/folders/hv/f19l0kw128sbpybv1h43gz3c0000gn/T//ccojdbgc.s 			page 12


 362 0000 70B5     		push	{r4, r5, r6, lr}
 363              	.LCFI4:
 364              		.cfi_def_cfa_offset 16
 365              		.cfi_offset 4, -16
 366              		.cfi_offset 5, -12
 367              		.cfi_offset 6, -8
 368              		.cfi_offset 14, -4
 369 0002 82B0     		sub	sp, sp, #8
 370              	.LCFI5:
 371              		.cfi_def_cfa_offset 24
 237:Src/draw.c    ****   for (uint8_t i = 0; i < NCHANNELS; i++)
 372              		.loc 1 237 3 view .LVU79
 373              	.LBB11:
 374              		.loc 1 237 8 view .LVU80
 375              	.LVL34:
 376              		.loc 1 237 16 is_stmt 0 view .LVU81
 377 0004 0026     		movs	r6, #0
 378              		.loc 1 237 3 view .LVU82
 379 0006 27E0     		b	.L34
 380              	.LVL35:
 381              	.L35:
 382              	.LBB12:
 238:Src/draw.c    ****   {
 239:Src/draw.c    ****     for (uint8_t j = 0; j < NLINESCH; j++)
 383              		.loc 1 239 40 discriminator 2 view .LVU83
 384 0008 0135     		adds	r5, r5, #1
 385              	.LVL36:
 386              		.loc 1 239 40 discriminator 2 view .LVU84
 387 000a EDB2     		uxtb	r5, r5
 388              	.LVL37:
 389              	.L38:
 390              		.loc 1 239 5 discriminator 1 view .LVU85
 391 000c 032D     		cmp	r5, #3
 392 000e 21D8     		bhi	.L42
 393              	.LBB13:
 240:Src/draw.c    ****     {
 241:Src/draw.c    ****       for (uint16_t x = 0; x < NCOLS; x++)
 394              		.loc 1 241 21 view .LVU86
 395 0010 0024     		movs	r4, #0
 396              	.L37:
 397              	.LVL38:
 398              		.loc 1 241 7 discriminator 1 view .LVU87
 399 0012 2C2C     		cmp	r4, #44
 400 0014 F8D8     		bhi	.L35
 242:Src/draw.c    ****       {
 243:Src/draw.c    ****         if ((x + (j * NCOLS) + (i * NLEDSCH)) > NLEDSL)
 401              		.loc 1 243 9 is_stmt 1 view .LVU88
 402              		.loc 1 243 21 is_stmt 0 view .LVU89
 403 0016 05EB4503 		add	r3, r5, r5, lsl #1
 404 001a C3EB0313 		rsb	r3, r3, r3, lsl #4
 405              		.loc 1 243 16 view .LVU90
 406 001e 2344     		add	r3, r3, r4
 407              		.loc 1 243 30 view .LVU91
 408 0020 B422     		movs	r2, #180
 409 0022 02FB0633 		mla	r3, r2, r6, r3
 410              		.loc 1 243 12 view .LVU92
 411 0026 B3F5FD6F 		cmp	r3, #2024
ARM GAS  /var/folders/hv/f19l0kw128sbpybv1h43gz3c0000gn/T//ccojdbgc.s 			page 13


 412 002a EDDC     		bgt	.L35
 244:Src/draw.c    ****           break;
 245:Src/draw.c    ****         WS2812_framedata_setPixel(i, x + (j * NCOLS), arrColor[12][0], arrColor[12][1], arrColor[12
 413              		.loc 1 245 9 is_stmt 1 discriminator 2 view .LVU93
 414 002c 0D4A     		ldr	r2, .L44
 415 002e 05EB4501 		add	r1, r5, r5, lsl #1
 416 0032 C1EB0111 		rsb	r1, r1, r1, lsl #4
 417 0036 2144     		add	r1, r1, r4
 418 0038 92F82630 		ldrb	r3, [r2, #38]	@ zero_extendqisi2
 419 003c 0093     		str	r3, [sp]
 420 003e 92F82530 		ldrb	r3, [r2, #37]	@ zero_extendqisi2
 421 0042 92F82420 		ldrb	r2, [r2, #36]	@ zero_extendqisi2
 422 0046 89B2     		uxth	r1, r1
 423 0048 3046     		mov	r0, r6
 424 004a FFF7FEFF 		bl	WS2812_framedata_setPixel
 425              	.LVL39:
 241:Src/draw.c    ****       {
 426              		.loc 1 241 40 is_stmt 0 discriminator 2 view .LVU94
 427 004e 0134     		adds	r4, r4, #1
 428              	.LVL40:
 241:Src/draw.c    ****       {
 429              		.loc 1 241 40 discriminator 2 view .LVU95
 430 0050 A4B2     		uxth	r4, r4
 431              	.LVL41:
 241:Src/draw.c    ****       {
 432              		.loc 1 241 40 discriminator 2 view .LVU96
 433 0052 DEE7     		b	.L37
 434              	.LVL42:
 435              	.L42:
 241:Src/draw.c    ****       {
 436              		.loc 1 241 40 discriminator 2 view .LVU97
 437              	.LBE13:
 438              	.LBE12:
 237:Src/draw.c    ****   {
 439              		.loc 1 237 39 discriminator 2 view .LVU98
 440 0054 0136     		adds	r6, r6, #1
 441              	.LVL43:
 237:Src/draw.c    ****   {
 442              		.loc 1 237 39 discriminator 2 view .LVU99
 443 0056 F6B2     		uxtb	r6, r6
 444              	.LVL44:
 445              	.L34:
 237:Src/draw.c    ****   {
 446              		.loc 1 237 3 discriminator 1 view .LVU100
 447 0058 0B2E     		cmp	r6, #11
 448 005a 01D8     		bhi	.L43
 449              	.LBB14:
 239:Src/draw.c    ****     {
 450              		.loc 1 239 18 view .LVU101
 451 005c 0025     		movs	r5, #0
 452 005e D5E7     		b	.L38
 453              	.L43:
 454              	.LBE14:
 455              	.LBE11:
 246:Src/draw.c    ****       }
 247:Src/draw.c    ****     }
 248:Src/draw.c    ****   }
ARM GAS  /var/folders/hv/f19l0kw128sbpybv1h43gz3c0000gn/T//ccojdbgc.s 			page 14


 249:Src/draw.c    **** }
 456              		.loc 1 249 1 view .LVU102
 457 0060 02B0     		add	sp, sp, #8
 458              	.LCFI6:
 459              		.cfi_def_cfa_offset 16
 460              		@ sp needed
 461 0062 70BD     		pop	{r4, r5, r6, pc}
 462              	.LVL45:
 463              	.L45:
 464              		.loc 1 249 1 view .LVU103
 465              		.align	2
 466              	.L44:
 467 0064 00000000 		.word	.LANCHOR0
 468              		.cfi_endproc
 469              	.LFE71:
 471              		.section	.text.move,"ax",%progbits
 472              		.align	1
 473              		.global	move
 474              		.syntax unified
 475              		.thumb
 476              		.thumb_func
 477              		.fpu softvfp
 479              	move:
 480              	.LVL46:
 481              	.LFB72:
 250:Src/draw.c    **** 
 251:Src/draw.c    **** void move(int8_t newX, int8_t newY)
 252:Src/draw.c    **** {
 482              		.loc 1 252 1 is_stmt 1 view -0
 483              		.cfi_startproc
 484              		@ args = 0, pretend = 0, frame = 6080
 485              		@ frame_needed = 0, uses_anonymous_args = 0
 486              		.loc 1 252 1 is_stmt 0 view .LVU105
 487 0000 F0B5     		push	{r4, r5, r6, r7, lr}
 488              	.LCFI7:
 489              		.cfi_def_cfa_offset 20
 490              		.cfi_offset 4, -20
 491              		.cfi_offset 5, -16
 492              		.cfi_offset 6, -12
 493              		.cfi_offset 7, -8
 494              		.cfi_offset 14, -4
 495 0002 ADF5BE5D 		sub	sp, sp, #6080
 496              	.LCFI8:
 497              		.cfi_def_cfa_offset 6100
 498 0006 81B0     		sub	sp, sp, #4
 499              	.LCFI9:
 500              		.cfi_def_cfa_offset 6104
 253:Src/draw.c    ****   uint8_t tempVector[NLEDS][3];
 501              		.loc 1 253 3 is_stmt 1 view .LVU106
 254:Src/draw.c    ****   uint8_t tempX, tempY;
 502              		.loc 1 254 3 view .LVU107
 255:Src/draw.c    ****   for (int y = 0; y < NCOLS; y++)
 503              		.loc 1 255 3 view .LVU108
 504              	.LBB15:
 505              		.loc 1 255 8 view .LVU109
 506              	.LVL47:
 507              		.loc 1 255 12 is_stmt 0 view .LVU110
ARM GAS  /var/folders/hv/f19l0kw128sbpybv1h43gz3c0000gn/T//ccojdbgc.s 			page 15


 508 0008 0025     		movs	r5, #0
 509              		.loc 1 255 3 view .LVU111
 510 000a 15E0     		b	.L47
 511              	.LVL48:
 512              	.L67:
 513              	.LBB16:
 256:Src/draw.c    ****   {
 257:Src/draw.c    ****     for (int x = 0; x < NCOLS; x++)
 514              		.loc 1 257 33 discriminator 2 view .LVU112
 515 000c 0136     		adds	r6, r6, #1
 516              	.LVL49:
 517              	.L50:
 518              		.loc 1 257 5 discriminator 1 view .LVU113
 519 000e 2C2E     		cmp	r6, #44
 520 0010 11DC     		bgt	.L66
 521              	.LBB17:
 258:Src/draw.c    ****     {
 259:Src/draw.c    ****       for (int z = 0; z < 3; z++)
 522              		.loc 1 259 16 view .LVU114
 523 0012 0022     		movs	r2, #0
 524              	.L49:
 525              	.LVL50:
 526              		.loc 1 259 7 discriminator 1 view .LVU115
 527 0014 022A     		cmp	r2, #2
 528 0016 F9DC     		bgt	.L67
 260:Src/draw.c    ****       {
 261:Src/draw.c    ****         tempVector[x + (y * NCOLS)][z] = backLayer[x + (y * NCOLS)][z];
 529              		.loc 1 261 9 is_stmt 1 discriminator 3 view .LVU116
 530              		.loc 1 261 59 is_stmt 0 discriminator 3 view .LVU117
 531 0018 05EB4503 		add	r3, r5, r5, lsl #1
 532 001c C3EB0313 		rsb	r3, r3, r3, lsl #4
 533              		.loc 1 261 54 discriminator 3 view .LVU118
 534 0020 3344     		add	r3, r3, r6
 535              		.loc 1 261 68 discriminator 3 view .LVU119
 536 0022 03EB4303 		add	r3, r3, r3, lsl #1
 537 0026 314C     		ldr	r4, .L73
 538 0028 1C44     		add	r4, r4, r3
 539 002a A45C     		ldrb	r4, [r4, r2]	@ zero_extendqisi2
 540              		.loc 1 261 40 discriminator 3 view .LVU120
 541 002c 01AF     		add	r7, sp, #4
 542 002e 3B44     		add	r3, r3, r7
 543 0030 9C54     		strb	r4, [r3, r2]
 259:Src/draw.c    ****       {
 544              		.loc 1 259 31 discriminator 3 view .LVU121
 545 0032 0132     		adds	r2, r2, #1
 546              	.LVL51:
 259:Src/draw.c    ****       {
 547              		.loc 1 259 31 discriminator 3 view .LVU122
 548 0034 EEE7     		b	.L49
 549              	.LVL52:
 550              	.L66:
 259:Src/draw.c    ****       {
 551              		.loc 1 259 31 discriminator 3 view .LVU123
 552              	.LBE17:
 553              	.LBE16:
 255:Src/draw.c    ****   {
 554              		.loc 1 255 31 discriminator 2 view .LVU124
ARM GAS  /var/folders/hv/f19l0kw128sbpybv1h43gz3c0000gn/T//ccojdbgc.s 			page 16


 555 0036 0135     		adds	r5, r5, #1
 556              	.LVL53:
 557              	.L47:
 255:Src/draw.c    ****   {
 558              		.loc 1 255 3 discriminator 1 view .LVU125
 559 0038 2C2D     		cmp	r5, #44
 560 003a 01DC     		bgt	.L68
 561              	.LBB18:
 257:Src/draw.c    ****     {
 562              		.loc 1 257 14 view .LVU126
 563 003c 0026     		movs	r6, #0
 564 003e E6E7     		b	.L50
 565              	.L68:
 566              	.LBE18:
 567              	.LBE15:
 568              	.LBB19:
 262:Src/draw.c    ****       }
 263:Src/draw.c    ****     }
 264:Src/draw.c    ****   }
 265:Src/draw.c    **** 
 266:Src/draw.c    ****   for (int y = 0; y < NCOLS; y++)
 569              		.loc 1 266 12 view .LVU127
 570 0040 0027     		movs	r7, #0
 571 0042 40E0     		b	.L51
 572              	.LVL54:
 573              	.L72:
 267:Src/draw.c    ****   {
 268:Src/draw.c    ****     if ((y - newY) < 0)
 269:Src/draw.c    ****     {
 270:Src/draw.c    ****       tempY = NCOLS - (-y + newY);
 574              		.loc 1 270 7 is_stmt 1 view .LVU128
 575              		.loc 1 270 21 is_stmt 0 view .LVU129
 576 0044 5FFA83FC 		uxtb	ip, r3
 577              		.loc 1 270 13 view .LVU130
 578 0048 0CF12D0C 		add	ip, ip, #45
 579 004c 5FFA8CFC 		uxtb	ip, ip
 580              	.LVL55:
 581              	.L53:
 271:Src/draw.c    ****     }
 272:Src/draw.c    ****     else if ((y - newY) >= NCOLS)
 273:Src/draw.c    ****     {
 274:Src/draw.c    ****       tempY = (y - newY) - NCOLS;
 275:Src/draw.c    ****     }
 276:Src/draw.c    ****     else
 277:Src/draw.c    ****       tempY = y - newY;
 278:Src/draw.c    **** 
 279:Src/draw.c    ****     for (int x = 0; x < NCOLS; x++)
 582              		.loc 1 279 5 is_stmt 1 view .LVU131
 583              	.LBB20:
 584              		.loc 1 279 10 view .LVU132
 585              		.loc 1 279 14 is_stmt 0 view .LVU133
 586 0050 0026     		movs	r6, #0
 587              		.loc 1 279 5 view .LVU134
 588 0052 2CE0     		b	.L55
 589              	.LVL56:
 590              	.L54:
 591              		.loc 1 279 5 view .LVU135
ARM GAS  /var/folders/hv/f19l0kw128sbpybv1h43gz3c0000gn/T//ccojdbgc.s 			page 17


 592              	.LBE20:
 277:Src/draw.c    **** 
 593              		.loc 1 277 7 is_stmt 1 view .LVU136
 277:Src/draw.c    **** 
 594              		.loc 1 277 17 is_stmt 0 view .LVU137
 595 0054 5FFA87FC 		uxtb	ip, r7
 596 0058 CBB2     		uxtb	r3, r1
 277:Src/draw.c    **** 
 597              		.loc 1 277 13 view .LVU138
 598 005a ACEB030C 		sub	ip, ip, r3
 599 005e 5FFA8CFC 		uxtb	ip, ip
 600              	.LVL57:
 277:Src/draw.c    **** 
 601              		.loc 1 277 13 view .LVU139
 602 0062 F5E7     		b	.L53
 603              	.LVL58:
 604              	.L70:
 605              	.LBB23:
 280:Src/draw.c    ****     {
 281:Src/draw.c    ****       if ((x - newX) < 0)
 282:Src/draw.c    ****       {
 283:Src/draw.c    ****         tempX = NCOLS - (-x + newX);
 606              		.loc 1 283 9 is_stmt 1 view .LVU140
 607              		.loc 1 283 23 is_stmt 0 view .LVU141
 608 0064 DDB2     		uxtb	r5, r3
 609              		.loc 1 283 15 view .LVU142
 610 0066 2D35     		adds	r5, r5, #45
 611 0068 EDB2     		uxtb	r5, r5
 612              	.LVL59:
 613              	.L57:
 284:Src/draw.c    ****       }
 285:Src/draw.c    ****       else if ((x - newX) >= NCOLS)
 286:Src/draw.c    ****       {
 287:Src/draw.c    ****         tempX = (x - newX) - NCOLS;
 288:Src/draw.c    ****       }
 289:Src/draw.c    ****       else
 290:Src/draw.c    ****         tempX = x - newX;
 291:Src/draw.c    **** 
 292:Src/draw.c    ****       for (int z = 0; z < 3; z++)
 614              		.loc 1 292 7 is_stmt 1 view .LVU143
 615              	.LBB21:
 616              		.loc 1 292 12 view .LVU144
 617              		.loc 1 292 16 is_stmt 0 view .LVU145
 618 006a 0024     		movs	r4, #0
 619              		.loc 1 292 7 view .LVU146
 620 006c 1CE0     		b	.L59
 621              	.LVL60:
 622              	.L58:
 623              		.loc 1 292 7 view .LVU147
 624              	.LBE21:
 290:Src/draw.c    **** 
 625              		.loc 1 290 9 is_stmt 1 view .LVU148
 290:Src/draw.c    **** 
 626              		.loc 1 290 19 is_stmt 0 view .LVU149
 627 006e F5B2     		uxtb	r5, r6
 628 0070 C3B2     		uxtb	r3, r0
 290:Src/draw.c    **** 
ARM GAS  /var/folders/hv/f19l0kw128sbpybv1h43gz3c0000gn/T//ccojdbgc.s 			page 18


 629              		.loc 1 290 15 view .LVU150
 630 0072 ED1A     		subs	r5, r5, r3
 631 0074 EDB2     		uxtb	r5, r5
 632              	.LVL61:
 290:Src/draw.c    **** 
 633              		.loc 1 290 15 view .LVU151
 634 0076 F8E7     		b	.L57
 635              	.LVL62:
 636              	.L60:
 637              	.LBB22:
 293:Src/draw.c    ****       {
 294:Src/draw.c    ****         backLayer[x + (y * NCOLS)][z] = tempVector[tempX + (tempY * NCOLS)][z];
 638              		.loc 1 294 9 is_stmt 1 discriminator 3 view .LVU152
 639              		.loc 1 294 67 is_stmt 0 discriminator 3 view .LVU153
 640 0078 0CEB4C02 		add	r2, ip, ip, lsl #1
 641 007c C2EB0212 		rsb	r2, r2, r2, lsl #4
 642              		.loc 1 294 58 discriminator 3 view .LVU154
 643 0080 2A44     		add	r2, r2, r5
 644              		.loc 1 294 26 discriminator 3 view .LVU155
 645 0082 07EB4703 		add	r3, r7, r7, lsl #1
 646 0086 C3EB0313 		rsb	r3, r3, r3, lsl #4
 647              		.loc 1 294 21 discriminator 3 view .LVU156
 648 008a 3344     		add	r3, r3, r6
 649              		.loc 1 294 76 discriminator 3 view .LVU157
 650 008c 02EB4202 		add	r2, r2, r2, lsl #1
 651 0090 0DF1040E 		add	lr, sp, #4
 652 0094 7244     		add	r2, r2, lr
 653 0096 12F804E0 		ldrb	lr, [r2, r4]	@ zero_extendqisi2
 654              		.loc 1 294 39 discriminator 3 view .LVU158
 655 009a 03EB4303 		add	r3, r3, r3, lsl #1
 656 009e 134A     		ldr	r2, .L73
 657 00a0 1344     		add	r3, r3, r2
 658 00a2 03F804E0 		strb	lr, [r3, r4]
 292:Src/draw.c    ****       {
 659              		.loc 1 292 31 discriminator 3 view .LVU159
 660 00a6 0134     		adds	r4, r4, #1
 661              	.LVL63:
 662              	.L59:
 292:Src/draw.c    ****       {
 663              		.loc 1 292 7 discriminator 1 view .LVU160
 664 00a8 022C     		cmp	r4, #2
 665 00aa E5DD     		ble	.L60
 666              	.LBE22:
 279:Src/draw.c    ****     {
 667              		.loc 1 279 33 discriminator 2 view .LVU161
 668 00ac 0136     		adds	r6, r6, #1
 669              	.LVL64:
 670              	.L55:
 279:Src/draw.c    ****     {
 671              		.loc 1 279 5 discriminator 1 view .LVU162
 672 00ae 2C2E     		cmp	r6, #44
 673 00b0 08DC     		bgt	.L69
 281:Src/draw.c    ****       {
 674              		.loc 1 281 7 is_stmt 1 view .LVU163
 281:Src/draw.c    ****       {
 675              		.loc 1 281 10 is_stmt 0 view .LVU164
 676 00b2 331A     		subs	r3, r6, r0
ARM GAS  /var/folders/hv/f19l0kw128sbpybv1h43gz3c0000gn/T//ccojdbgc.s 			page 19


 677 00b4 D6D4     		bmi	.L70
 285:Src/draw.c    ****       {
 678              		.loc 1 285 12 is_stmt 1 view .LVU165
 285:Src/draw.c    ****       {
 679              		.loc 1 285 15 is_stmt 0 view .LVU166
 680 00b6 2C2B     		cmp	r3, #44
 681 00b8 D9DD     		ble	.L58
 287:Src/draw.c    ****       }
 682              		.loc 1 287 9 is_stmt 1 view .LVU167
 287:Src/draw.c    ****       }
 683              		.loc 1 287 20 is_stmt 0 view .LVU168
 684 00ba 351A     		subs	r5, r6, r0
 685 00bc EDB2     		uxtb	r5, r5
 287:Src/draw.c    ****       }
 686              		.loc 1 287 15 view .LVU169
 687 00be 2D3D     		subs	r5, r5, #45
 688 00c0 EDB2     		uxtb	r5, r5
 689              	.LVL65:
 287:Src/draw.c    ****       }
 690              		.loc 1 287 15 view .LVU170
 691 00c2 D2E7     		b	.L57
 692              	.LVL66:
 693              	.L69:
 287:Src/draw.c    ****       }
 694              		.loc 1 287 15 view .LVU171
 695              	.LBE23:
 266:Src/draw.c    ****   {
 696              		.loc 1 266 31 discriminator 2 view .LVU172
 697 00c4 0137     		adds	r7, r7, #1
 698              	.LVL67:
 699              	.L51:
 266:Src/draw.c    ****   {
 700              		.loc 1 266 3 discriminator 1 view .LVU173
 701 00c6 2C2F     		cmp	r7, #44
 702 00c8 0CDC     		bgt	.L71
 268:Src/draw.c    ****     {
 703              		.loc 1 268 5 is_stmt 1 view .LVU174
 268:Src/draw.c    ****     {
 704              		.loc 1 268 8 is_stmt 0 view .LVU175
 705 00ca 7B1A     		subs	r3, r7, r1
 706 00cc BAD4     		bmi	.L72
 272:Src/draw.c    ****     {
 707              		.loc 1 272 10 is_stmt 1 view .LVU176
 272:Src/draw.c    ****     {
 708              		.loc 1 272 13 is_stmt 0 view .LVU177
 709 00ce 2C2B     		cmp	r3, #44
 710 00d0 C0DD     		ble	.L54
 274:Src/draw.c    ****     }
 711              		.loc 1 274 7 is_stmt 1 view .LVU178
 274:Src/draw.c    ****     }
 712              		.loc 1 274 18 is_stmt 0 view .LVU179
 713 00d2 A7EB010C 		sub	ip, r7, r1
 714 00d6 5FFA8CFC 		uxtb	ip, ip
 274:Src/draw.c    ****     }
 715              		.loc 1 274 13 view .LVU180
 716 00da ACF12D0C 		sub	ip, ip, #45
 717 00de 5FFA8CFC 		uxtb	ip, ip
ARM GAS  /var/folders/hv/f19l0kw128sbpybv1h43gz3c0000gn/T//ccojdbgc.s 			page 20


 718              	.LVL68:
 274:Src/draw.c    ****     }
 719              		.loc 1 274 13 view .LVU181
 720 00e2 B5E7     		b	.L53
 721              	.LVL69:
 722              	.L71:
 274:Src/draw.c    ****     }
 723              		.loc 1 274 13 view .LVU182
 724              	.LBE19:
 295:Src/draw.c    ****       }
 296:Src/draw.c    ****     }
 297:Src/draw.c    ****   }
 298:Src/draw.c    **** }
 725              		.loc 1 298 1 view .LVU183
 726 00e4 0DF5BE5D 		add	sp, sp, #6080
 727 00e8 01B0     		add	sp, sp, #4
 728              	.LCFI10:
 729              		.cfi_def_cfa_offset 20
 730              		@ sp needed
 731 00ea F0BD     		pop	{r4, r5, r6, r7, pc}
 732              	.LVL70:
 733              	.L74:
 734              		.loc 1 298 1 view .LVU184
 735              		.align	2
 736              	.L73:
 737 00ec 00000000 		.word	backLayer
 738              		.cfi_endproc
 739              	.LFE72:
 741              		.global	__aeabi_i2f
 742              		.global	__aeabi_fdiv
 743              		.global	__aeabi_fsub
 744              		.global	__aeabi_fmul
 745              		.global	__aeabi_fcmple
 746              		.global	__aeabi_fcmpge
 747              		.section	.text.drawCircleNote,"ax",%progbits
 748              		.align	1
 749              		.global	drawCircleNote
 750              		.syntax unified
 751              		.thumb
 752              		.thumb_func
 753              		.fpu softvfp
 755              	drawCircleNote:
 756              	.LVL71:
 757              	.LFB73:
 299:Src/draw.c    **** 
 300:Src/draw.c    **** /* void drawCircle(uint8_t *color_steps)
 301:Src/draw.c    **** {
 302:Src/draw.c    ****   float z = ((float)NCOLS / 2);
 303:Src/draw.c    ****   uint16_t coords = 0;
 304:Src/draw.c    ****   uint8_t boarder;
 305:Src/draw.c    ****   int16_t temp;
 306:Src/draw.c    ****   for (int y = -(NCOLS / 2); y <= (NCOLS / 2); y++)
 307:Src/draw.c    ****   {
 308:Src/draw.c    ****     for (int x = -(NCOLS / 2); x <= (NCOLS / 2); x++)
 309:Src/draw.c    ****     {
 310:Src/draw.c    ****       coords = (x + (NCOLS / 2)) + ((y + (NCOLS / 2)) * NCOLS);
 311:Src/draw.c    ****       for (int i = 0; i < MAX_DIV; i++)
ARM GAS  /var/folders/hv/f19l0kw128sbpybv1h43gz3c0000gn/T//ccojdbgc.s 			page 21


 312:Src/draw.c    ****       {
 313:Src/draw.c    ****         boarder = 1;
 314:Src/draw.c    ****         float perc = 1 - ((float)i / MAX_DIV);
 315:Src/draw.c    ****         // printf("%0.1f\n", perc);
 316:Src/draw.c    ****         if ((x * x) + (y * y) <= (z * z) * (perc))
 317:Src/draw.c    ****         {
 318:Src/draw.c    ****           for (int z = 0; z < 3; z++)
 319:Src/draw.c    ****           {
 320:Src/draw.c    ****             temp = currColor[z] + i * color_steps[z];
 321:Src/draw.c    ****             if (temp < 0)
 322:Src/draw.c    ****               temp = 0;
 323:Src/draw.c    ****             if (temp > 255)
 324:Src/draw.c    ****               temp = 255;
 325:Src/draw.c    ****             backLayer[coords][z] = temp;
 326:Src/draw.c    ****           }
 327:Src/draw.c    ****           boarder = 0;
 328:Src/draw.c    ****         }
 329:Src/draw.c    ****       }
 330:Src/draw.c    ****       if (boarder)
 331:Src/draw.c    ****       {
 332:Src/draw.c    ****         if ((x * x) + (y * y) >= (z * z))
 333:Src/draw.c    ****         {
 334:Src/draw.c    ****           for (int z = 0; z < 3; z++)
 335:Src/draw.c    ****           {
 336:Src/draw.c    ****             temp = currColor[z] - color_steps[z];
 337:Src/draw.c    ****             if (temp < 0)
 338:Src/draw.c    ****               temp = 0;
 339:Src/draw.c    ****             if (temp > 255)
 340:Src/draw.c    ****               temp = 255;
 341:Src/draw.c    ****             backLayer[coords][z] = temp;
 342:Src/draw.c    ****           }
 343:Src/draw.c    ****         }
 344:Src/draw.c    ****       }
 345:Src/draw.c    ****     }
 346:Src/draw.c    ****   }
 347:Src/draw.c    **** } */
 348:Src/draw.c    **** 
 349:Src/draw.c    **** void drawCircleNote(uint8_t orientation)
 350:Src/draw.c    **** {
 758              		.loc 1 350 1 is_stmt 1 view -0
 759              		.cfi_startproc
 760              		@ args = 0, pretend = 0, frame = 0
 761              		@ frame_needed = 0, uses_anonymous_args = 0
 762              		.loc 1 350 1 is_stmt 0 view .LVU186
 763 0000 2DE9F84F 		push	{r3, r4, r5, r6, r7, r8, r9, r10, fp, lr}
 764              	.LCFI11:
 765              		.cfi_def_cfa_offset 40
 766              		.cfi_offset 3, -40
 767              		.cfi_offset 4, -36
 768              		.cfi_offset 5, -32
 769              		.cfi_offset 6, -28
 770              		.cfi_offset 7, -24
 771              		.cfi_offset 8, -20
 772              		.cfi_offset 9, -16
 773              		.cfi_offset 10, -12
 774              		.cfi_offset 11, -8
 775              		.cfi_offset 14, -4
ARM GAS  /var/folders/hv/f19l0kw128sbpybv1h43gz3c0000gn/T//ccojdbgc.s 			page 22


 776 0004 0746     		mov	r7, r0
 777 0006 0024     		movs	r4, #0
 351:Src/draw.c    ****   float z = ((float)NCOLS / 2);
 778              		.loc 1 351 3 is_stmt 1 view .LVU187
 779              	.LVL72:
 352:Src/draw.c    ****   uint16_t coords = 0;
 780              		.loc 1 352 3 view .LVU188
 353:Src/draw.c    ****   uint8_t boarder;
 781              		.loc 1 353 3 view .LVU189
 354:Src/draw.c    ****   uint8_t invI;
 782              		.loc 1 354 3 view .LVU190
 355:Src/draw.c    ****   for (int y = -(NCOLS / 2); y <= (NCOLS / 2); y++)
 783              		.loc 1 355 3 view .LVU191
 784              	.LBB24:
 785              		.loc 1 355 8 view .LVU192
 786              		.loc 1 355 12 is_stmt 0 view .LVU193
 787 0008 6FF01506 		mvn	r6, #21
 788              		.loc 1 355 3 view .LVU194
 789 000c 68E0     		b	.L76
 790              	.LVL73:
 791              	.L78:
 792              	.LBB25:
 793              	.LBB26:
 794              	.LBB27:
 356:Src/draw.c    ****   {
 357:Src/draw.c    ****     for (int x = -(NCOLS / 2); x <= (NCOLS / 2); x++)
 358:Src/draw.c    ****     {
 359:Src/draw.c    ****       coords = (x + (NCOLS / 2)) + ((y + (NCOLS / 2)) * NCOLS);
 360:Src/draw.c    ****       for (int i = 0; i < MAX_DIV; i++)
 361:Src/draw.c    ****       {
 362:Src/draw.c    ****         invI = orientation ? MAX_DIV - 1 - i : i + 1;
 795              		.loc 1 362 50 discriminator 2 view .LVU195
 796 000e 5FFA89F4 		uxtb	r4, r9
 797              	.LVL74:
 798              		.loc 1 362 14 discriminator 2 view .LVU196
 799 0012 0134     		adds	r4, r4, #1
 800 0014 E4B2     		uxtb	r4, r4
 801              	.L79:
 802              	.LVL75:
 363:Src/draw.c    ****         boarder = 1;
 803              		.loc 1 363 9 is_stmt 1 discriminator 4 view .LVU197
 364:Src/draw.c    ****         float perc = 1 - ((float)i / MAX_DIV);
 804              		.loc 1 364 9 discriminator 4 view .LVU198
 805              		.loc 1 364 27 is_stmt 0 discriminator 4 view .LVU199
 806 0016 4846     		mov	r0, r9
 807 0018 FFF7FEFF 		bl	__aeabi_i2f
 808              	.LVL76:
 809              		.loc 1 364 36 discriminator 4 view .LVU200
 810 001c 3449     		ldr	r1, .L99
 811 001e FFF7FEFF 		bl	__aeabi_fdiv
 812              	.LVL77:
 813              		.loc 1 364 15 discriminator 4 view .LVU201
 814 0022 0146     		mov	r1, r0
 815 0024 4FF07E50 		mov	r0, #1065353216
 816 0028 FFF7FEFF 		bl	__aeabi_fsub
 817              	.LVL78:
 818 002c 8346     		mov	fp, r0
ARM GAS  /var/folders/hv/f19l0kw128sbpybv1h43gz3c0000gn/T//ccojdbgc.s 			page 23


 819              	.LVL79:
 365:Src/draw.c    ****         // printf("%0.1f\n", perc);
 366:Src/draw.c    ****         if ((x * x) + (y * y) <= (z * z) * (perc))
 820              		.loc 1 366 9 is_stmt 1 discriminator 4 view .LVU202
 821              		.loc 1 366 26 is_stmt 0 discriminator 4 view .LVU203
 822 002e 06FB06F0 		mul	r0, r6, r6
 823              	.LVL80:
 824              		.loc 1 366 31 discriminator 4 view .LVU204
 825 0032 05FB0500 		mla	r0, r5, r5, r0
 826 0036 FFF7FEFF 		bl	__aeabi_i2f
 827              	.LVL81:
 828 003a 8246     		mov	r10, r0
 829              		.loc 1 366 42 discriminator 4 view .LVU205
 830 003c 2D49     		ldr	r1, .L99+4
 831 003e 5846     		mov	r0, fp
 832 0040 FFF7FEFF 		bl	__aeabi_fmul
 833              	.LVL82:
 834              		.loc 1 366 12 discriminator 4 view .LVU206
 835 0044 0146     		mov	r1, r0
 836 0046 5046     		mov	r0, r10
 837 0048 FFF7FEFF 		bl	__aeabi_fcmple
 838              	.LVL83:
 839 004c 68B9     		cbnz	r0, .L95
 363:Src/draw.c    ****         float perc = 1 - ((float)i / MAX_DIV);
 840              		.loc 1 363 17 view .LVU207
 841 004e 0124     		movs	r4, #1
 842              	.LVL84:
 843              	.L80:
 363:Src/draw.c    ****         float perc = 1 - ((float)i / MAX_DIV);
 844              		.loc 1 363 17 view .LVU208
 845              	.LBE27:
 360:Src/draw.c    ****       {
 846              		.loc 1 360 37 discriminator 2 view .LVU209
 847 0050 09F10109 		add	r9, r9, #1
 848              	.LVL85:
 849              	.L77:
 360:Src/draw.c    ****       {
 850              		.loc 1 360 7 discriminator 1 view .LVU210
 851 0054 B9F1020F 		cmp	r9, #2
 852 0058 15DC     		bgt	.L96
 853              	.LBB28:
 362:Src/draw.c    ****         boarder = 1;
 854              		.loc 1 362 9 is_stmt 1 view .LVU211
 362:Src/draw.c    ****         boarder = 1;
 855              		.loc 1 362 14 is_stmt 0 view .LVU212
 856 005a 002F     		cmp	r7, #0
 857 005c D7D0     		beq	.L78
 362:Src/draw.c    ****         boarder = 1;
 858              		.loc 1 362 42 discriminator 1 view .LVU213
 859 005e 5FFA89F4 		uxtb	r4, r9
 860              	.LVL86:
 362:Src/draw.c    ****         boarder = 1;
 861              		.loc 1 362 14 discriminator 1 view .LVU214
 862 0062 C4F10204 		rsb	r4, r4, #2
 863 0066 E4B2     		uxtb	r4, r4
 864 0068 D5E7     		b	.L79
 865              	.LVL87:
ARM GAS  /var/folders/hv/f19l0kw128sbpybv1h43gz3c0000gn/T//ccojdbgc.s 			page 24


 866              	.L95:
 367:Src/draw.c    ****         {
 368:Src/draw.c    ****           setColor(backLayer[coords], noteBuffer[invI].color);
 867              		.loc 1 368 11 is_stmt 1 view .LVU215
 868              		.loc 1 368 29 is_stmt 0 view .LVU216
 869 006a 08EB4800 		add	r0, r8, r8, lsl #1
 870              		.loc 1 368 55 view .LVU217
 871 006e 04EB4404 		add	r4, r4, r4, lsl #1
 872              	.LVL88:
 873              		.loc 1 368 55 view .LVU218
 874 0072 6100     		lsls	r1, r4, #1
 875 0074 204B     		ldr	r3, .L99+8
 876 0076 1944     		add	r1, r1, r3
 877              		.loc 1 368 11 view .LVU219
 878 0078 0331     		adds	r1, r1, #3
 879 007a 204B     		ldr	r3, .L99+12
 880 007c 1844     		add	r0, r0, r3
 881 007e FFF7FEFF 		bl	setColor
 882              	.LVL89:
 369:Src/draw.c    ****           boarder = 0;
 883              		.loc 1 369 11 is_stmt 1 view .LVU220
 884              		.loc 1 369 19 is_stmt 0 view .LVU221
 885 0082 0024     		movs	r4, #0
 886 0084 E4E7     		b	.L80
 887              	.LVL90:
 888              	.L96:
 889              		.loc 1 369 19 view .LVU222
 890              	.LBE28:
 891              	.LBE26:
 370:Src/draw.c    ****         }
 371:Src/draw.c    ****       }
 372:Src/draw.c    ****       if (boarder)
 892              		.loc 1 372 7 is_stmt 1 view .LVU223
 893              		.loc 1 372 10 is_stmt 0 view .LVU224
 894 0086 BCB1     		cbz	r4, .L83
 373:Src/draw.c    ****       {
 374:Src/draw.c    ****         if ((x * x) + (y * y) >= (z * z))
 895              		.loc 1 374 9 is_stmt 1 view .LVU225
 896              		.loc 1 374 26 is_stmt 0 view .LVU226
 897 0088 06FB06F0 		mul	r0, r6, r6
 898              		.loc 1 374 31 view .LVU227
 899 008c 05FB0500 		mla	r0, r5, r5, r0
 900 0090 FFF7FEFF 		bl	__aeabi_i2f
 901              	.LVL91:
 902              		.loc 1 374 12 view .LVU228
 903 0094 1749     		ldr	r1, .L99+4
 904 0096 FFF7FEFF 		bl	__aeabi_fcmpge
 905              	.LVL92:
 906 009a 68B1     		cbz	r0, .L83
 375:Src/draw.c    ****         {
 376:Src/draw.c    ****           invI = orientation ? MAX_DIV : 0;
 907              		.loc 1 376 11 is_stmt 1 view .LVU229
 908              		.loc 1 376 16 is_stmt 0 view .LVU230
 909 009c EFB1     		cbz	r7, .L89
 910 009e 0323     		movs	r3, #3
 911              	.L85:
 912              	.LVL93:
ARM GAS  /var/folders/hv/f19l0kw128sbpybv1h43gz3c0000gn/T//ccojdbgc.s 			page 25


 377:Src/draw.c    ****           setColor(backLayer[coords], noteBuffer[invI].color);
 913              		.loc 1 377 11 is_stmt 1 discriminator 4 view .LVU231
 914              		.loc 1 377 29 is_stmt 0 discriminator 4 view .LVU232
 915 00a0 08EB4808 		add	r8, r8, r8, lsl #1
 916              	.LVL94:
 917              		.loc 1 377 55 discriminator 4 view .LVU233
 918 00a4 03EB4303 		add	r3, r3, r3, lsl #1
 919              	.LVL95:
 920              		.loc 1 377 55 discriminator 4 view .LVU234
 921 00a8 5900     		lsls	r1, r3, #1
 922 00aa 134B     		ldr	r3, .L99+8
 923 00ac 1944     		add	r1, r1, r3
 924              		.loc 1 377 11 discriminator 4 view .LVU235
 925 00ae 0331     		adds	r1, r1, #3
 926 00b0 1248     		ldr	r0, .L99+12
 927 00b2 4044     		add	r0, r0, r8
 928 00b4 FFF7FEFF 		bl	setColor
 929              	.LVL96:
 930              	.L83:
 357:Src/draw.c    ****     {
 931              		.loc 1 357 51 discriminator 2 view .LVU236
 932 00b8 0135     		adds	r5, r5, #1
 933              	.LVL97:
 934              	.L87:
 357:Src/draw.c    ****     {
 935              		.loc 1 357 5 discriminator 1 view .LVU237
 936 00ba 162D     		cmp	r5, #22
 937 00bc 0FDC     		bgt	.L97
 359:Src/draw.c    ****       for (int i = 0; i < MAX_DIV; i++)
 938              		.loc 1 359 7 is_stmt 1 view .LVU238
 359:Src/draw.c    ****       for (int i = 0; i < MAX_DIV; i++)
 939              		.loc 1 359 40 is_stmt 0 view .LVU239
 940 00be 06F11603 		add	r3, r6, #22
 359:Src/draw.c    ****       for (int i = 0; i < MAX_DIV; i++)
 941              		.loc 1 359 34 view .LVU240
 942 00c2 03EB4303 		add	r3, r3, r3, lsl #1
 943 00c6 C3EB0310 		rsb	r0, r3, r3, lsl #4
 944 00ca 2844     		add	r0, r0, r5
 945 00cc 80B2     		uxth	r0, r0
 359:Src/draw.c    ****       for (int i = 0; i < MAX_DIV; i++)
 946              		.loc 1 359 14 view .LVU241
 947 00ce 1630     		adds	r0, r0, #22
 948 00d0 1FFA80F8 		uxth	r8, r0
 949              	.LVL98:
 360:Src/draw.c    ****       {
 950              		.loc 1 360 7 is_stmt 1 view .LVU242
 951              	.LBB29:
 360:Src/draw.c    ****       {
 952              		.loc 1 360 12 view .LVU243
 360:Src/draw.c    ****       {
 953              		.loc 1 360 16 is_stmt 0 view .LVU244
 954 00d4 4FF00009 		mov	r9, #0
 360:Src/draw.c    ****       {
 955              		.loc 1 360 7 view .LVU245
 956 00d8 BCE7     		b	.L77
 957              	.LVL99:
 958              	.L89:
ARM GAS  /var/folders/hv/f19l0kw128sbpybv1h43gz3c0000gn/T//ccojdbgc.s 			page 26


 360:Src/draw.c    ****       {
 959              		.loc 1 360 7 view .LVU246
 960              	.LBE29:
 376:Src/draw.c    ****           setColor(backLayer[coords], noteBuffer[invI].color);
 961              		.loc 1 376 16 view .LVU247
 962 00da 3B46     		mov	r3, r7
 963 00dc E0E7     		b	.L85
 964              	.LVL100:
 965              	.L97:
 376:Src/draw.c    ****           setColor(backLayer[coords], noteBuffer[invI].color);
 966              		.loc 1 376 16 view .LVU248
 967              	.LBE25:
 355:Src/draw.c    ****   {
 968              		.loc 1 355 49 discriminator 2 view .LVU249
 969 00de 0136     		adds	r6, r6, #1
 970              	.LVL101:
 971              	.L76:
 355:Src/draw.c    ****   {
 972              		.loc 1 355 3 discriminator 1 view .LVU250
 973 00e0 162E     		cmp	r6, #22
 974 00e2 02DC     		bgt	.L98
 975              	.LBB30:
 357:Src/draw.c    ****     {
 976              		.loc 1 357 14 view .LVU251
 977 00e4 6FF01505 		mvn	r5, #21
 978 00e8 E7E7     		b	.L87
 979              	.L98:
 980              	.LBE30:
 981              	.LBE24:
 378:Src/draw.c    ****         }
 379:Src/draw.c    ****       }
 380:Src/draw.c    ****     }
 381:Src/draw.c    ****   }
 382:Src/draw.c    **** }
 982              		.loc 1 382 1 view .LVU252
 983 00ea BDE8F88F 		pop	{r3, r4, r5, r6, r7, r8, r9, r10, fp, pc}
 984              	.LVL102:
 985              	.L100:
 986              		.loc 1 382 1 view .LVU253
 987 00ee 00BF     		.align	2
 988              	.L99:
 989 00f0 00004040 		.word	1077936128
 990 00f4 0020FD43 		.word	1140662272
 991 00f8 00000000 		.word	noteBuffer
 992 00fc 00000000 		.word	backLayer
 993              		.cfi_endproc
 994              	.LFE73:
 996              		.section	.text.drawCircleNoteGrad,"ax",%progbits
 997              		.align	1
 998              		.global	drawCircleNoteGrad
 999              		.syntax unified
 1000              		.thumb
 1001              		.thumb_func
 1002              		.fpu softvfp
 1004              	drawCircleNoteGrad:
 1005              	.LVL103:
 1006              	.LFB74:
ARM GAS  /var/folders/hv/f19l0kw128sbpybv1h43gz3c0000gn/T//ccojdbgc.s 			page 27


 383:Src/draw.c    **** 
 384:Src/draw.c    **** void drawCircleNoteGrad(uint8_t orientation)
 385:Src/draw.c    **** {
 1007              		.loc 1 385 1 is_stmt 1 view -0
 1008              		.cfi_startproc
 1009              		@ args = 0, pretend = 0, frame = 8
 1010              		@ frame_needed = 0, uses_anonymous_args = 0
 1011              		.loc 1 385 1 is_stmt 0 view .LVU255
 1012 0000 2DE9F047 		push	{r4, r5, r6, r7, r8, r9, r10, lr}
 1013              	.LCFI12:
 1014              		.cfi_def_cfa_offset 32
 1015              		.cfi_offset 4, -32
 1016              		.cfi_offset 5, -28
 1017              		.cfi_offset 6, -24
 1018              		.cfi_offset 7, -20
 1019              		.cfi_offset 8, -16
 1020              		.cfi_offset 9, -12
 1021              		.cfi_offset 10, -8
 1022              		.cfi_offset 14, -4
 1023 0004 82B0     		sub	sp, sp, #8
 1024              	.LCFI13:
 1025              		.cfi_def_cfa_offset 40
 386:Src/draw.c    ****   float z = ((float)NCOLS / 2);
 1026              		.loc 1 386 3 is_stmt 1 view .LVU256
 1027              	.LVL104:
 387:Src/draw.c    ****   uint16_t coords = 0;
 1028              		.loc 1 387 3 view .LVU257
 388:Src/draw.c    ****   uint8_t boarder, invO;
 1029              		.loc 1 388 3 view .LVU258
 389:Src/draw.c    ****   int8_t diff[3];
 1030              		.loc 1 389 3 view .LVU259
 390:Src/draw.c    ****   invO = orientation ? 0 : 1;
 1031              		.loc 1 390 3 view .LVU260
 1032              		.loc 1 390 26 is_stmt 0 view .LVU261
 1033 0006 8146     		mov	r9, r0
 1034 0008 B0FA80F0 		clz	r0, r0
 1035              	.LVL105:
 1036              		.loc 1 390 26 view .LVU262
 1037 000c 4009     		lsrs	r0, r0, #5
 1038              	.LVL106:
 391:Src/draw.c    ****   for (uint8_t j = 0; j < 3; j++)
 1039              		.loc 1 391 3 is_stmt 1 view .LVU263
 1040              	.LBB31:
 1041              		.loc 1 391 8 view .LVU264
 1042              		.loc 1 391 16 is_stmt 0 view .LVU265
 1043 000e 0023     		movs	r3, #0
 1044              	.LVL107:
 1045              	.L102:
 1046              		.loc 1 391 3 discriminator 1 view .LVU266
 1047 0010 022B     		cmp	r3, #2
 1048 0012 19D8     		bhi	.L118
 392:Src/draw.c    ****   {
 393:Src/draw.c    ****     diff[j] = (noteBuffer[orientation].color[j] - noteBuffer[invO].color[j]) / MAX_DIV;
 1049              		.loc 1 393 5 is_stmt 1 discriminator 3 view .LVU267
 1050              		.loc 1 393 45 is_stmt 0 discriminator 3 view .LVU268
 1051 0014 434A     		ldr	r2, .L124
 1052 0016 09EB4904 		add	r4, r9, r9, lsl #1
ARM GAS  /var/folders/hv/f19l0kw128sbpybv1h43gz3c0000gn/T//ccojdbgc.s 			page 28


 1053 001a 6100     		lsls	r1, r4, #1
 1054 001c 1144     		add	r1, r1, r2
 1055 001e 1944     		add	r1, r1, r3
 1056 0020 C978     		ldrb	r1, [r1, #3]	@ zero_extendqisi2
 1057              		.loc 1 393 73 discriminator 3 view .LVU269
 1058 0022 4400     		lsls	r4, r0, #1
 1059 0024 0444     		add	r4, r4, r0
 1060 0026 6500     		lsls	r5, r4, #1
 1061 0028 2A44     		add	r2, r2, r5
 1062 002a 1A44     		add	r2, r2, r3
 1063 002c D278     		ldrb	r2, [r2, #3]	@ zero_extendqisi2
 1064              		.loc 1 393 49 discriminator 3 view .LVU270
 1065 002e 891A     		subs	r1, r1, r2
 1066              		.loc 1 393 78 discriminator 3 view .LVU271
 1067 0030 3D4A     		ldr	r2, .L124+4
 1068 0032 82FB0142 		smull	r4, r2, r2, r1
 1069 0036 A2EBE172 		sub	r2, r2, r1, asr #31
 1070              		.loc 1 393 13 discriminator 3 view .LVU272
 1071 003a 02A9     		add	r1, sp, #8
 1072 003c 1944     		add	r1, r1, r3
 1073 003e 01F8042C 		strb	r2, [r1, #-4]
 391:Src/draw.c    ****   for (uint8_t j = 0; j < 3; j++)
 1074              		.loc 1 391 31 discriminator 3 view .LVU273
 1075 0042 0133     		adds	r3, r3, #1
 1076              	.LVL108:
 391:Src/draw.c    ****   for (uint8_t j = 0; j < 3; j++)
 1077              		.loc 1 391 31 discriminator 3 view .LVU274
 1078 0044 DBB2     		uxtb	r3, r3
 1079              	.LVL109:
 391:Src/draw.c    ****   for (uint8_t j = 0; j < 3; j++)
 1080              		.loc 1 391 31 discriminator 3 view .LVU275
 1081 0046 E3E7     		b	.L102
 1082              	.L118:
 391:Src/draw.c    ****   for (uint8_t j = 0; j < 3; j++)
 1083              		.loc 1 391 31 discriminator 3 view .LVU276
 1084              	.LBE31:
 1085              	.LBB32:
 394:Src/draw.c    ****   }
 395:Src/draw.c    **** 
 396:Src/draw.c    ****   for (int y = -(NCOLS / 2); y <= (NCOLS / 2); y++)
 1086              		.loc 1 396 12 view .LVU277
 1087 0048 6FF01508 		mvn	r8, #21
 1088 004c 60E0     		b	.L104
 1089              	.LVL110:
 1090              	.L108:
 1091              	.LBB33:
 1092              	.LBB34:
 1093              	.LBB35:
 1094              	.LBB36:
 397:Src/draw.c    ****   {
 398:Src/draw.c    ****     for (int x = -(NCOLS / 2); x <= (NCOLS / 2); x++)
 399:Src/draw.c    ****     {
 400:Src/draw.c    ****       coords = (x + (NCOLS / 2)) + ((y + (NCOLS / 2)) * NCOLS);
 401:Src/draw.c    ****       for (int i = 0; i < MAX_DIV; i++)
 402:Src/draw.c    ****       {
 403:Src/draw.c    ****         boarder = 1;
 404:Src/draw.c    ****         float perc = 1 - ((float)i / MAX_DIV);
ARM GAS  /var/folders/hv/f19l0kw128sbpybv1h43gz3c0000gn/T//ccojdbgc.s 			page 29


 405:Src/draw.c    ****         // printf("%0.1f\n", perc);
 406:Src/draw.c    ****         if ((x * x) + (y * y) <= (z * z) * (perc))
 407:Src/draw.c    ****         {
 408:Src/draw.c    ****           for (uint8_t j = 0; j < 3; j++)
 409:Src/draw.c    ****           {
 410:Src/draw.c    ****             backLayer[coords][j] = noteBuffer[orientation].color[j] - ((i + 1) * diff[j]);
 1095              		.loc 1 410 13 is_stmt 1 discriminator 3 view .LVU278
 1096              		.loc 1 410 65 is_stmt 0 discriminator 3 view .LVU279
 1097 004e 09EB4902 		add	r2, r9, r9, lsl #1
 1098              	.LVL111:
 1099              		.loc 1 410 65 discriminator 3 view .LVU280
 1100 0052 5100     		lsls	r1, r2, #1
 1101 0054 334A     		ldr	r2, .L124
 1102 0056 0A44     		add	r2, r2, r1
 1103 0058 1A44     		add	r2, r2, r3
 1104 005a D178     		ldrb	r1, [r2, #3]	@ zero_extendqisi2
 1105              		.loc 1 410 86 discriminator 3 view .LVU281
 1106 005c 02AA     		add	r2, sp, #8
 1107 005e 1A44     		add	r2, r2, r3
 1108 0060 12F9042C 		ldrsb	r2, [r2, #-4]
 1109              		.loc 1 410 69 discriminator 3 view .LVU282
 1110 0064 05FB0222 		mla	r2, r5, r2, r2
 1111 0068 8A1A     		subs	r2, r1, r2
 1112              		.loc 1 410 34 discriminator 3 view .LVU283
 1113 006a 04EB4400 		add	r0, r4, r4, lsl #1
 1114 006e 2F49     		ldr	r1, .L124+8
 1115 0070 0144     		add	r1, r1, r0
 1116 0072 CA54     		strb	r2, [r1, r3]
 411:Src/draw.c    ****             boarder = 0;
 1117              		.loc 1 411 13 is_stmt 1 discriminator 3 view .LVU284
 1118              	.LVL112:
 408:Src/draw.c    ****           {
 1119              		.loc 1 408 39 is_stmt 0 discriminator 3 view .LVU285
 1120 0074 0133     		adds	r3, r3, #1
 1121              	.LVL113:
 408:Src/draw.c    ****           {
 1122              		.loc 1 408 39 discriminator 3 view .LVU286
 1123 0076 DBB2     		uxtb	r3, r3
 1124              	.LVL114:
 1125              		.loc 1 411 21 discriminator 3 view .LVU287
 1126 0078 0022     		movs	r2, #0
 1127              	.LVL115:
 1128              	.L106:
 408:Src/draw.c    ****           {
 1129              		.loc 1 408 11 discriminator 1 view .LVU288
 1130 007a 022B     		cmp	r3, #2
 1131 007c E7D9     		bls	.L108
 408:Src/draw.c    ****           {
 1132              		.loc 1 408 11 discriminator 1 view .LVU289
 1133              	.LBE36:
 412:Src/draw.c    ****           }
 413:Src/draw.c    ****         }
 414:Src/draw.c    ****         if (boarder)
 1134              		.loc 1 414 9 is_stmt 1 view .LVU290
 1135              		.loc 1 414 12 is_stmt 0 view .LVU291
 1136 007e 7AB1     		cbz	r2, .L109
 1137 0080 2EE0     		b	.L107
ARM GAS  /var/folders/hv/f19l0kw128sbpybv1h43gz3c0000gn/T//ccojdbgc.s 			page 30


 1138              	.LVL116:
 1139              	.L120:
 1140              	.LBB37:
 408:Src/draw.c    ****           {
 1141              		.loc 1 408 24 view .LVU292
 1142 0082 0023     		movs	r3, #0
 1143              	.LBE37:
 403:Src/draw.c    ****         float perc = 1 - ((float)i / MAX_DIV);
 1144              		.loc 1 403 17 view .LVU293
 1145 0084 0122     		movs	r2, #1
 1146 0086 F8E7     		b	.L106
 1147              	.LVL117:
 1148              	.L121:
 415:Src/draw.c    ****         {
 416:Src/draw.c    ****           if ((x * x) + (y * y) >= (z * z))
 417:Src/draw.c    ****           {
 418:Src/draw.c    ****             setColor(backLayer[coords], noteBuffer[orientation].color);
 1149              		.loc 1 418 13 is_stmt 1 view .LVU294
 1150              		.loc 1 418 31 is_stmt 0 view .LVU295
 1151 0088 04EB4400 		add	r0, r4, r4, lsl #1
 1152              		.loc 1 418 64 view .LVU296
 1153 008c 09EB4903 		add	r3, r9, r9, lsl #1
 1154 0090 5900     		lsls	r1, r3, #1
 1155 0092 244B     		ldr	r3, .L124
 1156 0094 1944     		add	r1, r1, r3
 1157              		.loc 1 418 13 view .LVU297
 1158 0096 0331     		adds	r1, r1, #3
 1159 0098 244B     		ldr	r3, .L124+8
 1160 009a 1844     		add	r0, r0, r3
 1161 009c FFF7FEFF 		bl	setColor
 1162              	.LVL118:
 1163              	.L109:
 1164              		.loc 1 418 13 view .LVU298
 1165              	.LBE35:
 401:Src/draw.c    ****       {
 1166              		.loc 1 401 37 discriminator 2 view .LVU299
 1167 00a0 0135     		adds	r5, r5, #1
 1168              	.LVL119:
 1169              	.L105:
 401:Src/draw.c    ****       {
 1170              		.loc 1 401 7 discriminator 1 view .LVU300
 1171 00a2 022D     		cmp	r5, #2
 1172 00a4 23DC     		bgt	.L119
 1173              	.LBB38:
 403:Src/draw.c    ****         float perc = 1 - ((float)i / MAX_DIV);
 1174              		.loc 1 403 9 is_stmt 1 view .LVU301
 1175              	.LVL120:
 404:Src/draw.c    ****         // printf("%0.1f\n", perc);
 1176              		.loc 1 404 9 view .LVU302
 404:Src/draw.c    ****         // printf("%0.1f\n", perc);
 1177              		.loc 1 404 27 is_stmt 0 view .LVU303
 1178 00a6 2846     		mov	r0, r5
 1179 00a8 FFF7FEFF 		bl	__aeabi_i2f
 1180              	.LVL121:
 404:Src/draw.c    ****         // printf("%0.1f\n", perc);
 1181              		.loc 1 404 36 view .LVU304
 1182 00ac 2049     		ldr	r1, .L124+12
ARM GAS  /var/folders/hv/f19l0kw128sbpybv1h43gz3c0000gn/T//ccojdbgc.s 			page 31


 1183 00ae FFF7FEFF 		bl	__aeabi_fdiv
 1184              	.LVL122:
 404:Src/draw.c    ****         // printf("%0.1f\n", perc);
 1185              		.loc 1 404 15 view .LVU305
 1186 00b2 0146     		mov	r1, r0
 1187 00b4 4FF07E50 		mov	r0, #1065353216
 1188 00b8 FFF7FEFF 		bl	__aeabi_fsub
 1189              	.LVL123:
 1190 00bc 8246     		mov	r10, r0
 1191              	.LVL124:
 406:Src/draw.c    ****         {
 1192              		.loc 1 406 9 is_stmt 1 view .LVU306
 406:Src/draw.c    ****         {
 1193              		.loc 1 406 26 is_stmt 0 view .LVU307
 1194 00be 08FB08F0 		mul	r0, r8, r8
 1195              	.LVL125:
 406:Src/draw.c    ****         {
 1196              		.loc 1 406 31 view .LVU308
 1197 00c2 06FB0600 		mla	r0, r6, r6, r0
 1198 00c6 FFF7FEFF 		bl	__aeabi_i2f
 1199              	.LVL126:
 1200 00ca 0746     		mov	r7, r0
 406:Src/draw.c    ****         {
 1201              		.loc 1 406 42 view .LVU309
 1202 00cc 1949     		ldr	r1, .L124+16
 1203 00ce 5046     		mov	r0, r10
 1204 00d0 FFF7FEFF 		bl	__aeabi_fmul
 1205              	.LVL127:
 406:Src/draw.c    ****         {
 1206              		.loc 1 406 12 view .LVU310
 1207 00d4 0146     		mov	r1, r0
 1208 00d6 3846     		mov	r0, r7
 1209 00d8 FFF7FEFF 		bl	__aeabi_fcmple
 1210              	.LVL128:
 1211 00dc 0028     		cmp	r0, #0
 1212 00de D0D1     		bne	.L120
 1213              	.LVL129:
 1214              	.L107:
 416:Src/draw.c    ****           {
 1215              		.loc 1 416 11 is_stmt 1 view .LVU311
 416:Src/draw.c    ****           {
 1216              		.loc 1 416 14 is_stmt 0 view .LVU312
 1217 00e0 1449     		ldr	r1, .L124+16
 1218 00e2 3846     		mov	r0, r7
 1219 00e4 FFF7FEFF 		bl	__aeabi_fcmpge
 1220              	.LVL130:
 1221 00e8 0028     		cmp	r0, #0
 1222 00ea D9D0     		beq	.L109
 1223 00ec CCE7     		b	.L121
 1224              	.LVL131:
 1225              	.L119:
 416:Src/draw.c    ****           {
 1226              		.loc 1 416 14 view .LVU313
 1227              	.LBE38:
 1228              	.LBE34:
 398:Src/draw.c    ****     {
 1229              		.loc 1 398 51 discriminator 2 view .LVU314
ARM GAS  /var/folders/hv/f19l0kw128sbpybv1h43gz3c0000gn/T//ccojdbgc.s 			page 32


 1230 00ee 0136     		adds	r6, r6, #1
 1231              	.LVL132:
 1232              	.L113:
 398:Src/draw.c    ****     {
 1233              		.loc 1 398 5 discriminator 1 view .LVU315
 1234 00f0 162E     		cmp	r6, #22
 1235 00f2 0BDC     		bgt	.L122
 400:Src/draw.c    ****       for (int i = 0; i < MAX_DIV; i++)
 1236              		.loc 1 400 7 is_stmt 1 view .LVU316
 400:Src/draw.c    ****       for (int i = 0; i < MAX_DIV; i++)
 1237              		.loc 1 400 40 is_stmt 0 view .LVU317
 1238 00f4 08F11603 		add	r3, r8, #22
 400:Src/draw.c    ****       for (int i = 0; i < MAX_DIV; i++)
 1239              		.loc 1 400 34 view .LVU318
 1240 00f8 03EB4303 		add	r3, r3, r3, lsl #1
 1241 00fc C3EB0314 		rsb	r4, r3, r3, lsl #4
 1242 0100 3444     		add	r4, r4, r6
 1243 0102 A4B2     		uxth	r4, r4
 400:Src/draw.c    ****       for (int i = 0; i < MAX_DIV; i++)
 1244              		.loc 1 400 14 view .LVU319
 1245 0104 1634     		adds	r4, r4, #22
 1246 0106 A4B2     		uxth	r4, r4
 1247              	.LVL133:
 401:Src/draw.c    ****       {
 1248              		.loc 1 401 7 is_stmt 1 view .LVU320
 1249              	.LBB39:
 401:Src/draw.c    ****       {
 1250              		.loc 1 401 12 view .LVU321
 401:Src/draw.c    ****       {
 1251              		.loc 1 401 16 is_stmt 0 view .LVU322
 1252 0108 0025     		movs	r5, #0
 401:Src/draw.c    ****       {
 1253              		.loc 1 401 7 view .LVU323
 1254 010a CAE7     		b	.L105
 1255              	.LVL134:
 1256              	.L122:
 401:Src/draw.c    ****       {
 1257              		.loc 1 401 7 view .LVU324
 1258              	.LBE39:
 1259              	.LBE33:
 396:Src/draw.c    ****   {
 1260              		.loc 1 396 49 discriminator 2 view .LVU325
 1261 010c 08F10108 		add	r8, r8, #1
 1262              	.LVL135:
 1263              	.L104:
 396:Src/draw.c    ****   {
 1264              		.loc 1 396 3 discriminator 1 view .LVU326
 1265 0110 B8F1160F 		cmp	r8, #22
 1266 0114 02DC     		bgt	.L123
 1267              	.LBB40:
 398:Src/draw.c    ****     {
 1268              		.loc 1 398 14 view .LVU327
 1269 0116 6FF01506 		mvn	r6, #21
 1270 011a E9E7     		b	.L113
 1271              	.L123:
 1272              	.LBE40:
 1273              	.LBE32:
ARM GAS  /var/folders/hv/f19l0kw128sbpybv1h43gz3c0000gn/T//ccojdbgc.s 			page 33


 419:Src/draw.c    ****           }
 420:Src/draw.c    ****         }
 421:Src/draw.c    ****       }
 422:Src/draw.c    ****     }
 423:Src/draw.c    ****   }
 424:Src/draw.c    **** }
 1274              		.loc 1 424 1 view .LVU328
 1275 011c 02B0     		add	sp, sp, #8
 1276              	.LCFI14:
 1277              		.cfi_def_cfa_offset 32
 1278              		@ sp needed
 1279 011e BDE8F087 		pop	{r4, r5, r6, r7, r8, r9, r10, pc}
 1280              	.LVL136:
 1281              	.L125:
 1282              		.loc 1 424 1 view .LVU329
 1283 0122 00BF     		.align	2
 1284              	.L124:
 1285 0124 00000000 		.word	noteBuffer
 1286 0128 56555555 		.word	1431655766
 1287 012c 00000000 		.word	backLayer
 1288 0130 00004040 		.word	1077936128
 1289 0134 0020FD43 		.word	1140662272
 1290              		.cfi_endproc
 1291              	.LFE74:
 1293              		.section	.text.drawLine,"ax",%progbits
 1294              		.align	1
 1295              		.global	drawLine
 1296              		.syntax unified
 1297              		.thumb
 1298              		.thumb_func
 1299              		.fpu softvfp
 1301              	drawLine:
 1302              	.LVL137:
 1303              	.LFB75:
 425:Src/draw.c    **** 
 426:Src/draw.c    **** void drawLine(uint8_t px, uint8_t py, uint8_t *color)
 427:Src/draw.c    **** {
 1304              		.loc 1 427 1 is_stmt 1 view -0
 1305              		.cfi_startproc
 1306              		@ args = 0, pretend = 0, frame = 0
 1307              		@ frame_needed = 0, uses_anonymous_args = 0
 1308              		.loc 1 427 1 is_stmt 0 view .LVU331
 1309 0000 2DE9F041 		push	{r4, r5, r6, r7, r8, lr}
 1310              	.LCFI15:
 1311              		.cfi_def_cfa_offset 24
 1312              		.cfi_offset 4, -24
 1313              		.cfi_offset 5, -20
 1314              		.cfi_offset 6, -16
 1315              		.cfi_offset 7, -12
 1316              		.cfi_offset 8, -8
 1317              		.cfi_offset 14, -4
 1318 0004 0646     		mov	r6, r0
 1319 0006 0F46     		mov	r7, r1
 1320 0008 9046     		mov	r8, r2
 428:Src/draw.c    ****   for (int y = 0; y <= NCOLS; y++)
 1321              		.loc 1 428 3 is_stmt 1 view .LVU332
 1322              	.LBB41:
ARM GAS  /var/folders/hv/f19l0kw128sbpybv1h43gz3c0000gn/T//ccojdbgc.s 			page 34


 1323              		.loc 1 428 8 view .LVU333
 1324              	.LVL138:
 1325              		.loc 1 428 12 is_stmt 0 view .LVU334
 1326 000a 0025     		movs	r5, #0
 1327              		.loc 1 428 3 view .LVU335
 1328 000c 14E0     		b	.L127
 1329              	.LVL139:
 1330              	.L128:
 1331              	.LBB42:
 429:Src/draw.c    ****   {
 430:Src/draw.c    ****     for (int x = 0; x <= NCOLS; x++)
 431:Src/draw.c    ****     {
 432:Src/draw.c    ****       if (x == px || y == py)
 433:Src/draw.c    ****       {
 434:Src/draw.c    ****         setColor(backLayer[x + (y * NCOLS)], color);
 1332              		.loc 1 434 9 is_stmt 1 view .LVU336
 1333              		.loc 1 434 35 is_stmt 0 view .LVU337
 1334 000e 05EB4500 		add	r0, r5, r5, lsl #1
 1335 0012 C0EB0010 		rsb	r0, r0, r0, lsl #4
 1336              		.loc 1 434 30 view .LVU338
 1337 0016 2044     		add	r0, r0, r4
 1338              		.loc 1 434 27 view .LVU339
 1339 0018 00EB4000 		add	r0, r0, r0, lsl #1
 1340              		.loc 1 434 9 view .LVU340
 1341 001c 4146     		mov	r1, r8
 1342 001e 094B     		ldr	r3, .L136
 1343 0020 1844     		add	r0, r0, r3
 1344 0022 FFF7FEFF 		bl	setColor
 1345              	.LVL140:
 1346              	.L129:
 430:Src/draw.c    ****     {
 1347              		.loc 1 430 34 discriminator 2 view .LVU341
 1348 0026 0134     		adds	r4, r4, #1
 1349              	.LVL141:
 1350              	.L131:
 430:Src/draw.c    ****     {
 1351              		.loc 1 430 5 discriminator 1 view .LVU342
 1352 0028 2D2C     		cmp	r4, #45
 1353 002a 04DC     		bgt	.L134
 432:Src/draw.c    ****       {
 1354              		.loc 1 432 7 is_stmt 1 view .LVU343
 432:Src/draw.c    ****       {
 1355              		.loc 1 432 10 is_stmt 0 view .LVU344
 1356 002c A642     		cmp	r6, r4
 1357 002e EED0     		beq	.L128
 432:Src/draw.c    ****       {
 1358              		.loc 1 432 19 discriminator 1 view .LVU345
 1359 0030 AF42     		cmp	r7, r5
 1360 0032 F8D1     		bne	.L129
 432:Src/draw.c    ****       {
 1361              		.loc 1 432 19 discriminator 1 view .LVU346
 1362 0034 EBE7     		b	.L128
 1363              	.L134:
 432:Src/draw.c    ****       {
 1364              		.loc 1 432 19 discriminator 1 view .LVU347
 1365              	.LBE42:
 428:Src/draw.c    ****   {
ARM GAS  /var/folders/hv/f19l0kw128sbpybv1h43gz3c0000gn/T//ccojdbgc.s 			page 35


 1366              		.loc 1 428 32 discriminator 2 view .LVU348
 1367 0036 0135     		adds	r5, r5, #1
 1368              	.LVL142:
 1369              	.L127:
 428:Src/draw.c    ****   {
 1370              		.loc 1 428 3 discriminator 1 view .LVU349
 1371 0038 2D2D     		cmp	r5, #45
 1372 003a 01DC     		bgt	.L135
 1373              	.LBB43:
 430:Src/draw.c    ****     {
 1374              		.loc 1 430 14 view .LVU350
 1375 003c 0024     		movs	r4, #0
 1376 003e F3E7     		b	.L131
 1377              	.L135:
 1378              	.LBE43:
 1379              	.LBE41:
 435:Src/draw.c    ****       }
 436:Src/draw.c    ****     }
 437:Src/draw.c    ****   }
 438:Src/draw.c    **** }
 1380              		.loc 1 438 1 view .LVU351
 1381 0040 BDE8F081 		pop	{r4, r5, r6, r7, r8, pc}
 1382              	.LVL143:
 1383              	.L137:
 1384              		.loc 1 438 1 view .LVU352
 1385              		.align	2
 1386              	.L136:
 1387 0044 00000000 		.word	backLayer
 1388              		.cfi_endproc
 1389              	.LFE75:
 1391              		.section	.text.drawPixel,"ax",%progbits
 1392              		.align	1
 1393              		.global	drawPixel
 1394              		.syntax unified
 1395              		.thumb
 1396              		.thumb_func
 1397              		.fpu softvfp
 1399              	drawPixel:
 1400              	.LVL144:
 1401              	.LFB76:
 439:Src/draw.c    **** 
 440:Src/draw.c    **** void drawPixel(uint8_t px, uint8_t py, uint8_t *color)
 441:Src/draw.c    **** {
 1402              		.loc 1 441 1 is_stmt 1 view -0
 1403              		.cfi_startproc
 1404              		@ args = 0, pretend = 0, frame = 0
 1405              		@ frame_needed = 0, uses_anonymous_args = 0
 1406              		.loc 1 441 1 is_stmt 0 view .LVU354
 1407 0000 2DE9F041 		push	{r4, r5, r6, r7, r8, lr}
 1408              	.LCFI16:
 1409              		.cfi_def_cfa_offset 24
 1410              		.cfi_offset 4, -24
 1411              		.cfi_offset 5, -20
 1412              		.cfi_offset 6, -16
 1413              		.cfi_offset 7, -12
 1414              		.cfi_offset 8, -8
 1415              		.cfi_offset 14, -4
ARM GAS  /var/folders/hv/f19l0kw128sbpybv1h43gz3c0000gn/T//ccojdbgc.s 			page 36


 1416 0004 0546     		mov	r5, r0
 1417 0006 0F46     		mov	r7, r1
 1418 0008 9046     		mov	r8, r2
 442:Src/draw.c    ****   for (int y = 0; y <= NCOLS; y++)
 1419              		.loc 1 442 3 is_stmt 1 view .LVU355
 1420              	.LBB44:
 1421              		.loc 1 442 8 view .LVU356
 1422              	.LVL145:
 1423              		.loc 1 442 12 is_stmt 0 view .LVU357
 1424 000a 0026     		movs	r6, #0
 1425              		.loc 1 442 3 view .LVU358
 1426 000c 14E0     		b	.L139
 1427              	.LVL146:
 1428              	.L140:
 1429              	.LBB45:
 443:Src/draw.c    ****   {
 444:Src/draw.c    ****     for (int x = 0; x <= NCOLS; x++)
 1430              		.loc 1 444 34 discriminator 2 view .LVU359
 1431 000e 0134     		adds	r4, r4, #1
 1432              	.LVL147:
 1433              	.L142:
 1434              		.loc 1 444 5 discriminator 1 view .LVU360
 1435 0010 2D2C     		cmp	r4, #45
 1436 0012 10DC     		bgt	.L145
 445:Src/draw.c    ****     {
 446:Src/draw.c    ****       if (x == px && y == py)
 1437              		.loc 1 446 7 is_stmt 1 view .LVU361
 1438              		.loc 1 446 10 is_stmt 0 view .LVU362
 1439 0014 A542     		cmp	r5, r4
 1440 0016 FAD1     		bne	.L140
 1441              		.loc 1 446 19 discriminator 1 view .LVU363
 1442 0018 B742     		cmp	r7, r6
 1443 001a F8D1     		bne	.L140
 447:Src/draw.c    ****       {
 448:Src/draw.c    ****         setColor(backLayer[x + (y * NCOLS)], color);
 1444              		.loc 1 448 9 is_stmt 1 view .LVU364
 1445              		.loc 1 448 35 is_stmt 0 view .LVU365
 1446 001c 06EB4600 		add	r0, r6, r6, lsl #1
 1447 0020 C0EB0010 		rsb	r0, r0, r0, lsl #4
 1448              		.loc 1 448 30 view .LVU366
 1449 0024 2044     		add	r0, r0, r4
 1450              		.loc 1 448 27 view .LVU367
 1451 0026 00EB4000 		add	r0, r0, r0, lsl #1
 1452              		.loc 1 448 9 view .LVU368
 1453 002a 4146     		mov	r1, r8
 1454 002c 054B     		ldr	r3, .L147
 1455 002e 1844     		add	r0, r0, r3
 1456 0030 FFF7FEFF 		bl	setColor
 1457              	.LVL148:
 1458 0034 EBE7     		b	.L140
 1459              	.L145:
 1460              		.loc 1 448 9 view .LVU369
 1461              	.LBE45:
 442:Src/draw.c    ****   {
 1462              		.loc 1 442 32 discriminator 2 view .LVU370
 1463 0036 0136     		adds	r6, r6, #1
 1464              	.LVL149:
ARM GAS  /var/folders/hv/f19l0kw128sbpybv1h43gz3c0000gn/T//ccojdbgc.s 			page 37


 1465              	.L139:
 442:Src/draw.c    ****   {
 1466              		.loc 1 442 3 discriminator 1 view .LVU371
 1467 0038 2D2E     		cmp	r6, #45
 1468 003a 01DC     		bgt	.L146
 1469              	.LBB46:
 444:Src/draw.c    ****     {
 1470              		.loc 1 444 14 view .LVU372
 1471 003c 0024     		movs	r4, #0
 1472 003e E7E7     		b	.L142
 1473              	.L146:
 1474              	.LBE46:
 1475              	.LBE44:
 449:Src/draw.c    ****       }
 450:Src/draw.c    ****     }
 451:Src/draw.c    ****   }
 452:Src/draw.c    **** }
 1476              		.loc 1 452 1 view .LVU373
 1477 0040 BDE8F081 		pop	{r4, r5, r6, r7, r8, pc}
 1478              	.LVL150:
 1479              	.L148:
 1480              		.loc 1 452 1 view .LVU374
 1481              		.align	2
 1482              	.L147:
 1483 0044 00000000 		.word	backLayer
 1484              		.cfi_endproc
 1485              	.LFE76:
 1487              		.section	.text.drawColor,"ax",%progbits
 1488              		.align	1
 1489              		.global	drawColor
 1490              		.syntax unified
 1491              		.thumb
 1492              		.thumb_func
 1493              		.fpu softvfp
 1495              	drawColor:
 1496              	.LVL151:
 1497              	.LFB77:
 453:Src/draw.c    **** 
 454:Src/draw.c    **** void drawColor(uint8_t *color)
 455:Src/draw.c    **** {
 1498              		.loc 1 455 1 is_stmt 1 view -0
 1499              		.cfi_startproc
 1500              		@ args = 0, pretend = 0, frame = 0
 1501              		@ frame_needed = 0, uses_anonymous_args = 0
 1502              		.loc 1 455 1 is_stmt 0 view .LVU376
 1503 0000 70B5     		push	{r4, r5, r6, lr}
 1504              	.LCFI17:
 1505              		.cfi_def_cfa_offset 16
 1506              		.cfi_offset 4, -16
 1507              		.cfi_offset 5, -12
 1508              		.cfi_offset 6, -8
 1509              		.cfi_offset 14, -4
 1510 0002 0646     		mov	r6, r0
 456:Src/draw.c    ****   for (int y = 0; y <= NCOLS; y++)
 1511              		.loc 1 456 3 is_stmt 1 view .LVU377
 1512              	.LBB47:
 1513              		.loc 1 456 8 view .LVU378
ARM GAS  /var/folders/hv/f19l0kw128sbpybv1h43gz3c0000gn/T//ccojdbgc.s 			page 38


 1514              	.LVL152:
 1515              		.loc 1 456 12 is_stmt 0 view .LVU379
 1516 0004 0025     		movs	r5, #0
 1517              		.loc 1 456 3 view .LVU380
 1518 0006 0FE0     		b	.L150
 1519              	.LVL153:
 1520              	.L151:
 1521              	.LBB48:
 457:Src/draw.c    ****   {
 458:Src/draw.c    ****     for (int x = 0; x <= NCOLS; x++)
 459:Src/draw.c    ****     {
 460:Src/draw.c    ****       setColor(backLayer[x + (y * NCOLS)], color);
 1522              		.loc 1 460 7 is_stmt 1 discriminator 3 view .LVU381
 1523              		.loc 1 460 33 is_stmt 0 discriminator 3 view .LVU382
 1524 0008 05EB4500 		add	r0, r5, r5, lsl #1
 1525 000c C0EB0010 		rsb	r0, r0, r0, lsl #4
 1526              		.loc 1 460 28 discriminator 3 view .LVU383
 1527 0010 2044     		add	r0, r0, r4
 1528              		.loc 1 460 25 discriminator 3 view .LVU384
 1529 0012 00EB4000 		add	r0, r0, r0, lsl #1
 1530              		.loc 1 460 7 discriminator 3 view .LVU385
 1531 0016 3146     		mov	r1, r6
 1532 0018 064B     		ldr	r3, .L156
 1533 001a 1844     		add	r0, r0, r3
 1534 001c FFF7FEFF 		bl	setColor
 1535              	.LVL154:
 458:Src/draw.c    ****     {
 1536              		.loc 1 458 34 discriminator 3 view .LVU386
 1537 0020 0134     		adds	r4, r4, #1
 1538              	.LVL155:
 1539              	.L152:
 458:Src/draw.c    ****     {
 1540              		.loc 1 458 5 discriminator 1 view .LVU387
 1541 0022 2D2C     		cmp	r4, #45
 1542 0024 F0DD     		ble	.L151
 1543              	.LBE48:
 456:Src/draw.c    ****   for (int y = 0; y <= NCOLS; y++)
 1544              		.loc 1 456 32 discriminator 2 view .LVU388
 1545 0026 0135     		adds	r5, r5, #1
 1546              	.LVL156:
 1547              	.L150:
 456:Src/draw.c    ****   for (int y = 0; y <= NCOLS; y++)
 1548              		.loc 1 456 3 discriminator 1 view .LVU389
 1549 0028 2D2D     		cmp	r5, #45
 1550 002a 01DC     		bgt	.L155
 1551              	.LBB49:
 458:Src/draw.c    ****     {
 1552              		.loc 1 458 14 view .LVU390
 1553 002c 0024     		movs	r4, #0
 1554 002e F8E7     		b	.L152
 1555              	.L155:
 1556              	.LBE49:
 1557              	.LBE47:
 461:Src/draw.c    ****     }
 462:Src/draw.c    ****   }
 463:Src/draw.c    **** }
 1558              		.loc 1 463 1 view .LVU391
ARM GAS  /var/folders/hv/f19l0kw128sbpybv1h43gz3c0000gn/T//ccojdbgc.s 			page 39


 1559 0030 70BD     		pop	{r4, r5, r6, pc}
 1560              	.LVL157:
 1561              	.L157:
 1562              		.loc 1 463 1 view .LVU392
 1563 0032 00BF     		.align	2
 1564              	.L156:
 1565 0034 00000000 		.word	backLayer
 1566              		.cfi_endproc
 1567              	.LFE77:
 1569              		.section	.text.getFontLine,"ax",%progbits
 1570              		.align	1
 1571              		.global	getFontLine
 1572              		.syntax unified
 1573              		.thumb
 1574              		.thumb_func
 1575              		.fpu softvfp
 1577              	getFontLine:
 1578              	.LVL158:
 1579              	.LFB80:
 464:Src/draw.c    **** 
 465:Src/draw.c    **** void checkSequence(void)
 466:Src/draw.c    **** {
 467:Src/draw.c    ****   uint8_t arrayLen = ARRAY_LEN(noteSequence);
 468:Src/draw.c    ****   uint8_t cnt = 0;
 469:Src/draw.c    ****   uint8_t blue[3] = {1, 1, 20};
 470:Src/draw.c    ****   for (uint8_t j = 0; j < arrayLen; j++)
 471:Src/draw.c    ****   {
 472:Src/draw.c    ****     uint8_t len = ARRAY_LEN(noteSequence[j].note);
 473:Src/draw.c    ****     for (uint8_t i = 0; i < len; i++)
 474:Src/draw.c    ****     {
 475:Src/draw.c    ****       if (noteBuffer[i].note.symbol == noteSequence[j].note[len - 1 - i].symbol)
 476:Src/draw.c    ****       {
 477:Src/draw.c    ****         cnt++;
 478:Src/draw.c    ****         if (cnt == len)
 479:Src/draw.c    ****         {
 480:Src/draw.c    ****           clearText();
 481:Src/draw.c    ****           setTextColor(noteBuffer[0].color);
 482:Src/draw.c    ****           drawString(noteSequence[j].word, 1, 24, 1, 0);
 483:Src/draw.c    ****           // drawCenter(noteSequence[j].word, 1, 0);
 484:Src/draw.c    ****         }
 485:Src/draw.c    ****       }
 486:Src/draw.c    ****       else
 487:Src/draw.c    ****         break;
 488:Src/draw.c    ****     }
 489:Src/draw.c    ****   }
 490:Src/draw.c    **** }
 491:Src/draw.c    **** 
 492:Src/draw.c    **** void drawNote(void)
 493:Src/draw.c    **** {
 494:Src/draw.c    ****   // uint8_t red[3] = {20, 1, 1};
 495:Src/draw.c    ****   // uint8_t green[3] = {1, 20, 1};
 496:Src/draw.c    ****   // drawStringArray(1, 1, 1, 1);
 497:Src/draw.c    **** 
 498:Src/draw.c    ****   checkSequence();
 499:Src/draw.c    ****   // drawString(noteBuffer[0], 1, 1, 1, 0);
 500:Src/draw.c    ****   // setTextColor(noteBuffer[0].color);
 501:Src/draw.c    ****   // drawColor(noteBuffer[0].color);
ARM GAS  /var/folders/hv/f19l0kw128sbpybv1h43gz3c0000gn/T//ccojdbgc.s 			page 40


 502:Src/draw.c    ****   // drawLetter(note.symbol, 1, 10);
 503:Src/draw.c    **** }
 504:Src/draw.c    **** 
 505:Src/draw.c    **** /* Draw Strings */
 506:Src/draw.c    **** 
 507:Src/draw.c    **** unsigned char getFontLine(unsigned char data, int line_num)
 508:Src/draw.c    **** {
 1580              		.loc 1 508 1 is_stmt 1 view -0
 1581              		.cfi_startproc
 1582              		@ args = 0, pretend = 0, frame = 0
 1583              		@ frame_needed = 0, uses_anonymous_args = 0
 1584              		@ link register save eliminated.
 509:Src/draw.c    ****   const uint8_t index = (data - 32);
 1585              		.loc 1 509 3 view .LVU394
 1586              		.loc 1 509 17 is_stmt 0 view .LVU395
 1587 0000 2038     		subs	r0, r0, #32
 1588              	.LVL159:
 1589              		.loc 1 509 17 view .LVU396
 1590 0002 C0B2     		uxtb	r0, r0
 510:Src/draw.c    ****   unsigned char pixel = 0;
 1591              		.loc 1 510 3 is_stmt 1 view .LVU397
 1592              	.LVL160:
 511:Src/draw.c    ****   if ((font4x6[index][1] & 1) == 1)
 1593              		.loc 1 511 3 view .LVU398
 1594              		.loc 1 511 22 is_stmt 0 view .LVU399
 1595 0004 164B     		ldr	r3, .L171
 1596 0006 03EB4003 		add	r3, r3, r0, lsl #1
 1597 000a 5B78     		ldrb	r3, [r3, #1]	@ zero_extendqisi2
 1598              		.loc 1 511 6 view .LVU400
 1599 000c 13F0010F 		tst	r3, #1
 1600 0010 00D0     		beq	.L159
 512:Src/draw.c    ****     line_num -= 1;
 1601              		.loc 1 512 5 is_stmt 1 view .LVU401
 1602              		.loc 1 512 14 is_stmt 0 view .LVU402
 1603 0012 0139     		subs	r1, r1, #1
 1604              	.LVL161:
 1605              	.L159:
 513:Src/draw.c    ****   if (line_num == 0)
 1606              		.loc 1 513 3 is_stmt 1 view .LVU403
 1607              		.loc 1 513 6 is_stmt 0 view .LVU404
 1608 0014 31B9     		cbnz	r1, .L160
 514:Src/draw.c    ****   {
 515:Src/draw.c    ****     pixel = (font4x6[index][0]) >> 4;
 1609              		.loc 1 515 5 is_stmt 1 view .LVU405
 1610              		.loc 1 515 28 is_stmt 0 view .LVU406
 1611 0016 124B     		ldr	r3, .L171
 1612 0018 13F81000 		ldrb	r0, [r3, r0, lsl #1]	@ zero_extendqisi2
 1613              		.loc 1 515 11 view .LVU407
 1614 001c 0009     		lsrs	r0, r0, #4
 1615              	.LVL162:
 1616              	.L161:
 516:Src/draw.c    ****   }
 517:Src/draw.c    ****   else if (line_num == 1)
 518:Src/draw.c    ****   {
 519:Src/draw.c    ****     pixel = (font4x6[index][0]) >> 1;
 520:Src/draw.c    ****   }
 521:Src/draw.c    ****   else if (line_num == 2)
ARM GAS  /var/folders/hv/f19l0kw128sbpybv1h43gz3c0000gn/T//ccojdbgc.s 			page 41


 522:Src/draw.c    ****   {
 523:Src/draw.c    ****     // Split over 2 bytes
 524:Src/draw.c    ****     return (((font4x6[index][0]) & 0x03) << 2) | (((font4x6[index][1]) & 0x02));
 525:Src/draw.c    ****   }
 526:Src/draw.c    ****   else if (line_num == 3)
 527:Src/draw.c    ****   {
 528:Src/draw.c    ****     pixel = (font4x6[index][1]) >> 4;
 529:Src/draw.c    ****   }
 530:Src/draw.c    ****   else if (line_num == 4)
 531:Src/draw.c    ****   {
 532:Src/draw.c    ****     pixel = (font4x6[index][1]) >> 1;
 533:Src/draw.c    ****   }
 534:Src/draw.c    ****   return pixel & 0xE;
 1617              		.loc 1 534 3 is_stmt 1 view .LVU408
 1618              		.loc 1 534 16 is_stmt 0 view .LVU409
 1619 001e 00F00E00 		and	r0, r0, #14
 1620              	.LVL163:
 535:Src/draw.c    **** }
 1621              		.loc 1 535 1 view .LVU410
 1622 0022 7047     		bx	lr
 1623              	.LVL164:
 1624              	.L160:
 517:Src/draw.c    ****   {
 1625              		.loc 1 517 8 is_stmt 1 view .LVU411
 517:Src/draw.c    ****   {
 1626              		.loc 1 517 11 is_stmt 0 view .LVU412
 1627 0024 0129     		cmp	r1, #1
 1628 0026 07D0     		beq	.L167
 521:Src/draw.c    ****   {
 1629              		.loc 1 521 8 is_stmt 1 view .LVU413
 521:Src/draw.c    ****   {
 1630              		.loc 1 521 11 is_stmt 0 view .LVU414
 1631 0028 0229     		cmp	r1, #2
 1632 002a 0AD0     		beq	.L168
 526:Src/draw.c    ****   {
 1633              		.loc 1 526 8 is_stmt 1 view .LVU415
 526:Src/draw.c    ****   {
 1634              		.loc 1 526 11 is_stmt 0 view .LVU416
 1635 002c 0329     		cmp	r1, #3
 1636 002e 12D0     		beq	.L169
 530:Src/draw.c    ****   {
 1637              		.loc 1 530 8 is_stmt 1 view .LVU417
 530:Src/draw.c    ****   {
 1638              		.loc 1 530 11 is_stmt 0 view .LVU418
 1639 0030 0429     		cmp	r1, #4
 1640 0032 12D0     		beq	.L170
 510:Src/draw.c    ****   if ((font4x6[index][1] & 1) == 1)
 1641              		.loc 1 510 17 view .LVU419
 1642 0034 0020     		movs	r0, #0
 1643 0036 F2E7     		b	.L161
 1644              	.L167:
 519:Src/draw.c    ****   }
 1645              		.loc 1 519 5 is_stmt 1 view .LVU420
 519:Src/draw.c    ****   }
 1646              		.loc 1 519 28 is_stmt 0 view .LVU421
 1647 0038 094B     		ldr	r3, .L171
 1648 003a 13F81000 		ldrb	r0, [r3, r0, lsl #1]	@ zero_extendqisi2
ARM GAS  /var/folders/hv/f19l0kw128sbpybv1h43gz3c0000gn/T//ccojdbgc.s 			page 42


 519:Src/draw.c    ****   }
 1649              		.loc 1 519 11 view .LVU422
 1650 003e 4008     		lsrs	r0, r0, #1
 1651              	.LVL165:
 519:Src/draw.c    ****   }
 1652              		.loc 1 519 11 view .LVU423
 1653 0040 EDE7     		b	.L161
 1654              	.LVL166:
 1655              	.L168:
 524:Src/draw.c    ****   }
 1656              		.loc 1 524 5 is_stmt 1 view .LVU424
 524:Src/draw.c    ****   }
 1657              		.loc 1 524 29 is_stmt 0 view .LVU425
 1658 0042 074A     		ldr	r2, .L171
 1659 0044 12F81000 		ldrb	r0, [r2, r0, lsl #1]	@ zero_extendqisi2
 524:Src/draw.c    ****   }
 1660              		.loc 1 524 42 view .LVU426
 1661 0048 8000     		lsls	r0, r0, #2
 1662 004a 00F00C00 		and	r0, r0, #12
 524:Src/draw.c    ****   }
 1663              		.loc 1 524 72 view .LVU427
 1664 004e 03F00203 		and	r3, r3, #2
 524:Src/draw.c    ****   }
 1665              		.loc 1 524 48 view .LVU428
 1666 0052 1843     		orrs	r0, r0, r3
 1667 0054 7047     		bx	lr
 1668              	.L169:
 528:Src/draw.c    ****   }
 1669              		.loc 1 528 5 is_stmt 1 view .LVU429
 528:Src/draw.c    ****   }
 1670              		.loc 1 528 11 is_stmt 0 view .LVU430
 1671 0056 1809     		lsrs	r0, r3, #4
 1672              	.LVL167:
 528:Src/draw.c    ****   }
 1673              		.loc 1 528 11 view .LVU431
 1674 0058 E1E7     		b	.L161
 1675              	.LVL168:
 1676              	.L170:
 532:Src/draw.c    ****   }
 1677              		.loc 1 532 5 is_stmt 1 view .LVU432
 532:Src/draw.c    ****   }
 1678              		.loc 1 532 11 is_stmt 0 view .LVU433
 1679 005a 5808     		lsrs	r0, r3, #1
 1680              	.LVL169:
 532:Src/draw.c    ****   }
 1681              		.loc 1 532 11 view .LVU434
 1682 005c DFE7     		b	.L161
 1683              	.L172:
 1684 005e 00BF     		.align	2
 1685              	.L171:
 1686 0060 00000000 		.word	.LANCHOR1
 1687              		.cfi_endproc
 1688              	.LFE80:
 1690              		.section	.text.drawLetter,"ax",%progbits
 1691              		.align	1
 1692              		.global	drawLetter
 1693              		.syntax unified
ARM GAS  /var/folders/hv/f19l0kw128sbpybv1h43gz3c0000gn/T//ccojdbgc.s 			page 43


 1694              		.thumb
 1695              		.thumb_func
 1696              		.fpu softvfp
 1698              	drawLetter:
 1699              	.LVL170:
 1700              	.LFB81:
 536:Src/draw.c    **** 
 537:Src/draw.c    **** void drawLetter(char letter, uint8_t px, uint8_t py)
 538:Src/draw.c    **** {
 1701              		.loc 1 538 1 is_stmt 1 view -0
 1702              		.cfi_startproc
 1703              		@ args = 0, pretend = 0, frame = 0
 1704              		@ frame_needed = 0, uses_anonymous_args = 0
 1705              		.loc 1 538 1 is_stmt 0 view .LVU436
 1706 0000 2DE9F047 		push	{r4, r5, r6, r7, r8, r9, r10, lr}
 1707              	.LCFI18:
 1708              		.cfi_def_cfa_offset 32
 1709              		.cfi_offset 4, -32
 1710              		.cfi_offset 5, -28
 1711              		.cfi_offset 6, -24
 1712              		.cfi_offset 7, -20
 1713              		.cfi_offset 8, -16
 1714              		.cfi_offset 9, -12
 1715              		.cfi_offset 10, -8
 1716              		.cfi_offset 14, -4
 1717 0004 8146     		mov	r9, r0
 1718 0006 0C46     		mov	r4, r1
 1719 0008 9046     		mov	r8, r2
 539:Src/draw.c    ****   uint8_t fill;
 1720              		.loc 1 539 3 is_stmt 1 view .LVU437
 540:Src/draw.c    ****   for (uint8_t y = py, l = 0; y <= (py + 5); y++, l++)
 1721              		.loc 1 540 3 view .LVU438
 1722              	.LBB50:
 1723              		.loc 1 540 8 view .LVU439
 1724              	.LVL171:
 1725              		.loc 1 540 16 is_stmt 0 view .LVU440
 1726 000a 1646     		mov	r6, r2
 1727              		.loc 1 540 24 view .LVU441
 1728 000c 0027     		movs	r7, #0
 1729              		.loc 1 540 3 view .LVU442
 1730 000e 33E0     		b	.L174
 1731              	.LVL172:
 1732              	.L178:
 1733              	.LBB51:
 541:Src/draw.c    ****   {
 542:Src/draw.c    ****     if (y > NCOLSL)
 543:Src/draw.c    ****       break;
 544:Src/draw.c    ****     fill = getFontLine(letter, l);
 545:Src/draw.c    ****     for (uint8_t x = px, aX = 3; x <= (px + 3); x++, aX--)
 546:Src/draw.c    ****     {
 547:Src/draw.c    ****       if (fill & (1u << aX))
 548:Src/draw.c    ****       {
 549:Src/draw.c    **** #if COLOR_1BIT
 550:Src/draw.c    ****         BIT_SET(textLayer[DIV_8(x + (y * NCOLS))], REST_8(x + (y * NCOLS)));
 1734              		.loc 1 550 9 view .LVU443
 1735 0010 4FEAEC0C 		asr	ip, ip, #3
 1736 0014 D3F1000E 		rsbs	lr, r3, #0
ARM GAS  /var/folders/hv/f19l0kw128sbpybv1h43gz3c0000gn/T//ccojdbgc.s 			page 44


 1737 0018 03F00703 		and	r3, r3, #7
 1738 001c 0EF0070E 		and	lr, lr, #7
 1739 0020 58BF     		it	pl
 1740 0022 CEF10003 		rsbpl	r3, lr, #0
 1741 0026 4FF0010E 		mov	lr, #1
 1742 002a 0EFA03FE 		lsl	lr, lr, r3
 1743 002e DFF868A0 		ldr	r10, .L183
 1744 0032 1AF80C30 		ldrb	r3, [r10, ip]	@ zero_extendqisi2
 1745 0036 43EA0E03 		orr	r3, r3, lr
 1746 003a 0AF80C30 		strb	r3, [r10, ip]
 1747              	.L177:
 545:Src/draw.c    ****     {
 1748              		.loc 1 545 50 discriminator 2 view .LVU444
 1749 003e 0132     		adds	r2, r2, #1
 1750              	.LVL173:
 545:Src/draw.c    ****     {
 1751              		.loc 1 545 50 discriminator 2 view .LVU445
 1752 0040 D2B2     		uxtb	r2, r2
 1753              	.LVL174:
 545:Src/draw.c    ****     {
 1754              		.loc 1 545 56 discriminator 2 view .LVU446
 1755 0042 0139     		subs	r1, r1, #1
 1756              	.LVL175:
 545:Src/draw.c    ****     {
 1757              		.loc 1 545 56 discriminator 2 view .LVU447
 1758 0044 C9B2     		uxtb	r1, r1
 1759              	.LVL176:
 1760              	.L176:
 545:Src/draw.c    ****     {
 1761              		.loc 1 545 36 discriminator 1 view .LVU448
 1762 0046 9646     		mov	lr, r2
 545:Src/draw.c    ****     {
 1763              		.loc 1 545 43 discriminator 1 view .LVU449
 1764 0048 04F1030C 		add	ip, r4, #3
 545:Src/draw.c    ****     {
 1765              		.loc 1 545 5 discriminator 1 view .LVU450
 1766 004c 6245     		cmp	r2, ip
 1767 004e 0FDC     		bgt	.L182
 547:Src/draw.c    ****       {
 1768              		.loc 1 547 7 is_stmt 1 view .LVU451
 547:Src/draw.c    ****       {
 1769              		.loc 1 547 11 is_stmt 0 view .LVU452
 1770 0050 20FA01FC 		lsr	ip, r0, r1
 547:Src/draw.c    ****       {
 1771              		.loc 1 547 10 view .LVU453
 1772 0054 1CF0010F 		tst	ip, #1
 1773 0058 F1D0     		beq	.L177
 1774              		.loc 1 550 9 is_stmt 1 view .LVU454
 1775 005a 05EB4503 		add	r3, r5, r5, lsl #1
 1776 005e C3EB0313 		rsb	r3, r3, r3, lsl #4
 1777 0062 7344     		add	r3, r3, lr
 1778 0064 9C46     		mov	ip, r3
 1779 0066 002B     		cmp	r3, #0
 1780 0068 D2DA     		bge	.L178
 1781 006a 03F1070C 		add	ip, r3, #7
 1782 006e CFE7     		b	.L178
 1783              	.L182:
ARM GAS  /var/folders/hv/f19l0kw128sbpybv1h43gz3c0000gn/T//ccojdbgc.s 			page 45


 1784              	.LBE51:
 540:Src/draw.c    ****   {
 1785              		.loc 1 540 47 is_stmt 0 discriminator 2 view .LVU455
 1786 0070 0136     		adds	r6, r6, #1
 1787              	.LVL177:
 540:Src/draw.c    ****   {
 1788              		.loc 1 540 47 discriminator 2 view .LVU456
 1789 0072 F6B2     		uxtb	r6, r6
 1790              	.LVL178:
 540:Src/draw.c    ****   {
 1791              		.loc 1 540 52 discriminator 2 view .LVU457
 1792 0074 0137     		adds	r7, r7, #1
 1793              	.LVL179:
 540:Src/draw.c    ****   {
 1794              		.loc 1 540 52 discriminator 2 view .LVU458
 1795 0076 FFB2     		uxtb	r7, r7
 1796              	.LVL180:
 1797              	.L174:
 540:Src/draw.c    ****   {
 1798              		.loc 1 540 33 discriminator 1 view .LVU459
 1799 0078 3546     		mov	r5, r6
 540:Src/draw.c    ****   {
 1800              		.loc 1 540 40 discriminator 1 view .LVU460
 1801 007a 08F10503 		add	r3, r8, #5
 540:Src/draw.c    ****   {
 1802              		.loc 1 540 3 discriminator 1 view .LVU461
 1803 007e 9E42     		cmp	r6, r3
 1804 0080 08DC     		bgt	.L173
 542:Src/draw.c    ****       break;
 1805              		.loc 1 542 5 is_stmt 1 view .LVU462
 542:Src/draw.c    ****       break;
 1806              		.loc 1 542 8 is_stmt 0 view .LVU463
 1807 0082 2C2E     		cmp	r6, #44
 1808 0084 06D8     		bhi	.L173
 544:Src/draw.c    ****     for (uint8_t x = px, aX = 3; x <= (px + 3); x++, aX--)
 1809              		.loc 1 544 5 is_stmt 1 view .LVU464
 544:Src/draw.c    ****     for (uint8_t x = px, aX = 3; x <= (px + 3); x++, aX--)
 1810              		.loc 1 544 12 is_stmt 0 view .LVU465
 1811 0086 3946     		mov	r1, r7
 1812 0088 4846     		mov	r0, r9
 1813 008a FFF7FEFF 		bl	getFontLine
 1814              	.LVL181:
 545:Src/draw.c    ****     {
 1815              		.loc 1 545 5 is_stmt 1 view .LVU466
 1816              	.LBB52:
 545:Src/draw.c    ****     {
 1817              		.loc 1 545 10 view .LVU467
 545:Src/draw.c    ****     {
 1818              		.loc 1 545 18 is_stmt 0 view .LVU468
 1819 008e 2246     		mov	r2, r4
 545:Src/draw.c    ****     {
 1820              		.loc 1 545 26 view .LVU469
 1821 0090 0321     		movs	r1, #3
 545:Src/draw.c    ****     {
 1822              		.loc 1 545 5 view .LVU470
 1823 0092 D8E7     		b	.L176
 1824              	.LVL182:
ARM GAS  /var/folders/hv/f19l0kw128sbpybv1h43gz3c0000gn/T//ccojdbgc.s 			page 46


 1825              	.L173:
 545:Src/draw.c    ****     {
 1826              		.loc 1 545 5 view .LVU471
 1827              	.LBE52:
 1828              	.LBE50:
 551:Src/draw.c    **** #else
 552:Src/draw.c    ****         setColor(textLayer[x + (y * NCOLS)], textColor);
 553:Src/draw.c    **** #endif
 554:Src/draw.c    ****       }
 555:Src/draw.c    ****     }
 556:Src/draw.c    ****   }
 557:Src/draw.c    **** }
 1829              		.loc 1 557 1 view .LVU472
 1830 0094 BDE8F087 		pop	{r4, r5, r6, r7, r8, r9, r10, pc}
 1831              	.LVL183:
 1832              	.L184:
 1833              		.loc 1 557 1 view .LVU473
 1834              		.align	2
 1835              	.L183:
 1836 0098 00000000 		.word	textLayer
 1837              		.cfi_endproc
 1838              	.LFE81:
 1840              		.section	.text.drawString,"ax",%progbits
 1841              		.align	1
 1842              		.global	drawString
 1843              		.syntax unified
 1844              		.thumb
 1845              		.thumb_func
 1846              		.fpu softvfp
 1848              	drawString:
 1849              	.LVL184:
 1850              	.LFB83:
 558:Src/draw.c    **** 
 559:Src/draw.c    **** void drawCenter(char *frase, uint8_t spacex, uint8_t spacey)
 560:Src/draw.c    **** {
 561:Src/draw.c    ****   uint8_t len = strlen(frase) * (3 + spacex);
 562:Src/draw.c    ****   int8_t px = (NCOLS - len) / 2;
 563:Src/draw.c    ****   len = (5 + spacey);
 564:Src/draw.c    ****   int8_t py = (NCOLS - len) / 2;
 565:Src/draw.c    ****   px = px < 0 ? 0 : px;
 566:Src/draw.c    ****   drawString(frase, px, py, spacex, spacey);
 567:Src/draw.c    **** }
 568:Src/draw.c    **** 
 569:Src/draw.c    **** void drawString(char *frase, uint8_t px, uint8_t py, uint8_t spacex, uint8_t spacey)
 570:Src/draw.c    **** {
 1851              		.loc 1 570 1 is_stmt 1 view -0
 1852              		.cfi_startproc
 1853              		@ args = 4, pretend = 0, frame = 0
 1854              		@ frame_needed = 0, uses_anonymous_args = 0
 1855              		.loc 1 570 1 is_stmt 0 view .LVU475
 1856 0000 2DE9F84F 		push	{r3, r4, r5, r6, r7, r8, r9, r10, fp, lr}
 1857              	.LCFI19:
 1858              		.cfi_def_cfa_offset 40
 1859              		.cfi_offset 3, -40
 1860              		.cfi_offset 4, -36
 1861              		.cfi_offset 5, -32
 1862              		.cfi_offset 6, -28
ARM GAS  /var/folders/hv/f19l0kw128sbpybv1h43gz3c0000gn/T//ccojdbgc.s 			page 47


 1863              		.cfi_offset 7, -24
 1864              		.cfi_offset 8, -20
 1865              		.cfi_offset 9, -16
 1866              		.cfi_offset 10, -12
 1867              		.cfi_offset 11, -8
 1868              		.cfi_offset 14, -4
 1869 0004 0746     		mov	r7, r0
 1870 0006 8846     		mov	r8, r1
 1871 0008 9346     		mov	fp, r2
 1872 000a 9A46     		mov	r10, r3
 1873 000c 9DF82890 		ldrb	r9, [sp, #40]	@ zero_extendqisi2
 571:Src/draw.c    ****   uint8_t posX, incX = 0, posY, nLine = 0;
 1874              		.loc 1 571 3 is_stmt 1 view .LVU476
 1875              	.LVL185:
 572:Src/draw.c    ****   for (size_t i = 0; i < strlen(frase); i++)
 1876              		.loc 1 572 3 view .LVU477
 1877              	.LBB53:
 1878              		.loc 1 572 8 view .LVU478
 1879              		.loc 1 572 15 is_stmt 0 view .LVU479
 1880 0010 0025     		movs	r5, #0
 1881              	.LBE53:
 571:Src/draw.c    ****   uint8_t posX, incX = 0, posY, nLine = 0;
 1882              		.loc 1 571 33 view .LVU480
 1883 0012 2E46     		mov	r6, r5
 571:Src/draw.c    ****   uint8_t posX, incX = 0, posY, nLine = 0;
 1884              		.loc 1 571 17 view .LVU481
 1885 0014 2C46     		mov	r4, r5
 1886              	.LBB54:
 1887              		.loc 1 572 3 view .LVU482
 1888 0016 0CE0     		b	.L186
 1889              	.LVL186:
 1890              	.L187:
 573:Src/draw.c    ****   {
 574:Src/draw.c    ****     // posX = (char)frase[i] == (char)32 ? (i * 3) + px - 1 : (i * (3 + spacex)) + px;
 575:Src/draw.c    ****     posX = incX * (3 + spacex) + px;
 576:Src/draw.c    ****     if (posX + ((3 + spacex)) > NCOLS - 2)
 577:Src/draw.c    ****     {
 578:Src/draw.c    ****       posX = px;
 579:Src/draw.c    ****       nLine++;
 580:Src/draw.c    ****       incX = 0;
 581:Src/draw.c    ****     }
 582:Src/draw.c    ****     posY = nLine * (5 + spacey) + py;
 1891              		.loc 1 582 5 is_stmt 1 discriminator 2 view .LVU483
 1892              		.loc 1 582 33 is_stmt 0 discriminator 2 view .LVU484
 1893 0018 09F10502 		add	r2, r9, #5
 1894 001c 02FB06F2 		mul	r2, r2, r6
 1895 0020 D2B2     		uxtb	r2, r2
 1896              		.loc 1 582 10 discriminator 2 view .LVU485
 1897 0022 5A44     		add	r2, r2, fp
 1898              	.LVL187:
 583:Src/draw.c    ****     drawLetter(frase[i], posX, posY);
 1899              		.loc 1 583 5 is_stmt 1 discriminator 2 view .LVU486
 1900 0024 D2B2     		uxtb	r2, r2
 1901              		.loc 1 583 5 is_stmt 0 discriminator 2 view .LVU487
 1902 0026 785D     		ldrb	r0, [r7, r5]	@ zero_extendqisi2
 1903 0028 FFF7FEFF 		bl	drawLetter
 1904              	.LVL188:
ARM GAS  /var/folders/hv/f19l0kw128sbpybv1h43gz3c0000gn/T//ccojdbgc.s 			page 48


 584:Src/draw.c    ****     // posX = (posI - (nLine * (NCOLS - 3))) + 1;
 585:Src/draw.c    ****     incX++;
 1905              		.loc 1 585 5 is_stmt 1 discriminator 2 view .LVU488
 1906              		.loc 1 585 9 is_stmt 0 discriminator 2 view .LVU489
 1907 002c 0134     		adds	r4, r4, #1
 1908              	.LVL189:
 1909              		.loc 1 585 9 discriminator 2 view .LVU490
 1910 002e E4B2     		uxtb	r4, r4
 1911              	.LVL190:
 572:Src/draw.c    ****   {
 1912              		.loc 1 572 42 discriminator 2 view .LVU491
 1913 0030 0135     		adds	r5, r5, #1
 1914              	.LVL191:
 1915              	.L186:
 572:Src/draw.c    ****   {
 1916              		.loc 1 572 26 discriminator 1 view .LVU492
 1917 0032 3846     		mov	r0, r7
 1918 0034 FFF7FEFF 		bl	strlen
 1919              	.LVL192:
 572:Src/draw.c    ****   {
 1920              		.loc 1 572 3 discriminator 1 view .LVU493
 1921 0038 A842     		cmp	r0, r5
 1922 003a 0ED9     		bls	.L190
 575:Src/draw.c    ****     if (posX + ((3 + spacex)) > NCOLS - 2)
 1923              		.loc 1 575 5 is_stmt 1 view .LVU494
 575:Src/draw.c    ****     if (posX + ((3 + spacex)) > NCOLS - 2)
 1924              		.loc 1 575 32 is_stmt 0 view .LVU495
 1925 003c 0AF10303 		add	r3, r10, #3
 1926 0040 03FB04F1 		mul	r1, r3, r4
 1927 0044 C9B2     		uxtb	r1, r1
 575:Src/draw.c    ****     if (posX + ((3 + spacex)) > NCOLS - 2)
 1928              		.loc 1 575 10 view .LVU496
 1929 0046 4144     		add	r1, r1, r8
 1930 0048 C9B2     		uxtb	r1, r1
 1931              	.LVL193:
 576:Src/draw.c    ****     {
 1932              		.loc 1 576 5 is_stmt 1 view .LVU497
 576:Src/draw.c    ****     {
 1933              		.loc 1 576 14 is_stmt 0 view .LVU498
 1934 004a 0B44     		add	r3, r3, r1
 576:Src/draw.c    ****     {
 1935              		.loc 1 576 8 view .LVU499
 1936 004c 2B2B     		cmp	r3, #43
 1937 004e E3DD     		ble	.L187
 578:Src/draw.c    ****       nLine++;
 1938              		.loc 1 578 7 is_stmt 1 view .LVU500
 1939              	.LVL194:
 579:Src/draw.c    ****       incX = 0;
 1940              		.loc 1 579 7 view .LVU501
 579:Src/draw.c    ****       incX = 0;
 1941              		.loc 1 579 12 is_stmt 0 view .LVU502
 1942 0050 0136     		adds	r6, r6, #1
 1943              	.LVL195:
 579:Src/draw.c    ****       incX = 0;
 1944              		.loc 1 579 12 view .LVU503
 1945 0052 F6B2     		uxtb	r6, r6
 1946              	.LVL196:
ARM GAS  /var/folders/hv/f19l0kw128sbpybv1h43gz3c0000gn/T//ccojdbgc.s 			page 49


 580:Src/draw.c    ****     }
 1947              		.loc 1 580 7 is_stmt 1 view .LVU504
 578:Src/draw.c    ****       nLine++;
 1948              		.loc 1 578 12 is_stmt 0 view .LVU505
 1949 0054 4146     		mov	r1, r8
 580:Src/draw.c    ****     }
 1950              		.loc 1 580 12 view .LVU506
 1951 0056 0024     		movs	r4, #0
 1952 0058 DEE7     		b	.L187
 1953              	.LVL197:
 1954              	.L190:
 580:Src/draw.c    ****     }
 1955              		.loc 1 580 12 view .LVU507
 1956              	.LBE54:
 586:Src/draw.c    ****   }
 587:Src/draw.c    **** }
 1957              		.loc 1 587 1 view .LVU508
 1958 005a BDE8F88F 		pop	{r3, r4, r5, r6, r7, r8, r9, r10, fp, pc}
 1959              		.loc 1 587 1 view .LVU509
 1960              		.cfi_endproc
 1961              	.LFE83:
 1963              		.section	.text.checkSequence,"ax",%progbits
 1964              		.align	1
 1965              		.global	checkSequence
 1966              		.syntax unified
 1967              		.thumb
 1968              		.thumb_func
 1969              		.fpu softvfp
 1971              	checkSequence:
 1972              	.LFB78:
 466:Src/draw.c    ****   uint8_t arrayLen = ARRAY_LEN(noteSequence);
 1973              		.loc 1 466 1 is_stmt 1 view -0
 1974              		.cfi_startproc
 1975              		@ args = 0, pretend = 0, frame = 0
 1976              		@ frame_needed = 0, uses_anonymous_args = 0
 1977 0000 F0B5     		push	{r4, r5, r6, r7, lr}
 1978              	.LCFI20:
 1979              		.cfi_def_cfa_offset 20
 1980              		.cfi_offset 4, -20
 1981              		.cfi_offset 5, -16
 1982              		.cfi_offset 6, -12
 1983              		.cfi_offset 7, -8
 1984              		.cfi_offset 14, -4
 1985 0002 83B0     		sub	sp, sp, #12
 1986              	.LCFI21:
 1987              		.cfi_def_cfa_offset 32
 467:Src/draw.c    ****   uint8_t cnt = 0;
 1988              		.loc 1 467 3 view .LVU511
 1989              	.LVL198:
 468:Src/draw.c    ****   uint8_t blue[3] = {1, 1, 20};
 1990              		.loc 1 468 3 view .LVU512
 469:Src/draw.c    ****   for (uint8_t j = 0; j < arrayLen; j++)
 1991              		.loc 1 469 3 view .LVU513
 470:Src/draw.c    ****   {
 1992              		.loc 1 470 3 view .LVU514
 1993              	.LBB55:
 470:Src/draw.c    ****   {
ARM GAS  /var/folders/hv/f19l0kw128sbpybv1h43gz3c0000gn/T//ccojdbgc.s 			page 50


 1994              		.loc 1 470 8 view .LVU515
 470:Src/draw.c    ****   {
 1995              		.loc 1 470 16 is_stmt 0 view .LVU516
 1996 0004 0025     		movs	r5, #0
 1997              	.LBE55:
 468:Src/draw.c    ****   uint8_t blue[3] = {1, 1, 20};
 1998              		.loc 1 468 11 view .LVU517
 1999 0006 2E46     		mov	r6, r5
 2000              	.LBB60:
 470:Src/draw.c    ****   {
 2001              		.loc 1 470 3 view .LVU518
 2002 0008 30E0     		b	.L192
 2003              	.LVL199:
 2004              	.L199:
 2005              	.LBB56:
 2006              	.LBB57:
 480:Src/draw.c    ****           setTextColor(noteBuffer[0].color);
 2007              		.loc 1 480 11 is_stmt 1 view .LVU519
 2008 000a FFF7FEFF 		bl	clearText
 2009              	.LVL200:
 481:Src/draw.c    ****           drawString(noteSequence[j].word, 1, 24, 1, 0);
 2010              		.loc 1 481 11 view .LVU520
 2011 000e 1A48     		ldr	r0, .L201
 2012 0010 FFF7FEFF 		bl	setTextColor
 2013              	.LVL201:
 482:Src/draw.c    ****           // drawCenter(noteSequence[j].word, 1, 0);
 2014              		.loc 1 482 11 view .LVU521
 482:Src/draw.c    ****           // drawCenter(noteSequence[j].word, 1, 0);
 2015              		.loc 1 482 37 is_stmt 0 view .LVU522
 2016 0014 05EBC500 		add	r0, r5, r5, lsl #3
 2017 0018 05EB4000 		add	r0, r5, r0, lsl #1
 2018 001c 0830     		adds	r0, r0, #8
 2019 001e 174F     		ldr	r7, .L201+4
 2020 0020 3844     		add	r0, r0, r7
 482:Src/draw.c    ****           // drawCenter(noteSequence[j].word, 1, 0);
 2021              		.loc 1 482 11 view .LVU523
 2022 0022 0023     		movs	r3, #0
 2023 0024 0093     		str	r3, [sp]
 2024 0026 0123     		movs	r3, #1
 2025 0028 1822     		movs	r2, #24
 2026 002a 1946     		mov	r1, r3
 2027 002c 1844     		add	r0, r0, r3
 2028 002e FFF7FEFF 		bl	drawString
 2029              	.LVL202:
 2030              	.L194:
 473:Src/draw.c    ****     {
 2031              		.loc 1 473 35 discriminator 2 view .LVU524
 2032 0032 0134     		adds	r4, r4, #1
 2033              	.LVL203:
 473:Src/draw.c    ****     {
 2034              		.loc 1 473 35 discriminator 2 view .LVU525
 2035 0034 E4B2     		uxtb	r4, r4
 2036              	.LVL204:
 2037              	.L196:
 473:Src/draw.c    ****     {
 2038              		.loc 1 473 5 discriminator 1 view .LVU526
 2039 0036 022C     		cmp	r4, #2
ARM GAS  /var/folders/hv/f19l0kw128sbpybv1h43gz3c0000gn/T//ccojdbgc.s 			page 51


 2040 0038 16D8     		bhi	.L193
 475:Src/draw.c    ****       {
 2041              		.loc 1 475 7 is_stmt 1 view .LVU527
 475:Src/draw.c    ****       {
 2042              		.loc 1 475 29 is_stmt 0 view .LVU528
 2043 003a 04EB4402 		add	r2, r4, r4, lsl #1
 2044 003e 5300     		lsls	r3, r2, #1
 2045 0040 0F4A     		ldr	r2, .L201+8
 2046 0042 D15C     		ldrb	r1, [r2, r3]	@ zero_extendqisi2
 475:Src/draw.c    ****       {
 2047              		.loc 1 475 69 view .LVU529
 2048 0044 C4F10203 		rsb	r3, r4, #2
 475:Src/draw.c    ****       {
 2049              		.loc 1 475 73 view .LVU530
 2050 0048 03EB4303 		add	r3, r3, r3, lsl #1
 2051 004c 05EBC502 		add	r2, r5, r5, lsl #3
 2052 0050 05EB4202 		add	r2, r5, r2, lsl #1
 2053 0054 1344     		add	r3, r3, r2
 2054 0056 094A     		ldr	r2, .L201+4
 2055 0058 D35C     		ldrb	r3, [r2, r3]	@ zero_extendqisi2
 475:Src/draw.c    ****       {
 2056              		.loc 1 475 10 view .LVU531
 2057 005a 9942     		cmp	r1, r3
 2058 005c 04D1     		bne	.L193
 477:Src/draw.c    ****         if (cnt == len)
 2059              		.loc 1 477 9 is_stmt 1 view .LVU532
 477:Src/draw.c    ****         if (cnt == len)
 2060              		.loc 1 477 12 is_stmt 0 view .LVU533
 2061 005e 0136     		adds	r6, r6, #1
 2062              	.LVL205:
 477:Src/draw.c    ****         if (cnt == len)
 2063              		.loc 1 477 12 view .LVU534
 2064 0060 F6B2     		uxtb	r6, r6
 2065              	.LVL206:
 478:Src/draw.c    ****         {
 2066              		.loc 1 478 9 is_stmt 1 view .LVU535
 478:Src/draw.c    ****         {
 2067              		.loc 1 478 12 is_stmt 0 view .LVU536
 2068 0062 032E     		cmp	r6, #3
 2069 0064 E5D1     		bne	.L194
 2070 0066 D0E7     		b	.L199
 2071              	.L193:
 478:Src/draw.c    ****         {
 2072              		.loc 1 478 12 view .LVU537
 2073              	.LBE57:
 2074              	.LBE56:
 470:Src/draw.c    ****   {
 2075              		.loc 1 470 38 discriminator 2 view .LVU538
 2076 0068 0135     		adds	r5, r5, #1
 2077              	.LVL207:
 470:Src/draw.c    ****   {
 2078              		.loc 1 470 38 discriminator 2 view .LVU539
 2079 006a EDB2     		uxtb	r5, r5
 2080              	.LVL208:
 2081              	.L192:
 470:Src/draw.c    ****   {
 2082              		.loc 1 470 3 discriminator 1 view .LVU540
ARM GAS  /var/folders/hv/f19l0kw128sbpybv1h43gz3c0000gn/T//ccojdbgc.s 			page 52


 2083 006c 052D     		cmp	r5, #5
 2084 006e 01D8     		bhi	.L200
 2085              	.LBB59:
 2086              	.LBB58:
 473:Src/draw.c    ****     {
 2087              		.loc 1 473 18 view .LVU541
 2088 0070 0024     		movs	r4, #0
 2089 0072 E0E7     		b	.L196
 2090              	.L200:
 2091              	.LBE58:
 2092              	.LBE59:
 2093              	.LBE60:
 490:Src/draw.c    **** 
 2094              		.loc 1 490 1 view .LVU542
 2095 0074 03B0     		add	sp, sp, #12
 2096              	.LCFI22:
 2097              		.cfi_def_cfa_offset 20
 2098              		@ sp needed
 2099 0076 F0BD     		pop	{r4, r5, r6, r7, pc}
 2100              	.LVL209:
 2101              	.L202:
 490:Src/draw.c    **** 
 2102              		.loc 1 490 1 view .LVU543
 2103              		.align	2
 2104              	.L201:
 2105 0078 03000000 		.word	noteBuffer+3
 2106 007c 00000000 		.word	noteSequence
 2107 0080 00000000 		.word	noteBuffer
 2108              		.cfi_endproc
 2109              	.LFE78:
 2111              		.section	.text.drawNote,"ax",%progbits
 2112              		.align	1
 2113              		.global	drawNote
 2114              		.syntax unified
 2115              		.thumb
 2116              		.thumb_func
 2117              		.fpu softvfp
 2119              	drawNote:
 2120              	.LFB79:
 493:Src/draw.c    ****   // uint8_t red[3] = {20, 1, 1};
 2121              		.loc 1 493 1 is_stmt 1 view -0
 2122              		.cfi_startproc
 2123              		@ args = 0, pretend = 0, frame = 0
 2124              		@ frame_needed = 0, uses_anonymous_args = 0
 2125 0000 08B5     		push	{r3, lr}
 2126              	.LCFI23:
 2127              		.cfi_def_cfa_offset 8
 2128              		.cfi_offset 3, -8
 2129              		.cfi_offset 14, -4
 498:Src/draw.c    ****   // drawString(noteBuffer[0], 1, 1, 1, 0);
 2130              		.loc 1 498 3 view .LVU545
 2131 0002 FFF7FEFF 		bl	checkSequence
 2132              	.LVL210:
 503:Src/draw.c    **** 
 2133              		.loc 1 503 1 is_stmt 0 view .LVU546
 2134 0006 08BD     		pop	{r3, pc}
 2135              		.cfi_endproc
ARM GAS  /var/folders/hv/f19l0kw128sbpybv1h43gz3c0000gn/T//ccojdbgc.s 			page 53


 2136              	.LFE79:
 2138              		.section	.text.drawCenter,"ax",%progbits
 2139              		.align	1
 2140              		.global	drawCenter
 2141              		.syntax unified
 2142              		.thumb
 2143              		.thumb_func
 2144              		.fpu softvfp
 2146              	drawCenter:
 2147              	.LVL211:
 2148              	.LFB82:
 560:Src/draw.c    ****   uint8_t len = strlen(frase) * (3 + spacex);
 2149              		.loc 1 560 1 is_stmt 1 view -0
 2150              		.cfi_startproc
 2151              		@ args = 0, pretend = 0, frame = 0
 2152              		@ frame_needed = 0, uses_anonymous_args = 0
 560:Src/draw.c    ****   uint8_t len = strlen(frase) * (3 + spacex);
 2153              		.loc 1 560 1 is_stmt 0 view .LVU548
 2154 0000 70B5     		push	{r4, r5, r6, lr}
 2155              	.LCFI24:
 2156              		.cfi_def_cfa_offset 16
 2157              		.cfi_offset 4, -16
 2158              		.cfi_offset 5, -12
 2159              		.cfi_offset 6, -8
 2160              		.cfi_offset 14, -4
 2161 0002 82B0     		sub	sp, sp, #8
 2162              	.LCFI25:
 2163              		.cfi_def_cfa_offset 24
 2164 0004 0646     		mov	r6, r0
 2165 0006 0C46     		mov	r4, r1
 2166 0008 1546     		mov	r5, r2
 561:Src/draw.c    ****   int8_t px = (NCOLS - len) / 2;
 2167              		.loc 1 561 3 is_stmt 1 view .LVU549
 561:Src/draw.c    ****   int8_t px = (NCOLS - len) / 2;
 2168              		.loc 1 561 17 is_stmt 0 view .LVU550
 2169 000a FFF7FEFF 		bl	strlen
 2170              	.LVL212:
 561:Src/draw.c    ****   int8_t px = (NCOLS - len) / 2;
 2171              		.loc 1 561 11 view .LVU551
 2172 000e E31C     		adds	r3, r4, #3
 2173 0010 03FB00F0 		mul	r0, r3, r0
 2174 0014 C0B2     		uxtb	r0, r0
 2175              	.LVL213:
 562:Src/draw.c    ****   len = (5 + spacey);
 2176              		.loc 1 562 3 is_stmt 1 view .LVU552
 562:Src/draw.c    ****   len = (5 + spacey);
 2177              		.loc 1 562 22 is_stmt 0 view .LVU553
 2178 0016 C0F12D00 		rsb	r0, r0, #45
 2179              	.LVL214:
 562:Src/draw.c    ****   len = (5 + spacey);
 2180              		.loc 1 562 29 view .LVU554
 2181 001a 00EBD071 		add	r1, r0, r0, lsr #31
 562:Src/draw.c    ****   len = (5 + spacey);
 2182              		.loc 1 562 10 view .LVU555
 2183 001e 41F34701 		sbfx	r1, r1, #1, #8
 2184              	.LVL215:
 563:Src/draw.c    ****   int8_t py = (NCOLS - len) / 2;
ARM GAS  /var/folders/hv/f19l0kw128sbpybv1h43gz3c0000gn/T//ccojdbgc.s 			page 54


 2185              		.loc 1 563 3 is_stmt 1 view .LVU556
 563:Src/draw.c    ****   int8_t py = (NCOLS - len) / 2;
 2186              		.loc 1 563 7 is_stmt 0 view .LVU557
 2187 0022 6A1D     		adds	r2, r5, #5
 2188 0024 D2B2     		uxtb	r2, r2
 2189              	.LVL216:
 564:Src/draw.c    ****   px = px < 0 ? 0 : px;
 2190              		.loc 1 564 3 is_stmt 1 view .LVU558
 564:Src/draw.c    ****   px = px < 0 ? 0 : px;
 2191              		.loc 1 564 22 is_stmt 0 view .LVU559
 2192 0026 C2F12D02 		rsb	r2, r2, #45
 2193              	.LVL217:
 564:Src/draw.c    ****   px = px < 0 ? 0 : px;
 2194              		.loc 1 564 29 view .LVU560
 2195 002a 02EBD272 		add	r2, r2, r2, lsr #31
 2196              	.LVL218:
 565:Src/draw.c    ****   drawString(frase, px, py, spacex, spacey);
 2197              		.loc 1 565 3 is_stmt 1 view .LVU561
 565:Src/draw.c    ****   drawString(frase, px, py, spacex, spacey);
 2198              		.loc 1 565 6 is_stmt 0 view .LVU562
 2199 002e 21EAE171 		bic	r1, r1, r1, asr #31
 2200              	.LVL219:
 566:Src/draw.c    **** }
 2201              		.loc 1 566 3 is_stmt 1 view .LVU563
 2202 0032 0095     		str	r5, [sp]
 2203 0034 2346     		mov	r3, r4
 2204 0036 C2F34702 		ubfx	r2, r2, #1, #8
 2205              	.LVL220:
 566:Src/draw.c    **** }
 2206              		.loc 1 566 3 is_stmt 0 view .LVU564
 2207 003a C9B2     		uxtb	r1, r1
 566:Src/draw.c    **** }
 2208              		.loc 1 566 3 view .LVU565
 2209 003c 3046     		mov	r0, r6
 2210 003e FFF7FEFF 		bl	drawString
 2211              	.LVL221:
 567:Src/draw.c    **** 
 2212              		.loc 1 567 1 view .LVU566
 2213 0042 02B0     		add	sp, sp, #8
 2214              	.LCFI26:
 2215              		.cfi_def_cfa_offset 16
 2216              		@ sp needed
 2217 0044 70BD     		pop	{r4, r5, r6, pc}
 567:Src/draw.c    **** 
 2218              		.loc 1 567 1 view .LVU567
 2219              		.cfi_endproc
 2220              	.LFE82:
 2222              		.section	.text.drawStringArray,"ax",%progbits
 2223              		.align	1
 2224              		.global	drawStringArray
 2225              		.syntax unified
 2226              		.thumb
 2227              		.thumb_func
 2228              		.fpu softvfp
 2230              	drawStringArray:
 2231              	.LVL222:
 2232              	.LFB84:
ARM GAS  /var/folders/hv/f19l0kw128sbpybv1h43gz3c0000gn/T//ccojdbgc.s 			page 55


 588:Src/draw.c    **** 
 589:Src/draw.c    **** void drawStringArray(uint8_t px, uint8_t py, uint8_t spacex, uint8_t spacey)
 590:Src/draw.c    **** {
 2233              		.loc 1 590 1 is_stmt 1 view -0
 2234              		.cfi_startproc
 2235              		@ args = 0, pretend = 0, frame = 8
 2236              		@ frame_needed = 0, uses_anonymous_args = 0
 2237              		.loc 1 590 1 is_stmt 0 view .LVU569
 2238 0000 2DE9F04F 		push	{r4, r5, r6, r7, r8, r9, r10, fp, lr}
 2239              	.LCFI27:
 2240              		.cfi_def_cfa_offset 36
 2241              		.cfi_offset 4, -36
 2242              		.cfi_offset 5, -32
 2243              		.cfi_offset 6, -28
 2244              		.cfi_offset 7, -24
 2245              		.cfi_offset 8, -20
 2246              		.cfi_offset 9, -16
 2247              		.cfi_offset 10, -12
 2248              		.cfi_offset 11, -8
 2249              		.cfi_offset 14, -4
 2250 0004 83B0     		sub	sp, sp, #12
 2251              	.LCFI28:
 2252              		.cfi_def_cfa_offset 48
 2253 0006 8246     		mov	r10, r0
 2254 0008 8B46     		mov	fp, r1
 2255 000a 0092     		str	r2, [sp]
 2256 000c 0193     		str	r3, [sp, #4]
 591:Src/draw.c    ****   uint8_t posX, incX = 0, posY, nLine = 0;
 2257              		.loc 1 591 3 is_stmt 1 view .LVU570
 2258              	.LVL223:
 592:Src/draw.c    ****   char temp;
 2259              		.loc 1 592 3 view .LVU571
 593:Src/draw.c    ****   for (uint8_t j = 0; j < ARRAY_LEN(noteBuffer); j++)
 2260              		.loc 1 593 3 view .LVU572
 2261              	.LBB61:
 2262              		.loc 1 593 8 view .LVU573
 2263              		.loc 1 593 16 is_stmt 0 view .LVU574
 2264 000e 0027     		movs	r7, #0
 2265              	.LBE61:
 591:Src/draw.c    ****   uint8_t posX, incX = 0, posY, nLine = 0;
 2266              		.loc 1 591 33 view .LVU575
 2267 0010 B846     		mov	r8, r7
 591:Src/draw.c    ****   uint8_t posX, incX = 0, posY, nLine = 0;
 2268              		.loc 1 591 17 view .LVU576
 2269 0012 B946     		mov	r9, r7
 2270              	.LBB64:
 2271              		.loc 1 593 3 view .LVU577
 2272 0014 2CE0     		b	.L208
 2273              	.LVL224:
 2274              	.L210:
 2275              	.LBB62:
 594:Src/draw.c    ****   {
 595:Src/draw.c    ****     setTextColor(noteBuffer[j].color);
 596:Src/draw.c    ****     for (uint8_t i = 0; i < 3; i++)
 597:Src/draw.c    ****     {
 598:Src/draw.c    ****       posX = incX * (3 + spacex) + px;
 599:Src/draw.c    ****       if (posX + ((3 + spacex)) > NCOLS - 2)
ARM GAS  /var/folders/hv/f19l0kw128sbpybv1h43gz3c0000gn/T//ccojdbgc.s 			page 56


 600:Src/draw.c    ****       {
 601:Src/draw.c    ****         posX = px;
 602:Src/draw.c    ****         nLine++;
 603:Src/draw.c    ****         incX = 0;
 604:Src/draw.c    ****       }
 605:Src/draw.c    ****       posY = nLine * (5 + spacey) + py;
 2276              		.loc 1 605 7 is_stmt 1 view .LVU578
 2277              		.loc 1 605 35 is_stmt 0 view .LVU579
 2278 0016 019B     		ldr	r3, [sp, #4]
 2279 0018 5C1D     		adds	r4, r3, #5
 2280 001a 04FB08F4 		mul	r4, r4, r8
 2281 001e E4B2     		uxtb	r4, r4
 2282              		.loc 1 605 12 view .LVU580
 2283 0020 5C44     		add	r4, r4, fp
 2284 0022 E4B2     		uxtb	r4, r4
 2285              	.LVL225:
 606:Src/draw.c    ****       temp = getNoteBuffer(j, i);
 2286              		.loc 1 606 7 is_stmt 1 view .LVU581
 2287              		.loc 1 606 14 is_stmt 0 view .LVU582
 2288 0024 3146     		mov	r1, r6
 2289 0026 3846     		mov	r0, r7
 2290 0028 FFF7FEFF 		bl	getNoteBuffer
 2291              	.LVL226:
 607:Src/draw.c    ****       if (temp)
 2292              		.loc 1 607 7 is_stmt 1 view .LVU583
 2293              		.loc 1 607 10 is_stmt 0 view .LVU584
 2294 002c A8B9     		cbnz	r0, .L215
 2295              	.LVL227:
 2296              	.L211:
 596:Src/draw.c    ****     {
 2297              		.loc 1 596 33 discriminator 2 view .LVU585
 2298 002e 0136     		adds	r6, r6, #1
 2299              	.LVL228:
 596:Src/draw.c    ****     {
 2300              		.loc 1 596 33 discriminator 2 view .LVU586
 2301 0030 F6B2     		uxtb	r6, r6
 2302              	.LVL229:
 2303              	.L209:
 596:Src/draw.c    ****     {
 2304              		.loc 1 596 5 discriminator 1 view .LVU587
 2305 0032 022E     		cmp	r6, #2
 2306 0034 1AD8     		bhi	.L216
 598:Src/draw.c    ****       if (posX + ((3 + spacex)) > NCOLS - 2)
 2307              		.loc 1 598 7 is_stmt 1 view .LVU588
 598:Src/draw.c    ****       if (posX + ((3 + spacex)) > NCOLS - 2)
 2308              		.loc 1 598 34 is_stmt 0 view .LVU589
 2309 0036 009B     		ldr	r3, [sp]
 2310 0038 0333     		adds	r3, r3, #3
 2311 003a 03FB09F5 		mul	r5, r3, r9
 2312 003e EDB2     		uxtb	r5, r5
 598:Src/draw.c    ****       if (posX + ((3 + spacex)) > NCOLS - 2)
 2313              		.loc 1 598 12 view .LVU590
 2314 0040 5544     		add	r5, r5, r10
 2315 0042 EDB2     		uxtb	r5, r5
 2316              	.LVL230:
 599:Src/draw.c    ****       {
 2317              		.loc 1 599 7 is_stmt 1 view .LVU591
ARM GAS  /var/folders/hv/f19l0kw128sbpybv1h43gz3c0000gn/T//ccojdbgc.s 			page 57


 599:Src/draw.c    ****       {
 2318              		.loc 1 599 16 is_stmt 0 view .LVU592
 2319 0044 2B44     		add	r3, r3, r5
 599:Src/draw.c    ****       {
 2320              		.loc 1 599 10 view .LVU593
 2321 0046 2B2B     		cmp	r3, #43
 2322 0048 E5DD     		ble	.L210
 601:Src/draw.c    ****         nLine++;
 2323              		.loc 1 601 9 is_stmt 1 view .LVU594
 2324              	.LVL231:
 602:Src/draw.c    ****         incX = 0;
 2325              		.loc 1 602 9 view .LVU595
 602:Src/draw.c    ****         incX = 0;
 2326              		.loc 1 602 14 is_stmt 0 view .LVU596
 2327 004a 08F10108 		add	r8, r8, #1
 2328              	.LVL232:
 602:Src/draw.c    ****         incX = 0;
 2329              		.loc 1 602 14 view .LVU597
 2330 004e 5FFA88F8 		uxtb	r8, r8
 2331              	.LVL233:
 603:Src/draw.c    ****       }
 2332              		.loc 1 603 9 is_stmt 1 view .LVU598
 601:Src/draw.c    ****         nLine++;
 2333              		.loc 1 601 14 is_stmt 0 view .LVU599
 2334 0052 5546     		mov	r5, r10
 603:Src/draw.c    ****       }
 2335              		.loc 1 603 14 view .LVU600
 2336 0054 4FF00009 		mov	r9, #0
 2337 0058 DDE7     		b	.L210
 2338              	.LVL234:
 2339              	.L215:
 608:Src/draw.c    ****       {
 609:Src/draw.c    ****         drawLetter(temp, posX, posY);
 2340              		.loc 1 609 9 is_stmt 1 view .LVU601
 2341 005a 2246     		mov	r2, r4
 2342 005c 2946     		mov	r1, r5
 2343 005e FFF7FEFF 		bl	drawLetter
 2344              	.LVL235:
 610:Src/draw.c    ****         incX++;
 2345              		.loc 1 610 9 view .LVU602
 2346              		.loc 1 610 13 is_stmt 0 view .LVU603
 2347 0062 09F10109 		add	r9, r9, #1
 2348              	.LVL236:
 2349              		.loc 1 610 13 view .LVU604
 2350 0066 5FFA89F9 		uxtb	r9, r9
 2351              	.LVL237:
 2352              		.loc 1 610 13 view .LVU605
 2353 006a E0E7     		b	.L211
 2354              	.LVL238:
 2355              	.L216:
 2356              		.loc 1 610 13 view .LVU606
 2357              	.LBE62:
 593:Src/draw.c    ****   {
 2358              		.loc 1 593 51 discriminator 2 view .LVU607
 2359 006c 0137     		adds	r7, r7, #1
 2360              	.LVL239:
 593:Src/draw.c    ****   {
ARM GAS  /var/folders/hv/f19l0kw128sbpybv1h43gz3c0000gn/T//ccojdbgc.s 			page 58


 2361              		.loc 1 593 51 discriminator 2 view .LVU608
 2362 006e FFB2     		uxtb	r7, r7
 2363              	.LVL240:
 2364              	.L208:
 593:Src/draw.c    ****   {
 2365              		.loc 1 593 3 discriminator 1 view .LVU609
 2366 0070 092F     		cmp	r7, #9
 2367 0072 09D8     		bhi	.L217
 595:Src/draw.c    ****     for (uint8_t i = 0; i < 3; i++)
 2368              		.loc 1 595 5 is_stmt 1 view .LVU610
 595:Src/draw.c    ****     for (uint8_t i = 0; i < 3; i++)
 2369              		.loc 1 595 31 is_stmt 0 view .LVU611
 2370 0074 07EB4703 		add	r3, r7, r7, lsl #1
 2371 0078 5800     		lsls	r0, r3, #1
 2372 007a 054B     		ldr	r3, .L218
 2373 007c 1844     		add	r0, r0, r3
 595:Src/draw.c    ****     for (uint8_t i = 0; i < 3; i++)
 2374              		.loc 1 595 5 view .LVU612
 2375 007e 0330     		adds	r0, r0, #3
 2376 0080 FFF7FEFF 		bl	setTextColor
 2377              	.LVL241:
 596:Src/draw.c    ****     {
 2378              		.loc 1 596 5 is_stmt 1 view .LVU613
 2379              	.LBB63:
 596:Src/draw.c    ****     {
 2380              		.loc 1 596 10 view .LVU614
 596:Src/draw.c    ****     {
 2381              		.loc 1 596 18 is_stmt 0 view .LVU615
 2382 0084 0026     		movs	r6, #0
 596:Src/draw.c    ****     {
 2383              		.loc 1 596 5 view .LVU616
 2384 0086 D4E7     		b	.L209
 2385              	.LVL242:
 2386              	.L217:
 596:Src/draw.c    ****     {
 2387              		.loc 1 596 5 view .LVU617
 2388              	.LBE63:
 2389              	.LBE64:
 611:Src/draw.c    ****       }
 612:Src/draw.c    ****     }
 613:Src/draw.c    ****   }
 614:Src/draw.c    **** }
 2390              		.loc 1 614 1 view .LVU618
 2391 0088 03B0     		add	sp, sp, #12
 2392              	.LCFI29:
 2393              		.cfi_def_cfa_offset 36
 2394              		@ sp needed
 2395 008a BDE8F08F 		pop	{r4, r5, r6, r7, r8, r9, r10, fp, pc}
 2396              	.LVL243:
 2397              	.L219:
 2398              		.loc 1 614 1 view .LVU619
 2399 008e 00BF     		.align	2
 2400              	.L218:
 2401 0090 00000000 		.word	noteBuffer
 2402              		.cfi_endproc
 2403              	.LFE84:
 2405              		.section	.text.drawScrollingString,"ax",%progbits
ARM GAS  /var/folders/hv/f19l0kw128sbpybv1h43gz3c0000gn/T//ccojdbgc.s 			page 59


 2406              		.align	1
 2407              		.global	drawScrollingString
 2408              		.syntax unified
 2409              		.thumb
 2410              		.thumb_func
 2411              		.fpu softvfp
 2413              	drawScrollingString:
 2414              	.LVL244:
 2415              	.LFB85:
 615:Src/draw.c    **** 
 616:Src/draw.c    **** void drawScrollingString(char *frase, uint16_t interval_ms, uint8_t space, uint8_t offX, uint8_t of
 617:Src/draw.c    **** {
 2416              		.loc 1 617 1 is_stmt 1 view -0
 2417              		.cfi_startproc
 2418              		@ args = 4, pretend = 0, frame = 40
 2419              		@ frame_needed = 0, uses_anonymous_args = 0
 2420              		.loc 1 617 1 is_stmt 0 view .LVU621
 2421 0000 2DE9F04F 		push	{r4, r5, r6, r7, r8, r9, r10, fp, lr}
 2422              	.LCFI30:
 2423              		.cfi_def_cfa_offset 36
 2424              		.cfi_offset 4, -36
 2425              		.cfi_offset 5, -32
 2426              		.cfi_offset 6, -28
 2427              		.cfi_offset 7, -24
 2428              		.cfi_offset 8, -20
 2429              		.cfi_offset 9, -16
 2430              		.cfi_offset 10, -12
 2431              		.cfi_offset 11, -8
 2432              		.cfi_offset 14, -4
 2433 0004 8BB0     		sub	sp, sp, #44
 2434              	.LCFI31:
 2435              		.cfi_def_cfa_offset 80
 2436 0006 0390     		str	r0, [sp, #12]
 2437 0008 0991     		str	r1, [sp, #36]
 2438 000a 9946     		mov	r9, r3
 2439 000c 9DF85030 		ldrb	r3, [sp, #80]	@ zero_extendqisi2
 2440              	.LVL245:
 2441              		.loc 1 617 1 view .LVU622
 2442 0010 0293     		str	r3, [sp, #8]
 618:Src/draw.c    ****   int8_t posX, posY;
 2443              		.loc 1 618 3 is_stmt 1 view .LVU623
 619:Src/draw.c    ****   uint8_t fill, width = 3 + space;
 2444              		.loc 1 619 3 view .LVU624
 2445              		.loc 1 619 17 is_stmt 0 view .LVU625
 2446 0012 0332     		adds	r2, r2, #3
 2447              	.LVL246:
 2448              		.loc 1 619 17 view .LVU626
 2449 0014 5FFA82FA 		uxtb	r10, r2
 2450              	.LVL247:
 620:Src/draw.c    ****   for (uint8_t letter = 0; letter < strlen(frase); letter++)
 2451              		.loc 1 620 3 is_stmt 1 view .LVU627
 2452              	.LBB65:
 2453              		.loc 1 620 8 view .LVU628
 2454              		.loc 1 620 16 is_stmt 0 view .LVU629
 2455 0018 0023     		movs	r3, #0
 2456 001a 0893     		str	r3, [sp, #32]
 2457              		.loc 1 620 3 view .LVU630
ARM GAS  /var/folders/hv/f19l0kw128sbpybv1h43gz3c0000gn/T//ccojdbgc.s 			page 60


 2458 001c 8AE0     		b	.L221
 2459              	.LVL248:
 2460              	.L228:
 2461              	.LBB66:
 2462              	.LBB67:
 2463              	.LBB68:
 2464              	.LBB69:
 621:Src/draw.c    ****   {
 622:Src/draw.c    ****     for (uint8_t pos = 0; pos < 3; pos++)
 623:Src/draw.c    ****     {
 624:Src/draw.c    ****       clearText();
 625:Src/draw.c    ****       for (uint8_t i = letter, idx = 0; i < strlen(frase); i++, idx++)
 626:Src/draw.c    ****       {
 627:Src/draw.c    ****         posX = (idx * width) + offX;
 628:Src/draw.c    ****         posY = offY;
 629:Src/draw.c    **** 
 630:Src/draw.c    ****         for (int8_t y = posY, l = 0; y < (posY + 5); y++, l++)
 631:Src/draw.c    ****         {
 632:Src/draw.c    ****           if (y >= (NCOLS - offY))
 633:Src/draw.c    ****             break;
 634:Src/draw.c    ****           fill = getFontLine(frase[i], l);
 635:Src/draw.c    ****           for (int8_t x = posX - pos, aX = 3; x < (posX + width) - pos; x++, aX--)
 636:Src/draw.c    ****           {
 637:Src/draw.c    ****             if (x >= (NCOLS - offX))
 638:Src/draw.c    ****               break;
 639:Src/draw.c    ****             if (x >= offX)
 640:Src/draw.c    ****             {
 641:Src/draw.c    ****               if (fill & (1u << aX))
 642:Src/draw.c    ****               {
 643:Src/draw.c    **** #if COLOR_1BIT
 644:Src/draw.c    ****                 BIT_SET(textLayer[DIV_8(x + (y * NCOLS))], REST_8(x + (y * NCOLS)));
 2465              		.loc 1 644 17 view .LVU631
 2466 001e C010     		asrs	r0, r0, #3
 2467 0020 D1F1000C 		rsbs	ip, r1, #0
 2468 0024 01F00701 		and	r1, r1, #7
 2469 0028 0CF0070C 		and	ip, ip, #7
 2470 002c 58BF     		it	pl
 2471 002e CCF10001 		rsbpl	r1, ip, #0
 2472 0032 4FF0010E 		mov	lr, #1
 2473 0036 0EFA01FE 		lsl	lr, lr, r1
 2474 003a DFF818C1 		ldr	ip, .L239
 2475 003e 1CF80010 		ldrb	r1, [ip, r0]	@ zero_extendqisi2
 2476 0042 41EA0E01 		orr	r1, r1, lr
 2477 0046 0CF80010 		strb	r1, [ip, r0]
 2478              	.L227:
 635:Src/draw.c    ****           {
 2479              		.loc 1 635 74 discriminator 2 view .LVU632
 2480 004a 0133     		adds	r3, r3, #1
 2481              	.LVL249:
 635:Src/draw.c    ****           {
 2482              		.loc 1 635 74 discriminator 2 view .LVU633
 2483 004c 5BB2     		sxtb	r3, r3
 2484              	.LVL250:
 635:Src/draw.c    ****           {
 2485              		.loc 1 635 80 discriminator 2 view .LVU634
 2486 004e 013A     		subs	r2, r2, #1
 2487              	.LVL251:
ARM GAS  /var/folders/hv/f19l0kw128sbpybv1h43gz3c0000gn/T//ccojdbgc.s 			page 61


 635:Src/draw.c    ****           {
 2488              		.loc 1 635 80 discriminator 2 view .LVU635
 2489 0050 52B2     		sxtb	r2, r2
 2490              	.LVL252:
 2491              	.L225:
 635:Src/draw.c    ****           {
 2492              		.loc 1 635 49 discriminator 1 view .LVU636
 2493 0052 1846     		mov	r0, r3
 635:Src/draw.c    ****           {
 2494              		.loc 1 635 57 discriminator 1 view .LVU637
 2495 0054 04EB0901 		add	r1, r4, r9
 635:Src/draw.c    ****           {
 2496              		.loc 1 635 66 discriminator 1 view .LVU638
 2497 0058 A1EB0A01 		sub	r1, r1, r10
 635:Src/draw.c    ****           {
 2498              		.loc 1 635 11 discriminator 1 view .LVU639
 2499 005c 8B42     		cmp	r3, r1
 2500 005e 14DA     		bge	.L226
 637:Src/draw.c    ****               break;
 2501              		.loc 1 637 13 is_stmt 1 view .LVU640
 637:Src/draw.c    ****               break;
 2502              		.loc 1 637 29 is_stmt 0 view .LVU641
 2503 0060 C8F12D01 		rsb	r1, r8, #45
 637:Src/draw.c    ****               break;
 2504              		.loc 1 637 16 view .LVU642
 2505 0064 9942     		cmp	r1, r3
 2506 0066 10DD     		ble	.L226
 639:Src/draw.c    ****             {
 2507              		.loc 1 639 13 is_stmt 1 view .LVU643
 639:Src/draw.c    ****             {
 2508              		.loc 1 639 16 is_stmt 0 view .LVU644
 2509 0068 8045     		cmp	r8, r0
 2510 006a EEDC     		bgt	.L227
 641:Src/draw.c    ****               {
 2511              		.loc 1 641 15 is_stmt 1 view .LVU645
 641:Src/draw.c    ****               {
 2512              		.loc 1 641 19 is_stmt 0 view .LVU646
 2513 006c 2BFA02F1 		lsr	r1, fp, r2
 641:Src/draw.c    ****               {
 2514              		.loc 1 641 18 view .LVU647
 2515 0070 11F0010F 		tst	r1, #1
 2516 0074 E9D0     		beq	.L227
 2517              		.loc 1 644 17 is_stmt 1 view .LVU648
 2518 0076 06EB4601 		add	r1, r6, r6, lsl #1
 2519 007a C1EB0111 		rsb	r1, r1, r1, lsl #4
 2520 007e 0144     		add	r1, r1, r0
 2521 0080 0846     		mov	r0, r1
 2522 0082 0029     		cmp	r1, #0
 2523 0084 CBDA     		bge	.L228
 2524 0086 C81D     		adds	r0, r1, #7
 2525 0088 C9E7     		b	.L228
 2526              	.L226:
 2527              	.LBE69:
 630:Src/draw.c    ****         {
 2528              		.loc 1 630 55 is_stmt 0 discriminator 2 view .LVU649
 2529 008a 0135     		adds	r5, r5, #1
 2530              	.LVL253:
ARM GAS  /var/folders/hv/f19l0kw128sbpybv1h43gz3c0000gn/T//ccojdbgc.s 			page 62


 630:Src/draw.c    ****         {
 2531              		.loc 1 630 55 discriminator 2 view .LVU650
 2532 008c 6DB2     		sxtb	r5, r5
 2533              	.LVL254:
 630:Src/draw.c    ****         {
 2534              		.loc 1 630 60 discriminator 2 view .LVU651
 2535 008e 0137     		adds	r7, r7, #1
 2536              	.LVL255:
 630:Src/draw.c    ****         {
 2537              		.loc 1 630 60 discriminator 2 view .LVU652
 2538 0090 7FB2     		sxtb	r7, r7
 2539              	.LVL256:
 2540              	.L223:
 630:Src/draw.c    ****         {
 2541              		.loc 1 630 40 discriminator 1 view .LVU653
 2542 0092 019B     		ldr	r3, [sp, #4]
 2543 0094 0433     		adds	r3, r3, #4
 2544 0096 2E46     		mov	r6, r5
 630:Src/draw.c    ****         {
 2545              		.loc 1 630 9 discriminator 1 view .LVU654
 2546 0098 AB42     		cmp	r3, r5
 2547 009a 11DB     		blt	.L224
 632:Src/draw.c    ****             break;
 2548              		.loc 1 632 11 is_stmt 1 view .LVU655
 632:Src/draw.c    ****             break;
 2549              		.loc 1 632 27 is_stmt 0 view .LVU656
 2550 009c 029B     		ldr	r3, [sp, #8]
 2551 009e C3F12D03 		rsb	r3, r3, #45
 632:Src/draw.c    ****             break;
 2552              		.loc 1 632 14 view .LVU657
 2553 00a2 AB42     		cmp	r3, r5
 2554 00a4 0CDD     		ble	.L224
 634:Src/draw.c    ****           for (int8_t x = posX - pos, aX = 3; x < (posX + width) - pos; x++, aX--)
 2555              		.loc 1 634 11 is_stmt 1 view .LVU658
 634:Src/draw.c    ****           for (int8_t x = posX - pos, aX = 3; x < (posX + width) - pos; x++, aX--)
 2556              		.loc 1 634 18 is_stmt 0 view .LVU659
 2557 00a6 3946     		mov	r1, r7
 2558 00a8 039B     		ldr	r3, [sp, #12]
 2559 00aa 049A     		ldr	r2, [sp, #16]
 2560 00ac 985C     		ldrb	r0, [r3, r2]	@ zero_extendqisi2
 2561 00ae FFF7FEFF 		bl	getFontLine
 2562              	.LVL257:
 2563 00b2 8346     		mov	fp, r0
 2564              	.LVL258:
 635:Src/draw.c    ****           {
 2565              		.loc 1 635 11 is_stmt 1 view .LVU660
 2566              	.LBB70:
 635:Src/draw.c    ****           {
 2567              		.loc 1 635 16 view .LVU661
 635:Src/draw.c    ****           {
 2568              		.loc 1 635 32 is_stmt 0 view .LVU662
 2569 00b4 059B     		ldr	r3, [sp, #20]
 2570 00b6 A3EB0A03 		sub	r3, r3, r10
 635:Src/draw.c    ****           {
 2571              		.loc 1 635 23 view .LVU663
 2572 00ba 5BB2     		sxtb	r3, r3
 2573              	.LVL259:
ARM GAS  /var/folders/hv/f19l0kw128sbpybv1h43gz3c0000gn/T//ccojdbgc.s 			page 63


 635:Src/draw.c    ****           {
 2574              		.loc 1 635 39 view .LVU664
 2575 00bc 0322     		movs	r2, #3
 635:Src/draw.c    ****           {
 2576              		.loc 1 635 11 view .LVU665
 2577 00be C8E7     		b	.L225
 2578              	.LVL260:
 2579              	.L224:
 635:Src/draw.c    ****           {
 2580              		.loc 1 635 11 view .LVU666
 2581              	.LBE70:
 2582              	.LBE68:
 625:Src/draw.c    ****       {
 2583              		.loc 1 625 61 discriminator 2 view .LVU667
 2584 00c0 069B     		ldr	r3, [sp, #24]
 2585 00c2 0133     		adds	r3, r3, #1
 2586 00c4 DBB2     		uxtb	r3, r3
 2587 00c6 0693     		str	r3, [sp, #24]
 2588              	.LVL261:
 625:Src/draw.c    ****       {
 2589              		.loc 1 625 68 discriminator 2 view .LVU668
 2590 00c8 079B     		ldr	r3, [sp, #28]
 2591 00ca 0133     		adds	r3, r3, #1
 2592 00cc DBB2     		uxtb	r3, r3
 2593 00ce 0793     		str	r3, [sp, #28]
 2594              	.LVL262:
 2595              	.L222:
 625:Src/draw.c    ****       {
 2596              		.loc 1 625 43 discriminator 1 view .LVU669
 2597 00d0 069C     		ldr	r4, [sp, #24]
 2598 00d2 0494     		str	r4, [sp, #16]
 625:Src/draw.c    ****       {
 2599              		.loc 1 625 45 discriminator 1 view .LVU670
 2600 00d4 0398     		ldr	r0, [sp, #12]
 2601 00d6 FFF7FEFF 		bl	strlen
 2602              	.LVL263:
 625:Src/draw.c    ****       {
 2603              		.loc 1 625 7 discriminator 1 view .LVU671
 2604 00da 8442     		cmp	r4, r0
 2605 00dc 0DD2     		bcs	.L236
 627:Src/draw.c    ****         posY = offY;
 2606              		.loc 1 627 9 is_stmt 1 view .LVU672
 627:Src/draw.c    ****         posY = offY;
 2607              		.loc 1 627 21 is_stmt 0 view .LVU673
 2608 00de 079B     		ldr	r3, [sp, #28]
 2609 00e0 09FB03F3 		mul	r3, r9, r3
 2610 00e4 DBB2     		uxtb	r3, r3
 627:Src/draw.c    ****         posY = offY;
 2611              		.loc 1 627 30 view .LVU674
 2612 00e6 4344     		add	r3, r3, r8
 2613 00e8 DBB2     		uxtb	r3, r3
 2614 00ea 0593     		str	r3, [sp, #20]
 627:Src/draw.c    ****         posY = offY;
 2615              		.loc 1 627 14 view .LVU675
 2616 00ec 5CB2     		sxtb	r4, r3
 2617              	.LVL264:
 628:Src/draw.c    **** 
ARM GAS  /var/folders/hv/f19l0kw128sbpybv1h43gz3c0000gn/T//ccojdbgc.s 			page 64


 2618              		.loc 1 628 9 is_stmt 1 view .LVU676
 628:Src/draw.c    **** 
 2619              		.loc 1 628 14 is_stmt 0 view .LVU677
 2620 00ee 9DF90830 		ldrsb	r3, [sp, #8]
 2621 00f2 0193     		str	r3, [sp, #4]
 2622              	.LVL265:
 630:Src/draw.c    ****         {
 2623              		.loc 1 630 9 is_stmt 1 view .LVU678
 2624              	.LBB71:
 630:Src/draw.c    ****         {
 2625              		.loc 1 630 14 view .LVU679
 630:Src/draw.c    ****         {
 2626              		.loc 1 630 21 is_stmt 0 view .LVU680
 2627 00f4 1D46     		mov	r5, r3
 630:Src/draw.c    ****         {
 2628              		.loc 1 630 31 view .LVU681
 2629 00f6 0027     		movs	r7, #0
 630:Src/draw.c    ****         {
 2630              		.loc 1 630 9 view .LVU682
 2631 00f8 CBE7     		b	.L223
 2632              	.LVL266:
 2633              	.L236:
 630:Src/draw.c    ****         {
 2634              		.loc 1 630 9 view .LVU683
 2635              	.LBE71:
 2636              	.LBE67:
 645:Src/draw.c    **** #else
 646:Src/draw.c    ****                 setColor(textLayer[x + (y * NCOLS)], textColor);
 647:Src/draw.c    **** #endif
 648:Src/draw.c    ****               }
 649:Src/draw.c    ****             }
 650:Src/draw.c    ****           }
 651:Src/draw.c    ****         }
 652:Src/draw.c    ****       }
 653:Src/draw.c    ****       fillFramebuffer();
 2637              		.loc 1 653 7 is_stmt 1 discriminator 2 view .LVU684
 2638 00fa FFF7FEFF 		bl	fillFramebuffer
 2639              	.LVL267:
 654:Src/draw.c    ****       WS2812_sendbuf(24 * NLEDSCH);
 2640              		.loc 1 654 7 discriminator 2 view .LVU685
 2641 00fe 4FF48750 		mov	r0, #4320
 2642 0102 FFF7FEFF 		bl	WS2812_sendbuf
 2643              	.LVL268:
 655:Src/draw.c    ****       LL_mDelay(interval_ms);
 2644              		.loc 1 655 7 discriminator 2 view .LVU686
 2645 0106 0998     		ldr	r0, [sp, #36]
 2646 0108 FFF7FEFF 		bl	LL_mDelay
 2647              	.LVL269:
 622:Src/draw.c    ****     {
 2648              		.loc 1 622 39 is_stmt 0 discriminator 2 view .LVU687
 2649 010c 0AF10103 		add	r3, r10, #1
 2650 0110 5FFA83FA 		uxtb	r10, r3
 2651              	.LVL270:
 2652              	.L233:
 622:Src/draw.c    ****     {
 2653              		.loc 1 622 5 discriminator 1 view .LVU688
 2654 0114 BAF1020F 		cmp	r10, #2
ARM GAS  /var/folders/hv/f19l0kw128sbpybv1h43gz3c0000gn/T//ccojdbgc.s 			page 65


 2655 0118 06D8     		bhi	.L237
 624:Src/draw.c    ****       for (uint8_t i = letter, idx = 0; i < strlen(frase); i++, idx++)
 2656              		.loc 1 624 7 is_stmt 1 view .LVU689
 2657 011a FFF7FEFF 		bl	clearText
 2658              	.LVL271:
 625:Src/draw.c    ****       {
 2659              		.loc 1 625 7 view .LVU690
 2660              	.LBB72:
 625:Src/draw.c    ****       {
 2661              		.loc 1 625 12 view .LVU691
 625:Src/draw.c    ****       {
 2662              		.loc 1 625 20 is_stmt 0 view .LVU692
 2663 011e 089B     		ldr	r3, [sp, #32]
 2664 0120 0693     		str	r3, [sp, #24]
 625:Src/draw.c    ****       {
 2665              		.loc 1 625 32 view .LVU693
 2666 0122 0023     		movs	r3, #0
 2667 0124 0793     		str	r3, [sp, #28]
 625:Src/draw.c    ****       {
 2668              		.loc 1 625 7 view .LVU694
 2669 0126 D3E7     		b	.L222
 2670              	.LVL272:
 2671              	.L237:
 625:Src/draw.c    ****       {
 2672              		.loc 1 625 7 view .LVU695
 2673 0128 CA46     		mov	r10, r9
 2674              	.LVL273:
 625:Src/draw.c    ****       {
 2675              		.loc 1 625 7 view .LVU696
 2676 012a C146     		mov	r9, r8
 2677              	.LVL274:
 625:Src/draw.c    ****       {
 2678              		.loc 1 625 7 view .LVU697
 2679              	.LBE72:
 2680              	.LBE66:
 620:Src/draw.c    ****   {
 2681              		.loc 1 620 58 discriminator 2 view .LVU698
 2682 012c 089B     		ldr	r3, [sp, #32]
 2683 012e 0133     		adds	r3, r3, #1
 2684 0130 DBB2     		uxtb	r3, r3
 2685 0132 0893     		str	r3, [sp, #32]
 2686              	.LVL275:
 2687              	.L221:
 620:Src/draw.c    ****   {
 2688              		.loc 1 620 37 discriminator 1 view .LVU699
 2689 0134 0398     		ldr	r0, [sp, #12]
 2690 0136 FFF7FEFF 		bl	strlen
 2691              	.LVL276:
 620:Src/draw.c    ****   {
 2692              		.loc 1 620 3 discriminator 1 view .LVU700
 2693 013a 089B     		ldr	r3, [sp, #32]
 2694 013c 8342     		cmp	r3, r0
 2695 013e 06D2     		bcs	.L238
 2696              	.LBB73:
 622:Src/draw.c    ****     {
 2697              		.loc 1 622 18 view .LVU701
 2698 0140 4FF00008 		mov	r8, #0
ARM GAS  /var/folders/hv/f19l0kw128sbpybv1h43gz3c0000gn/T//ccojdbgc.s 			page 66


 2699 0144 4B46     		mov	r3, r9
 2700 0146 D146     		mov	r9, r10
 2701 0148 C246     		mov	r10, r8
 2702              	.LVL277:
 622:Src/draw.c    ****     {
 2703              		.loc 1 622 18 view .LVU702
 2704 014a 9846     		mov	r8, r3
 2705 014c E2E7     		b	.L233
 2706              	.LVL278:
 2707              	.L238:
 622:Src/draw.c    ****     {
 2708              		.loc 1 622 18 view .LVU703
 2709              	.LBE73:
 2710              	.LBE65:
 656:Src/draw.c    ****     }
 657:Src/draw.c    ****   }
 658:Src/draw.c    **** }...
 2711              		.loc 1 658 1 view .LVU704
 2712 014e 0BB0     		add	sp, sp, #44
 2713              	.LCFI32:
 2714              		.cfi_def_cfa_offset 36
 2715              		@ sp needed
 2716 0150 BDE8F08F 		pop	{r4, r5, r6, r7, r8, r9, r10, fp, pc}
 2717              	.LVL279:
 2718              	.L240:
 2719              		.loc 1 658 1 view .LVU705
 2720              		.align	2
 2721              	.L239:
 2722 0154 00000000 		.word	textLayer
 2723              		.cfi_endproc
 2724              	.LFE85:
 2726              		.global	font4x6
 2727              		.global	arrColor
 2728              		.global	arr
 2729              		.global	letterColor
 2730              		.global	currColor
 2731              		.comm	WS2812_IO_framedata,8640,4
 2732              		.comm	noteBuffer,60,4
 2733              		.comm	noteSequence,114,4
 2734              		.comm	note,3,4
 2735              		.comm	textColor,3,4
 2736              		.comm	backColor,3,4
 2737              		.comm	textLayer,254,4
 2738              		.comm	backLayer,6075,4
 2739              		.section	.bss.arr,"aw",%nobits
 2740              		.align	2
 2743              	arr:
 2744 0000 000000   		.space	3
 2745              		.section	.data.arrColor,"aw"
 2746              		.align	2
 2747              		.set	.LANCHOR0,. + 0
 2750              	arrColor:
 2751 0000 32       		.byte	50
 2752 0001 00       		.byte	0
 2753 0002 00       		.byte	0
 2754 0003 32       		.byte	50
 2755 0004 19       		.byte	25
ARM GAS  /var/folders/hv/f19l0kw128sbpybv1h43gz3c0000gn/T//ccojdbgc.s 			page 67


 2756 0005 00       		.byte	0
 2757 0006 32       		.byte	50
 2758 0007 32       		.byte	50
 2759 0008 00       		.byte	0
 2760 0009 32       		.byte	50
 2761 000a 26       		.byte	38
 2762 000b 00       		.byte	0
 2763 000c 00       		.byte	0
 2764 000d 32       		.byte	50
 2765 000e 24       		.byte	36
 2766 000f 19       		.byte	25
 2767 0010 00       		.byte	0
 2768 0011 32       		.byte	50
 2769 0012 32       		.byte	50
 2770 0013 00       		.byte	0
 2771 0014 19       		.byte	25
 2772 0015 32       		.byte	50
 2773 0016 00       		.byte	0
 2774 0017 32       		.byte	50
 2775 0018 00       		.byte	0
 2776 0019 00       		.byte	0
 2777 001a 28       		.byte	40
 2778 001b 1E       		.byte	30
 2779 001c 1E       		.byte	30
 2780 001d 1E       		.byte	30
 2781 001e 3C       		.byte	60
 2782 001f 3C       		.byte	60
 2783 0020 14       		.byte	20
 2784 0021 3C       		.byte	60
 2785 0022 1E       		.byte	30
 2786 0023 14       		.byte	20
 2787 0024 00       		.byte	0
 2788 0025 00       		.byte	0
 2789 0026 00       		.byte	0
 2790              		.section	.data.currColor,"aw"
 2791              		.align	2
 2794              	currColor:
 2795 0000 3C       		.byte	60
 2796 0001 19       		.byte	25
 2797 0002 00       		.byte	0
 2798              		.section	.data.letterColor,"aw"
 2799              		.align	2
 2802              	letterColor:
 2803 0000 00       		.byte	0
 2804 0001 0A       		.byte	10
 2805 0002 00       		.byte	0
 2806              		.section	.rodata.font4x6,"a"
 2807              		.align	2
 2808              		.set	.LANCHOR1,. + 0
 2811              	font4x6:
 2812 0000 00       		.byte	0
 2813 0001 00       		.byte	0
 2814 0002 49       		.byte	73
 2815 0003 08       		.byte	8
 2816 0004 B4       		.byte	-76
 2817 0005 00       		.byte	0
 2818 0006 BE       		.byte	-66
ARM GAS  /var/folders/hv/f19l0kw128sbpybv1h43gz3c0000gn/T//ccojdbgc.s 			page 68


 2819 0007 F6       		.byte	-10
 2820 0008 7B       		.byte	123
 2821 0009 7A       		.byte	122
 2822 000a A5       		.byte	-91
 2823 000b 94       		.byte	-108
 2824 000c 55       		.byte	85
 2825 000d B8       		.byte	-72
 2826 000e 48       		.byte	72
 2827 000f 00       		.byte	0
 2828 0010 29       		.byte	41
 2829 0011 44       		.byte	68
 2830 0012 44       		.byte	68
 2831 0013 2A       		.byte	42
 2832 0014 15       		.byte	21
 2833 0015 A0       		.byte	-96
 2834 0016 0B       		.byte	11
 2835 0017 42       		.byte	66
 2836 0018 00       		.byte	0
 2837 0019 50       		.byte	80
 2838 001a 03       		.byte	3
 2839 001b 02       		.byte	2
 2840 001c 00       		.byte	0
 2841 001d 08       		.byte	8
 2842 001e 25       		.byte	37
 2843 001f 90       		.byte	-112
 2844 0020 76       		.byte	118
 2845 0021 BA       		.byte	-70
 2846 0022 59       		.byte	89
 2847 0023 5C       		.byte	92
 2848 0024 C5       		.byte	-59
 2849 0025 9E       		.byte	-98
 2850 0026 C5       		.byte	-59
 2851 0027 38       		.byte	56
 2852 0028 92       		.byte	-110
 2853 0029 E6       		.byte	-26
 2854 002a F3       		.byte	-13
 2855 002b 3A       		.byte	58
 2856 002c 73       		.byte	115
 2857 002d BA       		.byte	-70
 2858 002e E5       		.byte	-27
 2859 002f 90       		.byte	-112
 2860 0030 77       		.byte	119
 2861 0031 BA       		.byte	-70
 2862 0032 77       		.byte	119
 2863 0033 3A       		.byte	58
 2864 0034 08       		.byte	8
 2865 0035 40       		.byte	64
 2866 0036 08       		.byte	8
 2867 0037 50       		.byte	80
 2868 0038 2A       		.byte	42
 2869 0039 44       		.byte	68
 2870 003a 1C       		.byte	28
 2871 003b E0       		.byte	-32
 2872 003c 88       		.byte	-120
 2873 003d 52       		.byte	82
 2874 003e E5       		.byte	-27
 2875 003f 08       		.byte	8
ARM GAS  /var/folders/hv/f19l0kw128sbpybv1h43gz3c0000gn/T//ccojdbgc.s 			page 69


 2876 0040 56       		.byte	86
 2877 0041 8E       		.byte	-114
 2878 0042 77       		.byte	119
 2879 0043 B6       		.byte	-74
 2880 0044 77       		.byte	119
 2881 0045 B8       		.byte	-72
 2882 0046 72       		.byte	114
 2883 0047 8C       		.byte	-116
 2884 0048 D6       		.byte	-42
 2885 0049 BA       		.byte	-70
 2886 004a 73       		.byte	115
 2887 004b 9E       		.byte	-98
 2888 004c 73       		.byte	115
 2889 004d 92       		.byte	-110
 2890 004e 72       		.byte	114
 2891 004f AE       		.byte	-82
 2892 0050 B7       		.byte	-73
 2893 0051 B6       		.byte	-74
 2894 0052 E9       		.byte	-23
 2895 0053 5C       		.byte	92
 2896 0054 64       		.byte	100
 2897 0055 AA       		.byte	-86
 2898 0056 B7       		.byte	-73
 2899 0057 B4       		.byte	-76
 2900 0058 92       		.byte	-110
 2901 0059 9C       		.byte	-100
 2902 005a BE       		.byte	-66
 2903 005b B6       		.byte	-74
 2904 005c D6       		.byte	-42
 2905 005d B6       		.byte	-74
 2906 005e 56       		.byte	86
 2907 005f AA       		.byte	-86
 2908 0060 D7       		.byte	-41
 2909 0061 92       		.byte	-110
 2910 0062 76       		.byte	118
 2911 0063 EE       		.byte	-18
 2912 0064 77       		.byte	119
 2913 0065 B4       		.byte	-76
 2914 0066 71       		.byte	113
 2915 0067 38       		.byte	56
 2916 0068 E9       		.byte	-23
 2917 0069 48       		.byte	72
 2918 006a B6       		.byte	-74
 2919 006b AE       		.byte	-82
 2920 006c B6       		.byte	-74
 2921 006d AA       		.byte	-86
 2922 006e B6       		.byte	-74
 2923 006f F6       		.byte	-10
 2924 0070 B5       		.byte	-75
 2925 0071 B4       		.byte	-76
 2926 0072 B5       		.byte	-75
 2927 0073 48       		.byte	72
 2928 0074 E5       		.byte	-27
 2929 0075 9C       		.byte	-100
 2930 0076 69       		.byte	105
 2931 0077 4C       		.byte	76
 2932 0078 91       		.byte	-111
ARM GAS  /var/folders/hv/f19l0kw128sbpybv1h43gz3c0000gn/T//ccojdbgc.s 			page 70


 2933 0079 24       		.byte	36
 2934 007a 64       		.byte	100
 2935 007b 2E       		.byte	46
 2936 007c 54       		.byte	84
 2937 007d 00       		.byte	0
 2938 007e 00       		.byte	0
 2939 007f 1C       		.byte	28
 2940 0080 44       		.byte	68
 2941 0081 00       		.byte	0
 2942 0082 0E       		.byte	14
 2943 0083 AE       		.byte	-82
 2944 0084 9A       		.byte	-102
 2945 0085 BA       		.byte	-70
 2946 0086 0E       		.byte	14
 2947 0087 8C       		.byte	-116
 2948 0088 2E       		.byte	46
 2949 0089 AE       		.byte	-82
 2950 008a 0E       		.byte	14
 2951 008b CE       		.byte	-50
 2952 008c 56       		.byte	86
 2953 008d D0       		.byte	-48
 2954 008e 55       		.byte	85
 2955 008f 3B       		.byte	59
 2956 0090 93       		.byte	-109
 2957 0091 B4       		.byte	-76
 2958 0092 41       		.byte	65
 2959 0093 44       		.byte	68
 2960 0094 41       		.byte	65
 2961 0095 51       		.byte	81
 2962 0096 97       		.byte	-105
 2963 0097 B4       		.byte	-76
 2964 0098 49       		.byte	73
 2965 0099 44       		.byte	68
 2966 009a 17       		.byte	23
 2967 009b B6       		.byte	-74
 2968 009c 1A       		.byte	26
 2969 009d B6       		.byte	-74
 2970 009e 0A       		.byte	10
 2971 009f AA       		.byte	-86
 2972 00a0 D6       		.byte	-42
 2973 00a1 D3       		.byte	-45
 2974 00a2 76       		.byte	118
 2975 00a3 67       		.byte	103
 2976 00a4 17       		.byte	23
 2977 00a5 90       		.byte	-112
 2978 00a6 0F       		.byte	15
 2979 00a7 38       		.byte	56
 2980 00a8 9A       		.byte	-102
 2981 00a9 8C       		.byte	-116
 2982 00aa 16       		.byte	22
 2983 00ab AE       		.byte	-82
 2984 00ac 16       		.byte	22
 2985 00ad BA       		.byte	-70
 2986 00ae 16       		.byte	22
 2987 00af F6       		.byte	-10
 2988 00b0 15       		.byte	21
 2989 00b1 B4       		.byte	-76
ARM GAS  /var/folders/hv/f19l0kw128sbpybv1h43gz3c0000gn/T//ccojdbgc.s 			page 71


 2990 00b2 B5       		.byte	-75
 2991 00b3 2B       		.byte	43
 2992 00b4 1C       		.byte	28
 2993 00b5 5E       		.byte	94
 2994 00b6 6B       		.byte	107
 2995 00b7 4C       		.byte	76
 2996 00b8 49       		.byte	73
 2997 00b9 48       		.byte	72
 2998 00ba C9       		.byte	-55
 2999 00bb 5A       		.byte	90
 3000 00bc 54       		.byte	84
 3001 00bd 00       		.byte	0
 3002 00be 56       		.byte	86
 3003 00bf E2       		.byte	-30
 3004              		.text
 3005              	.Letext0:
 3006              		.file 2 "/Users/luissousa/opt/gcc-arm-none-eabi-8-2018-q4-major/arm-none-eabi/include/machine/_def
 3007              		.file 3 "/Users/luissousa/opt/gcc-arm-none-eabi-8-2018-q4-major/arm-none-eabi/include/sys/_stdint.
 3008              		.file 4 "/Users/luissousa/opt/gcc-arm-none-eabi-8-2018-q4-major/lib/gcc/arm-none-eabi/8.2.1/includ
 3009              		.file 5 "/Users/luissousa/opt/gcc-arm-none-eabi-8-2018-q4-major/arm-none-eabi/include/sys/lock.h"
 3010              		.file 6 "/Users/luissousa/opt/gcc-arm-none-eabi-8-2018-q4-major/arm-none-eabi/include/sys/_types.h
 3011              		.file 7 "/Users/luissousa/opt/gcc-arm-none-eabi-8-2018-q4-major/arm-none-eabi/include/sys/reent.h"
 3012              		.file 8 "Drivers/CMSIS/Include/core_cm3.h"
 3013              		.file 9 "Drivers/CMSIS/Device/ST/STM32F1xx/Include/system_stm32f1xx.h"
 3014              		.file 10 "Src/definitions.h"
 3015              		.file 11 "Src/notes.h"
 3016              		.file 12 "Src/ws2812.h"
 3017              		.file 13 "/Users/luissousa/opt/gcc-arm-none-eabi-8-2018-q4-major/arm-none-eabi/include/string.h"
 3018              		.file 14 "Drivers/STM32F1xx_HAL_Driver/Inc/stm32f1xx_ll_utils.h"
ARM GAS  /var/folders/hv/f19l0kw128sbpybv1h43gz3c0000gn/T//ccojdbgc.s 			page 72


DEFINED SYMBOLS
                            *ABS*:0000000000000000 draw.c
/var/folders/hv/f19l0kw128sbpybv1h43gz3c0000gn/T//ccojdbgc.s:16     .text.fillFramebuffer:0000000000000000 $t
/var/folders/hv/f19l0kw128sbpybv1h43gz3c0000gn/T//ccojdbgc.s:24     .text.fillFramebuffer:0000000000000000 fillFramebuffer
/var/folders/hv/f19l0kw128sbpybv1h43gz3c0000gn/T//ccojdbgc.s:205    .text.fillFramebuffer:00000000000000c8 $d
                            *COM*:00000000000000fe textLayer
                            *COM*:0000000000000003 textColor
                            *COM*:00000000000017bb backLayer
/var/folders/hv/f19l0kw128sbpybv1h43gz3c0000gn/T//ccojdbgc.s:212    .text.clearBack:0000000000000000 $t
/var/folders/hv/f19l0kw128sbpybv1h43gz3c0000gn/T//ccojdbgc.s:219    .text.clearBack:0000000000000000 clearBack
/var/folders/hv/f19l0kw128sbpybv1h43gz3c0000gn/T//ccojdbgc.s:292    .text.clearBack:0000000000000034 $d
/var/folders/hv/f19l0kw128sbpybv1h43gz3c0000gn/T//ccojdbgc.s:298    .text.clearText:0000000000000000 $t
/var/folders/hv/f19l0kw128sbpybv1h43gz3c0000gn/T//ccojdbgc.s:305    .text.clearText:0000000000000000 clearText
/var/folders/hv/f19l0kw128sbpybv1h43gz3c0000gn/T//ccojdbgc.s:344    .text.clearText:0000000000000014 $d
/var/folders/hv/f19l0kw128sbpybv1h43gz3c0000gn/T//ccojdbgc.s:349    .text.clearFramebuffer:0000000000000000 $t
/var/folders/hv/f19l0kw128sbpybv1h43gz3c0000gn/T//ccojdbgc.s:356    .text.clearFramebuffer:0000000000000000 clearFramebuffer
/var/folders/hv/f19l0kw128sbpybv1h43gz3c0000gn/T//ccojdbgc.s:467    .text.clearFramebuffer:0000000000000064 $d
/var/folders/hv/f19l0kw128sbpybv1h43gz3c0000gn/T//ccojdbgc.s:472    .text.move:0000000000000000 $t
/var/folders/hv/f19l0kw128sbpybv1h43gz3c0000gn/T//ccojdbgc.s:479    .text.move:0000000000000000 move
/var/folders/hv/f19l0kw128sbpybv1h43gz3c0000gn/T//ccojdbgc.s:737    .text.move:00000000000000ec $d
/var/folders/hv/f19l0kw128sbpybv1h43gz3c0000gn/T//ccojdbgc.s:748    .text.drawCircleNote:0000000000000000 $t
/var/folders/hv/f19l0kw128sbpybv1h43gz3c0000gn/T//ccojdbgc.s:755    .text.drawCircleNote:0000000000000000 drawCircleNote
/var/folders/hv/f19l0kw128sbpybv1h43gz3c0000gn/T//ccojdbgc.s:989    .text.drawCircleNote:00000000000000f0 $d
                            *COM*:000000000000003c noteBuffer
/var/folders/hv/f19l0kw128sbpybv1h43gz3c0000gn/T//ccojdbgc.s:997    .text.drawCircleNoteGrad:0000000000000000 $t
/var/folders/hv/f19l0kw128sbpybv1h43gz3c0000gn/T//ccojdbgc.s:1004   .text.drawCircleNoteGrad:0000000000000000 drawCircleNoteGrad
/var/folders/hv/f19l0kw128sbpybv1h43gz3c0000gn/T//ccojdbgc.s:1285   .text.drawCircleNoteGrad:0000000000000124 $d
/var/folders/hv/f19l0kw128sbpybv1h43gz3c0000gn/T//ccojdbgc.s:1294   .text.drawLine:0000000000000000 $t
/var/folders/hv/f19l0kw128sbpybv1h43gz3c0000gn/T//ccojdbgc.s:1301   .text.drawLine:0000000000000000 drawLine
/var/folders/hv/f19l0kw128sbpybv1h43gz3c0000gn/T//ccojdbgc.s:1387   .text.drawLine:0000000000000044 $d
/var/folders/hv/f19l0kw128sbpybv1h43gz3c0000gn/T//ccojdbgc.s:1392   .text.drawPixel:0000000000000000 $t
/var/folders/hv/f19l0kw128sbpybv1h43gz3c0000gn/T//ccojdbgc.s:1399   .text.drawPixel:0000000000000000 drawPixel
/var/folders/hv/f19l0kw128sbpybv1h43gz3c0000gn/T//ccojdbgc.s:1483   .text.drawPixel:0000000000000044 $d
/var/folders/hv/f19l0kw128sbpybv1h43gz3c0000gn/T//ccojdbgc.s:1488   .text.drawColor:0000000000000000 $t
/var/folders/hv/f19l0kw128sbpybv1h43gz3c0000gn/T//ccojdbgc.s:1495   .text.drawColor:0000000000000000 drawColor
/var/folders/hv/f19l0kw128sbpybv1h43gz3c0000gn/T//ccojdbgc.s:1565   .text.drawColor:0000000000000034 $d
/var/folders/hv/f19l0kw128sbpybv1h43gz3c0000gn/T//ccojdbgc.s:1570   .text.getFontLine:0000000000000000 $t
/var/folders/hv/f19l0kw128sbpybv1h43gz3c0000gn/T//ccojdbgc.s:1577   .text.getFontLine:0000000000000000 getFontLine
/var/folders/hv/f19l0kw128sbpybv1h43gz3c0000gn/T//ccojdbgc.s:1686   .text.getFontLine:0000000000000060 $d
/var/folders/hv/f19l0kw128sbpybv1h43gz3c0000gn/T//ccojdbgc.s:1691   .text.drawLetter:0000000000000000 $t
/var/folders/hv/f19l0kw128sbpybv1h43gz3c0000gn/T//ccojdbgc.s:1698   .text.drawLetter:0000000000000000 drawLetter
/var/folders/hv/f19l0kw128sbpybv1h43gz3c0000gn/T//ccojdbgc.s:1836   .text.drawLetter:0000000000000098 $d
/var/folders/hv/f19l0kw128sbpybv1h43gz3c0000gn/T//ccojdbgc.s:1841   .text.drawString:0000000000000000 $t
/var/folders/hv/f19l0kw128sbpybv1h43gz3c0000gn/T//ccojdbgc.s:1848   .text.drawString:0000000000000000 drawString
/var/folders/hv/f19l0kw128sbpybv1h43gz3c0000gn/T//ccojdbgc.s:1964   .text.checkSequence:0000000000000000 $t
/var/folders/hv/f19l0kw128sbpybv1h43gz3c0000gn/T//ccojdbgc.s:1971   .text.checkSequence:0000000000000000 checkSequence
/var/folders/hv/f19l0kw128sbpybv1h43gz3c0000gn/T//ccojdbgc.s:2105   .text.checkSequence:0000000000000078 $d
                            *COM*:0000000000000072 noteSequence
/var/folders/hv/f19l0kw128sbpybv1h43gz3c0000gn/T//ccojdbgc.s:2112   .text.drawNote:0000000000000000 $t
/var/folders/hv/f19l0kw128sbpybv1h43gz3c0000gn/T//ccojdbgc.s:2119   .text.drawNote:0000000000000000 drawNote
/var/folders/hv/f19l0kw128sbpybv1h43gz3c0000gn/T//ccojdbgc.s:2139   .text.drawCenter:0000000000000000 $t
/var/folders/hv/f19l0kw128sbpybv1h43gz3c0000gn/T//ccojdbgc.s:2146   .text.drawCenter:0000000000000000 drawCenter
/var/folders/hv/f19l0kw128sbpybv1h43gz3c0000gn/T//ccojdbgc.s:2223   .text.drawStringArray:0000000000000000 $t
/var/folders/hv/f19l0kw128sbpybv1h43gz3c0000gn/T//ccojdbgc.s:2230   .text.drawStringArray:0000000000000000 drawStringArray
/var/folders/hv/f19l0kw128sbpybv1h43gz3c0000gn/T//ccojdbgc.s:2401   .text.drawStringArray:0000000000000090 $d
/var/folders/hv/f19l0kw128sbpybv1h43gz3c0000gn/T//ccojdbgc.s:2406   .text.drawScrollingString:0000000000000000 $t
/var/folders/hv/f19l0kw128sbpybv1h43gz3c0000gn/T//ccojdbgc.s:2413   .text.drawScrollingString:0000000000000000 drawScrollingString
ARM GAS  /var/folders/hv/f19l0kw128sbpybv1h43gz3c0000gn/T//ccojdbgc.s 			page 73


/var/folders/hv/f19l0kw128sbpybv1h43gz3c0000gn/T//ccojdbgc.s:2722   .text.drawScrollingString:0000000000000154 $d
/var/folders/hv/f19l0kw128sbpybv1h43gz3c0000gn/T//ccojdbgc.s:2811   .rodata.font4x6:0000000000000000 font4x6
/var/folders/hv/f19l0kw128sbpybv1h43gz3c0000gn/T//ccojdbgc.s:2750   .data.arrColor:0000000000000000 arrColor
/var/folders/hv/f19l0kw128sbpybv1h43gz3c0000gn/T//ccojdbgc.s:2743   .bss.arr:0000000000000000 arr
/var/folders/hv/f19l0kw128sbpybv1h43gz3c0000gn/T//ccojdbgc.s:2802   .data.letterColor:0000000000000000 letterColor
/var/folders/hv/f19l0kw128sbpybv1h43gz3c0000gn/T//ccojdbgc.s:2794   .data.currColor:0000000000000000 currColor
                            *COM*:00000000000021c0 WS2812_IO_framedata
                            *COM*:0000000000000003 note
                            *COM*:0000000000000003 backColor
/var/folders/hv/f19l0kw128sbpybv1h43gz3c0000gn/T//ccojdbgc.s:2740   .bss.arr:0000000000000000 $d
/var/folders/hv/f19l0kw128sbpybv1h43gz3c0000gn/T//ccojdbgc.s:2746   .data.arrColor:0000000000000000 $d
/var/folders/hv/f19l0kw128sbpybv1h43gz3c0000gn/T//ccojdbgc.s:2791   .data.currColor:0000000000000000 $d
/var/folders/hv/f19l0kw128sbpybv1h43gz3c0000gn/T//ccojdbgc.s:2799   .data.letterColor:0000000000000000 $d
/var/folders/hv/f19l0kw128sbpybv1h43gz3c0000gn/T//ccojdbgc.s:2807   .rodata.font4x6:0000000000000000 $d

UNDEFINED SYMBOLS
setColorFB
WS2812_framedata_setPixel
setColor
__aeabi_i2f
__aeabi_fdiv
__aeabi_fsub
__aeabi_fmul
__aeabi_fcmple
__aeabi_fcmpge
strlen
setTextColor
getNoteBuffer
WS2812_sendbuf
LL_mDelay
