ARM GAS  /var/folders/hv/f19l0kw128sbpybv1h43gz3c0000gn/T//ccarbZC9.s 			page 1


   1              		.cpu cortex-m3
   2              		.eabi_attribute 20, 1
   3              		.eabi_attribute 21, 1
   4              		.eabi_attribute 23, 3
   5              		.eabi_attribute 24, 1
   6              		.eabi_attribute 25, 1
   7              		.eabi_attribute 26, 1
   8              		.eabi_attribute 30, 1
   9              		.eabi_attribute 34, 1
  10              		.eabi_attribute 18, 4
  11              		.file	"notes.c"
  12              		.text
  13              	.Ltext0:
  14              		.cfi_sections	.debug_frame
  15              		.global	__aeabi_i2f
  16              		.global	__aeabi_fmul
  17              		.global	__aeabi_f2uiz
  18              		.section	.text.calculateLeds,"ax",%progbits
  19              		.align	1
  20              		.global	calculateLeds
  21              		.arch armv7-m
  22              		.syntax unified
  23              		.thumb
  24              		.thumb_func
  25              		.fpu softvfp
  27              	calculateLeds:
  28              	.LFB3:
  29              		.file 1 "Src/notes.c"
   1:Src/notes.c   **** #include "stdint.h"
   2:Src/notes.c   **** #include "stdio.h"
   3:Src/notes.c   **** #include "string.h"
   4:Src/notes.c   **** #include "definitions.h"
   5:Src/notes.c   **** #include "notes.h"
   6:Src/notes.c   **** #include "draw.h"
   7:Src/notes.c   **** 
   8:Src/notes.c   **** volatile uint8_t cntMessage = 0;
   9:Src/notes.c   **** volatile uint8_t waitForMessage = 0;
  10:Src/notes.c   **** volatile uint8_t resto = 12;
  11:Src/notes.c   **** 
  12:Src/notes.c   **** /* NoteWord noteSequence[3] = {{{{'E', '\0', '5'}, {'C', '\0', '6'}, {'E', '\0', '6'}}, "Ola"},
  13:Src/notes.c   ****                             {{{'B', '\0', '4'}, {'F', '\0', '5'}, {'D', '\0', '6'}}, "Adeus"},
  14:Src/notes.c   ****                             {{{'A', '\0', '4'}, {'E', '\0', '5'}, {'C', '\0', '6'}}, "Xau"}}; */
  15:Src/notes.c   **** 
  16:Src/notes.c   **** NoteWord noteSequence[6] = {{{{'F', '\0', '1'}, {'D', '\0', '6'}, {'D', '\0', '6'}}, "Tecnologia"},
  17:Src/notes.c   ****                             {{{'A', '\0', '4'}, {'C', '\0', '5'}, {'F', '\0', '6'}}, "Musica"},
  18:Src/notes.c   ****                             {{{'B', '\0', '4'}, {'B', '\0', '5'}, {'G', '\0', '6'}}, "Ser"},
  19:Src/notes.c   ****                             {{{'A', '\0', '4'}, {'A', '\0', '5'}, {'A', '\0', '6'}}, "e"},
  20:Src/notes.c   ****                             {{{'F', '\0', '4'}, {'A', '\0', '5'}, {'A', '\0', '6'}}, "Saber"},
  21:Src/notes.c   ****                             {{{'A', '\0', '4'}, {'E', '\0', '5'}, {'A', '\0', '6'}}, "Ser"}};
  22:Src/notes.c   **** 
  23:Src/notes.c   **** /* NoteWord noteSequence[5] = {{{{'A', '\0', '1'}}, "What"},
  24:Src/notes.c   ****                             {{{'B', '\0', '4'}}, "The"},
  25:Src/notes.c   ****                             {{{'C', '\0', '4'}}, "Eyes"},
  26:Src/notes.c   ****                             {{{'D', '\0', '4'}}, "Cannot"},
  27:Src/notes.c   ****                             {{{'G', '\0', '4'}}, "See"}}; */
  28:Src/notes.c   **** 
  29:Src/notes.c   **** uint8_t velocity = 0;
ARM GAS  /var/folders/hv/f19l0kw128sbpybv1h43gz3c0000gn/T//ccarbZC9.s 			page 2


  30:Src/notes.c   **** 
  31:Src/notes.c   **** void calculateLeds(void)
  32:Src/notes.c   **** {
  30              		.loc 1 32 1 view -0
  31              		.cfi_startproc
  32              		@ args = 0, pretend = 0, frame = 0
  33              		@ frame_needed = 0, uses_anonymous_args = 0
  34 0000 10B5     		push	{r4, lr}
  35              	.LCFI0:
  36              		.cfi_def_cfa_offset 8
  37              		.cfi_offset 4, -8
  38              		.cfi_offset 14, -4
  33:Src/notes.c   ****   for (uint8_t z = 0; z < 3; z++)
  39              		.loc 1 33 3 view .LVU1
  40              	.LBB2:
  41              		.loc 1 33 8 view .LVU2
  42              	.LVL0:
  43              		.loc 1 33 16 is_stmt 0 view .LVU3
  44 0002 0024     		movs	r4, #0
  45              	.LVL1:
  46              	.L2:
  47              		.loc 1 33 3 discriminator 1 view .LVU4
  48 0004 022C     		cmp	r4, #2
  49 0006 1DD8     		bhi	.L5
  34:Src/notes.c   ****   {
  35:Src/notes.c   ****     backColor[z] = ((arrColor[resto][z] * (velocity + 1)) / 255) * MAX_BRIGHT;
  50              		.loc 1 35 5 is_stmt 1 discriminator 3 view .LVU5
  51              		.loc 1 35 37 is_stmt 0 discriminator 3 view .LVU6
  52 0008 0F4B     		ldr	r3, .L6
  53 000a 1B78     		ldrb	r3, [r3]	@ zero_extendqisi2
  54 000c 03EB4303 		add	r3, r3, r3, lsl #1
  55 0010 0E4A     		ldr	r2, .L6+4
  56 0012 1344     		add	r3, r3, r2
  57 0014 185D     		ldrb	r0, [r3, r4]	@ zero_extendqisi2
  58              		.loc 1 35 53 discriminator 3 view .LVU7
  59 0016 0E4B     		ldr	r3, .L6+8
  60 0018 1B78     		ldrb	r3, [r3]	@ zero_extendqisi2
  61              		.loc 1 35 41 discriminator 3 view .LVU8
  62 001a 03FB0003 		mla	r3, r3, r0, r0
  63              		.loc 1 35 59 discriminator 3 view .LVU9
  64 001e 0D48     		ldr	r0, .L6+12
  65 0020 80FB0320 		smull	r2, r0, r0, r3
  66 0024 1844     		add	r0, r0, r3
  67              		.loc 1 35 66 discriminator 3 view .LVU10
  68 0026 C011     		asrs	r0, r0, #7
  69 0028 FFF7FEFF 		bl	__aeabi_i2f
  70              	.LVL2:
  71 002c 0A4B     		ldr	r3, .L6+16
  72 002e 1968     		ldr	r1, [r3]	@ float
  73 0030 FFF7FEFF 		bl	__aeabi_fmul
  74              	.LVL3:
  75              		.loc 1 35 18 discriminator 3 view .LVU11
  76 0034 FFF7FEFF 		bl	__aeabi_f2uiz
  77              	.LVL4:
  78 0038 C0B2     		uxtb	r0, r0
  79 003a 084B     		ldr	r3, .L6+20
  80 003c 1855     		strb	r0, [r3, r4]
ARM GAS  /var/folders/hv/f19l0kw128sbpybv1h43gz3c0000gn/T//ccarbZC9.s 			page 3


  33:Src/notes.c   ****   for (uint8_t z = 0; z < 3; z++)
  81              		.loc 1 33 31 discriminator 3 view .LVU12
  82 003e 0134     		adds	r4, r4, #1
  83              	.LVL5:
  33:Src/notes.c   ****   for (uint8_t z = 0; z < 3; z++)
  84              		.loc 1 33 31 discriminator 3 view .LVU13
  85 0040 E4B2     		uxtb	r4, r4
  86              	.LVL6:
  33:Src/notes.c   ****   for (uint8_t z = 0; z < 3; z++)
  87              		.loc 1 33 31 discriminator 3 view .LVU14
  88 0042 DFE7     		b	.L2
  89              	.L5:
  33:Src/notes.c   ****   for (uint8_t z = 0; z < 3; z++)
  90              		.loc 1 33 31 discriminator 3 view .LVU15
  91              	.LBE2:
  36:Src/notes.c   ****   }
  37:Src/notes.c   **** }
  92              		.loc 1 37 1 view .LVU16
  93 0044 10BD     		pop	{r4, pc}
  94              	.LVL7:
  95              	.L7:
  96              		.loc 1 37 1 view .LVU17
  97 0046 00BF     		.align	2
  98              	.L6:
  99 0048 00000000 		.word	.LANCHOR0
 100 004c 00000000 		.word	arrColor
 101 0050 00000000 		.word	.LANCHOR1
 102 0054 81808080 		.word	-2139062143
 103 0058 00000000 		.word	MAX_BRIGHT
 104 005c 00000000 		.word	backColor
 105              		.cfi_endproc
 106              	.LFE3:
 108              		.section	.text.setVelocity,"ax",%progbits
 109              		.align	1
 110              		.global	setVelocity
 111              		.syntax unified
 112              		.thumb
 113              		.thumb_func
 114              		.fpu softvfp
 116              	setVelocity:
 117              	.LVL8:
 118              	.LFB4:
  38:Src/notes.c   **** 
  39:Src/notes.c   **** void setVelocity(uint8_t vel)
  40:Src/notes.c   **** {
 119              		.loc 1 40 1 is_stmt 1 view -0
 120              		.cfi_startproc
 121              		@ args = 0, pretend = 0, frame = 0
 122              		@ frame_needed = 0, uses_anonymous_args = 0
 123              		@ link register save eliminated.
  41:Src/notes.c   ****   velocity = vel * 2;
 124              		.loc 1 41 3 view .LVU19
 125              		.loc 1 41 12 is_stmt 0 view .LVU20
 126 0000 4000     		lsls	r0, r0, #1
 127              	.LVL9:
 128              		.loc 1 41 12 view .LVU21
 129 0002 014B     		ldr	r3, .L9
ARM GAS  /var/folders/hv/f19l0kw128sbpybv1h43gz3c0000gn/T//ccarbZC9.s 			page 4


 130 0004 1870     		strb	r0, [r3]
  42:Src/notes.c   **** }
 131              		.loc 1 42 1 view .LVU22
 132 0006 7047     		bx	lr
 133              	.L10:
 134              		.align	2
 135              	.L9:
 136 0008 00000000 		.word	.LANCHOR1
 137              		.cfi_endproc
 138              	.LFE4:
 140              		.section	.text.addNoteBuffer,"ax",%progbits
 141              		.align	1
 142              		.global	addNoteBuffer
 143              		.syntax unified
 144              		.thumb
 145              		.thumb_func
 146              		.fpu softvfp
 148              	addNoteBuffer:
 149              	.LVL10:
 150              	.LFB5:
  43:Src/notes.c   **** 
  44:Src/notes.c   **** /* void setNote(int nt)
  45:Src/notes.c   **** {
  46:Src/notes.c   ****   resto = nt % MIDI_OCTAVE;
  47:Src/notes.c   ****   note.octave = (nt / MIDI_OCTAVE) + '0';
  48:Src/notes.c   **** 
  49:Src/notes.c   ****   setTextColor(arrColor[resto]);
  50:Src/notes.c   ****   switch (resto)
  51:Src/notes.c   ****   {
  52:Src/notes.c   ****   case MIDI_C0:
  53:Src/notes.c   ****     strcpy(note.symbol, "C");
  54:Src/notes.c   ****     break;
  55:Src/notes.c   ****   case MIDI_C0 + MIDI_SHARP:
  56:Src/notes.c   ****     strcpy(note.symbol, "C#");
  57:Src/notes.c   ****     break;
  58:Src/notes.c   ****   case MIDI_D0:
  59:Src/notes.c   ****     strcpy(note.symbol, "D");
  60:Src/notes.c   ****     break;
  61:Src/notes.c   ****   case MIDI_E0 + MIDI_FLAT:
  62:Src/notes.c   ****     strcpy(note.symbol, "Eb");
  63:Src/notes.c   ****     break;
  64:Src/notes.c   ****   case MIDI_E0:
  65:Src/notes.c   ****     strcpy(note.symbol, "E");
  66:Src/notes.c   ****     break;
  67:Src/notes.c   ****   case MIDI_F0:
  68:Src/notes.c   ****     strcpy(note.symbol, "F");
  69:Src/notes.c   ****     break;
  70:Src/notes.c   ****   case MIDI_F0 + MIDI_SHARP:
  71:Src/notes.c   ****     strcpy(note.symbol, "F#");
  72:Src/notes.c   ****     break;
  73:Src/notes.c   ****   case MIDI_G0:
  74:Src/notes.c   ****     strcpy(note.symbol, "G");
  75:Src/notes.c   ****     break;
  76:Src/notes.c   ****   case MIDI_A0 + MIDI_FLAT:
  77:Src/notes.c   ****     strcpy(note.symbol, "Ab");
  78:Src/notes.c   ****     break;
  79:Src/notes.c   ****   case MIDI_A0:
ARM GAS  /var/folders/hv/f19l0kw128sbpybv1h43gz3c0000gn/T//ccarbZC9.s 			page 5


  80:Src/notes.c   ****     strcpy(note.symbol, "A");
  81:Src/notes.c   ****     break;
  82:Src/notes.c   ****   case MIDI_B0 + MIDI_FLAT:
  83:Src/notes.c   ****     strcpy(note.symbol, "Bb");
  84:Src/notes.c   ****     break;
  85:Src/notes.c   ****   case MIDI_B0:
  86:Src/notes.c   ****     strcpy(note.symbol, "B");
  87:Src/notes.c   ****     break;
  88:Src/notes.c   ****   }
  89:Src/notes.c   ****   sprintf(note.note, "%s%c", note.symbol, note.octave);
  90:Src/notes.c   ****   for (size_t k = ARRAY_LEN(noteBuffer); k > 0; k--)
  91:Src/notes.c   ****   {
  92:Src/notes.c   ****     strcpy(noteBuffer[k].note, noteBuffer[k - 1].note);
  93:Src/notes.c   ****   }
  94:Src/notes.c   ****   sprintf(noteBuffer[0].note, "%s%c", note.note, ' ');
  95:Src/notes.c   ****   // setBackColor(arrColor[resto]);
  96:Src/notes.c   **** } */
  97:Src/notes.c   **** 
  98:Src/notes.c   **** void addNoteBuffer(uint8_t *color)
  99:Src/notes.c   **** {
 151              		.loc 1 99 1 is_stmt 1 view -0
 152              		.cfi_startproc
 153              		@ args = 0, pretend = 0, frame = 0
 154              		@ frame_needed = 0, uses_anonymous_args = 0
 155              		.loc 1 99 1 is_stmt 0 view .LVU24
 156 0000 F8B5     		push	{r3, r4, r5, r6, r7, lr}
 157              	.LCFI1:
 158              		.cfi_def_cfa_offset 24
 159              		.cfi_offset 3, -24
 160              		.cfi_offset 4, -20
 161              		.cfi_offset 5, -16
 162              		.cfi_offset 6, -12
 163              		.cfi_offset 7, -8
 164              		.cfi_offset 14, -4
 165 0002 0146     		mov	r1, r0
 100:Src/notes.c   ****   for (uint8_t k = ARRAY_LEN(noteBuffer); k > 0; k--)
 166              		.loc 1 100 3 is_stmt 1 view .LVU25
 167              	.LBB3:
 168              		.loc 1 100 8 view .LVU26
 169              	.LVL11:
 170              		.loc 1 100 16 is_stmt 0 view .LVU27
 171 0004 0A23     		movs	r3, #10
 172              	.LVL12:
 173              	.L12:
 174              		.loc 1 100 3 discriminator 1 view .LVU28
 175 0006 7BB1     		cbz	r3, .L15
 101:Src/notes.c   ****   {
 102:Src/notes.c   ****     noteBuffer[k] = noteBuffer[k - 1];
 176              		.loc 1 102 5 is_stmt 1 discriminator 3 view .LVU29
 177              		.loc 1 102 34 is_stmt 0 discriminator 3 view .LVU30
 178 0008 5A1E     		subs	r2, r3, #1
 179              		.loc 1 102 19 discriminator 3 view .LVU31
 180 000a 0C4D     		ldr	r5, .L16
 181 000c 03EB4303 		add	r3, r3, r3, lsl #1
 182              	.LVL13:
 183              		.loc 1 102 19 discriminator 3 view .LVU32
 184 0010 5C00     		lsls	r4, r3, #1
ARM GAS  /var/folders/hv/f19l0kw128sbpybv1h43gz3c0000gn/T//ccarbZC9.s 			page 6


 185 0012 2F19     		adds	r7, r5, r4
 186 0014 02EB4206 		add	r6, r2, r2, lsl #1
 187 0018 7300     		lsls	r3, r6, #1
 188 001a 2B44     		add	r3, r3, r5
 189 001c 1E68     		ldr	r6, [r3]	@ unaligned
 190 001e 2E51     		str	r6, [r5, r4]	@ unaligned
 191 0020 9B88     		ldrh	r3, [r3, #4]	@ unaligned
 192 0022 BB80     		strh	r3, [r7, #4]	@ unaligned
 100:Src/notes.c   ****   for (uint8_t k = ARRAY_LEN(noteBuffer); k > 0; k--)
 193              		.loc 1 100 51 discriminator 3 view .LVU33
 194 0024 D3B2     		uxtb	r3, r2
 195              	.LVL14:
 100:Src/notes.c   ****   for (uint8_t k = ARRAY_LEN(noteBuffer); k > 0; k--)
 196              		.loc 1 100 51 discriminator 3 view .LVU34
 197 0026 EEE7     		b	.L12
 198              	.L15:
 100:Src/notes.c   ****   for (uint8_t k = ARRAY_LEN(noteBuffer); k > 0; k--)
 199              		.loc 1 100 51 discriminator 3 view .LVU35
 200              	.LBE3:
 103:Src/notes.c   ****   }
 104:Src/notes.c   ****   noteBuffer[0].note = note;
 201              		.loc 1 104 3 is_stmt 1 view .LVU36
 202              		.loc 1 104 22 is_stmt 0 view .LVU37
 203 0028 044B     		ldr	r3, .L16
 204              	.LVL15:
 205              		.loc 1 104 22 view .LVU38
 206 002a 054A     		ldr	r2, .L16+4
 207 002c 1088     		ldrh	r0, [r2]	@ unaligned
 208              	.LVL16:
 209              		.loc 1 104 22 view .LVU39
 210 002e 9278     		ldrb	r2, [r2, #2]	@ zero_extendqisi2
 211 0030 1880     		strh	r0, [r3]	@ unaligned
 212 0032 9A70     		strb	r2, [r3, #2]
 105:Src/notes.c   ****   setColor(noteBuffer[0].color, color);
 213              		.loc 1 105 3 is_stmt 1 view .LVU40
 214 0034 D81C     		adds	r0, r3, #3
 215 0036 FFF7FEFF 		bl	setColor
 216              	.LVL17:
 106:Src/notes.c   **** }
 217              		.loc 1 106 1 is_stmt 0 view .LVU41
 218 003a F8BD     		pop	{r3, r4, r5, r6, r7, pc}
 219              	.L17:
 220              		.align	2
 221              	.L16:
 222 003c 00000000 		.word	noteBuffer
 223 0040 00000000 		.word	note
 224              		.cfi_endproc
 225              	.LFE5:
 227              		.section	.text.setNote,"ax",%progbits
 228              		.align	1
 229              		.global	setNote
 230              		.syntax unified
 231              		.thumb
 232              		.thumb_func
 233              		.fpu softvfp
 235              	setNote:
 236              	.LVL18:
ARM GAS  /var/folders/hv/f19l0kw128sbpybv1h43gz3c0000gn/T//ccarbZC9.s 			page 7


 237              	.LFB6:
 107:Src/notes.c   **** 
 108:Src/notes.c   **** void setNote(int nt)
 109:Src/notes.c   **** {
 238              		.loc 1 109 1 is_stmt 1 view -0
 239              		.cfi_startproc
 240              		@ args = 0, pretend = 0, frame = 0
 241              		@ frame_needed = 0, uses_anonymous_args = 0
 242              		.loc 1 109 1 is_stmt 0 view .LVU43
 243 0000 08B5     		push	{r3, lr}
 244              	.LCFI2:
 245              		.cfi_def_cfa_offset 8
 246              		.cfi_offset 3, -8
 247              		.cfi_offset 14, -4
 110:Src/notes.c   ****   resto = nt % MIDI_OCTAVE;
 248              		.loc 1 110 3 is_stmt 1 view .LVU44
 249              		.loc 1 110 14 is_stmt 0 view .LVU45
 250 0002 304A     		ldr	r2, .L34
 251 0004 82FB0032 		smull	r3, r2, r2, r0
 252 0008 C317     		asrs	r3, r0, #31
 253 000a C3EB6203 		rsb	r3, r3, r2, asr #1
 254 000e 1A46     		mov	r2, r3
 255 0010 03EB4303 		add	r3, r3, r3, lsl #1
 256 0014 9900     		lsls	r1, r3, #2
 257 0016 431A     		subs	r3, r0, r1
 258              		.loc 1 110 9 view .LVU46
 259 0018 DBB2     		uxtb	r3, r3
 260 001a 2B49     		ldr	r1, .L34+4
 261 001c 0B70     		strb	r3, [r1]
 111:Src/notes.c   ****   note.octave = (nt / MIDI_OCTAVE) + '0';
 262              		.loc 1 111 3 is_stmt 1 view .LVU47
 263              		.loc 1 111 36 is_stmt 0 view .LVU48
 264 001e 3032     		adds	r2, r2, #48
 265              		.loc 1 111 15 view .LVU49
 266 0020 2A4B     		ldr	r3, .L34+8
 267 0022 9A70     		strb	r2, [r3, #2]
 112:Src/notes.c   ****   note.pitch = '\0';
 268              		.loc 1 112 3 is_stmt 1 view .LVU50
 269              		.loc 1 112 14 is_stmt 0 view .LVU51
 270 0024 0022     		movs	r2, #0
 271 0026 5A70     		strb	r2, [r3, #1]
 113:Src/notes.c   ****   // setTextColor(arrColor[resto]);
 114:Src/notes.c   ****   switch (resto)
 272              		.loc 1 114 3 is_stmt 1 view .LVU52
 273 0028 0B78     		ldrb	r3, [r1]	@ zero_extendqisi2
 274 002a DBB2     		uxtb	r3, r3
 275 002c 0B2B     		cmp	r3, #11
 276 002e 0AD8     		bhi	.L19
 277 0030 DFE803F0 		tbb	[pc, r3]
 278              	.L21:
 279 0034 06       		.byte	(.L32-.L21)/2
 280 0035 12       		.byte	(.L31-.L21)/2
 281 0036 18       		.byte	(.L30-.L21)/2
 282 0037 1C       		.byte	(.L29-.L21)/2
 283 0038 22       		.byte	(.L28-.L21)/2
 284 0039 26       		.byte	(.L27-.L21)/2
 285 003a 2A       		.byte	(.L26-.L21)/2
ARM GAS  /var/folders/hv/f19l0kw128sbpybv1h43gz3c0000gn/T//ccarbZC9.s 			page 8


 286 003b 30       		.byte	(.L25-.L21)/2
 287 003c 34       		.byte	(.L24-.L21)/2
 288 003d 3A       		.byte	(.L23-.L21)/2
 289 003e 3E       		.byte	(.L22-.L21)/2
 290 003f 44       		.byte	(.L20-.L21)/2
 291              		.p2align 1
 292              	.L32:
 115:Src/notes.c   ****   {
 116:Src/notes.c   ****   case MIDI_C0:
 117:Src/notes.c   ****     note.symbol = 'C';
 293              		.loc 1 117 5 view .LVU53
 294              		.loc 1 117 17 is_stmt 0 view .LVU54
 295 0040 224B     		ldr	r3, .L34+8
 296 0042 4322     		movs	r2, #67
 297 0044 1A70     		strb	r2, [r3]
 118:Src/notes.c   ****     break;
 298              		.loc 1 118 5 is_stmt 1 view .LVU55
 299              	.L19:
 119:Src/notes.c   ****   case MIDI_C0 + MIDI_SHARP:
 120:Src/notes.c   ****     note.symbol = 'C';
 121:Src/notes.c   ****     note.pitch = '#';
 122:Src/notes.c   ****     break;
 123:Src/notes.c   ****   case MIDI_D0:
 124:Src/notes.c   ****     note.symbol = 'D';
 125:Src/notes.c   ****     break;
 126:Src/notes.c   ****   case MIDI_E0 + MIDI_FLAT:
 127:Src/notes.c   ****     note.symbol = 'E';
 128:Src/notes.c   ****     note.pitch = 'b';
 129:Src/notes.c   ****     break;
 130:Src/notes.c   ****   case MIDI_E0:
 131:Src/notes.c   ****     note.symbol = 'E';
 132:Src/notes.c   ****     break;
 133:Src/notes.c   ****   case MIDI_F0:
 134:Src/notes.c   ****     note.symbol = 'F';
 135:Src/notes.c   ****     break;
 136:Src/notes.c   ****   case MIDI_F0 + MIDI_SHARP:
 137:Src/notes.c   ****     note.symbol = 'F';
 138:Src/notes.c   ****     note.pitch = '#';
 139:Src/notes.c   ****     break;
 140:Src/notes.c   ****   case MIDI_G0:
 141:Src/notes.c   ****     note.symbol = 'G';
 142:Src/notes.c   ****     break;
 143:Src/notes.c   ****   case MIDI_A0 + MIDI_FLAT:
 144:Src/notes.c   ****     note.symbol = 'A';
 145:Src/notes.c   ****     note.pitch = 'b';
 146:Src/notes.c   ****     break;
 147:Src/notes.c   ****   case MIDI_A0:
 148:Src/notes.c   ****     note.symbol = 'A';
 149:Src/notes.c   ****     break;
 150:Src/notes.c   ****   case MIDI_B0 + MIDI_FLAT:
 151:Src/notes.c   ****     note.symbol = 'B';
 152:Src/notes.c   ****     note.pitch = 'b';
 153:Src/notes.c   ****     break;
 154:Src/notes.c   ****   case MIDI_B0:
 155:Src/notes.c   ****     note.symbol = 'B';
 156:Src/notes.c   ****     break;
 157:Src/notes.c   ****   }
ARM GAS  /var/folders/hv/f19l0kw128sbpybv1h43gz3c0000gn/T//ccarbZC9.s 			page 9


 158:Src/notes.c   ****   addNoteBuffer(arrColor[resto]);
 300              		.loc 1 158 3 view .LVU56
 301              		.loc 1 158 25 is_stmt 0 view .LVU57
 302 0046 204B     		ldr	r3, .L34+4
 303 0048 1878     		ldrb	r0, [r3]	@ zero_extendqisi2
 304              	.LVL19:
 305              		.loc 1 158 25 view .LVU58
 306 004a 00EB4000 		add	r0, r0, r0, lsl #1
 307              		.loc 1 158 3 view .LVU59
 308 004e 204B     		ldr	r3, .L34+12
 309 0050 1844     		add	r0, r0, r3
 310 0052 FFF7FEFF 		bl	addNoteBuffer
 311              	.LVL20:
 159:Src/notes.c   **** }
 312              		.loc 1 159 1 view .LVU60
 313 0056 08BD     		pop	{r3, pc}
 314              	.LVL21:
 315              	.L31:
 120:Src/notes.c   ****     note.pitch = '#';
 316              		.loc 1 120 5 is_stmt 1 view .LVU61
 120:Src/notes.c   ****     note.pitch = '#';
 317              		.loc 1 120 17 is_stmt 0 view .LVU62
 318 0058 1C4B     		ldr	r3, .L34+8
 319 005a 4322     		movs	r2, #67
 320 005c 1A70     		strb	r2, [r3]
 121:Src/notes.c   ****     break;
 321              		.loc 1 121 5 is_stmt 1 view .LVU63
 121:Src/notes.c   ****     break;
 322              		.loc 1 121 16 is_stmt 0 view .LVU64
 323 005e 2322     		movs	r2, #35
 324 0060 5A70     		strb	r2, [r3, #1]
 122:Src/notes.c   ****   case MIDI_D0:
 325              		.loc 1 122 5 is_stmt 1 view .LVU65
 326 0062 F0E7     		b	.L19
 327              	.L30:
 124:Src/notes.c   ****     break;
 328              		.loc 1 124 5 view .LVU66
 124:Src/notes.c   ****     break;
 329              		.loc 1 124 17 is_stmt 0 view .LVU67
 330 0064 194B     		ldr	r3, .L34+8
 331 0066 4422     		movs	r2, #68
 332 0068 1A70     		strb	r2, [r3]
 125:Src/notes.c   ****   case MIDI_E0 + MIDI_FLAT:
 333              		.loc 1 125 5 is_stmt 1 view .LVU68
 334 006a ECE7     		b	.L19
 335              	.L29:
 127:Src/notes.c   ****     note.pitch = 'b';
 336              		.loc 1 127 5 view .LVU69
 127:Src/notes.c   ****     note.pitch = 'b';
 337              		.loc 1 127 17 is_stmt 0 view .LVU70
 338 006c 174B     		ldr	r3, .L34+8
 339 006e 4522     		movs	r2, #69
 340 0070 1A70     		strb	r2, [r3]
 128:Src/notes.c   ****     break;
 341              		.loc 1 128 5 is_stmt 1 view .LVU71
 128:Src/notes.c   ****     break;
 342              		.loc 1 128 16 is_stmt 0 view .LVU72
ARM GAS  /var/folders/hv/f19l0kw128sbpybv1h43gz3c0000gn/T//ccarbZC9.s 			page 10


 343 0072 6222     		movs	r2, #98
 344 0074 5A70     		strb	r2, [r3, #1]
 129:Src/notes.c   ****   case MIDI_E0:
 345              		.loc 1 129 5 is_stmt 1 view .LVU73
 346 0076 E6E7     		b	.L19
 347              	.L28:
 131:Src/notes.c   ****     break;
 348              		.loc 1 131 5 view .LVU74
 131:Src/notes.c   ****     break;
 349              		.loc 1 131 17 is_stmt 0 view .LVU75
 350 0078 144B     		ldr	r3, .L34+8
 351 007a 4522     		movs	r2, #69
 352 007c 1A70     		strb	r2, [r3]
 132:Src/notes.c   ****   case MIDI_F0:
 353              		.loc 1 132 5 is_stmt 1 view .LVU76
 354 007e E2E7     		b	.L19
 355              	.L27:
 134:Src/notes.c   ****     break;
 356              		.loc 1 134 5 view .LVU77
 134:Src/notes.c   ****     break;
 357              		.loc 1 134 17 is_stmt 0 view .LVU78
 358 0080 124B     		ldr	r3, .L34+8
 359 0082 4622     		movs	r2, #70
 360 0084 1A70     		strb	r2, [r3]
 135:Src/notes.c   ****   case MIDI_F0 + MIDI_SHARP:
 361              		.loc 1 135 5 is_stmt 1 view .LVU79
 362 0086 DEE7     		b	.L19
 363              	.L26:
 137:Src/notes.c   ****     note.pitch = '#';
 364              		.loc 1 137 5 view .LVU80
 137:Src/notes.c   ****     note.pitch = '#';
 365              		.loc 1 137 17 is_stmt 0 view .LVU81
 366 0088 104B     		ldr	r3, .L34+8
 367 008a 4622     		movs	r2, #70
 368 008c 1A70     		strb	r2, [r3]
 138:Src/notes.c   ****     break;
 369              		.loc 1 138 5 is_stmt 1 view .LVU82
 138:Src/notes.c   ****     break;
 370              		.loc 1 138 16 is_stmt 0 view .LVU83
 371 008e 2322     		movs	r2, #35
 372 0090 5A70     		strb	r2, [r3, #1]
 139:Src/notes.c   ****   case MIDI_G0:
 373              		.loc 1 139 5 is_stmt 1 view .LVU84
 374 0092 D8E7     		b	.L19
 375              	.L25:
 141:Src/notes.c   ****     break;
 376              		.loc 1 141 5 view .LVU85
 141:Src/notes.c   ****     break;
 377              		.loc 1 141 17 is_stmt 0 view .LVU86
 378 0094 0D4B     		ldr	r3, .L34+8
 379 0096 4722     		movs	r2, #71
 380 0098 1A70     		strb	r2, [r3]
 142:Src/notes.c   ****   case MIDI_A0 + MIDI_FLAT:
 381              		.loc 1 142 5 is_stmt 1 view .LVU87
 382 009a D4E7     		b	.L19
 383              	.L24:
 144:Src/notes.c   ****     note.pitch = 'b';
ARM GAS  /var/folders/hv/f19l0kw128sbpybv1h43gz3c0000gn/T//ccarbZC9.s 			page 11


 384              		.loc 1 144 5 view .LVU88
 144:Src/notes.c   ****     note.pitch = 'b';
 385              		.loc 1 144 17 is_stmt 0 view .LVU89
 386 009c 0B4B     		ldr	r3, .L34+8
 387 009e 4122     		movs	r2, #65
 388 00a0 1A70     		strb	r2, [r3]
 145:Src/notes.c   ****     break;
 389              		.loc 1 145 5 is_stmt 1 view .LVU90
 145:Src/notes.c   ****     break;
 390              		.loc 1 145 16 is_stmt 0 view .LVU91
 391 00a2 6222     		movs	r2, #98
 392 00a4 5A70     		strb	r2, [r3, #1]
 146:Src/notes.c   ****   case MIDI_A0:
 393              		.loc 1 146 5 is_stmt 1 view .LVU92
 394 00a6 CEE7     		b	.L19
 395              	.L23:
 148:Src/notes.c   ****     break;
 396              		.loc 1 148 5 view .LVU93
 148:Src/notes.c   ****     break;
 397              		.loc 1 148 17 is_stmt 0 view .LVU94
 398 00a8 084B     		ldr	r3, .L34+8
 399 00aa 4122     		movs	r2, #65
 400 00ac 1A70     		strb	r2, [r3]
 149:Src/notes.c   ****   case MIDI_B0 + MIDI_FLAT:
 401              		.loc 1 149 5 is_stmt 1 view .LVU95
 402 00ae CAE7     		b	.L19
 403              	.L22:
 151:Src/notes.c   ****     note.pitch = 'b';
 404              		.loc 1 151 5 view .LVU96
 151:Src/notes.c   ****     note.pitch = 'b';
 405              		.loc 1 151 17 is_stmt 0 view .LVU97
 406 00b0 064B     		ldr	r3, .L34+8
 407 00b2 4222     		movs	r2, #66
 408 00b4 1A70     		strb	r2, [r3]
 152:Src/notes.c   ****     break;
 409              		.loc 1 152 5 is_stmt 1 view .LVU98
 152:Src/notes.c   ****     break;
 410              		.loc 1 152 16 is_stmt 0 view .LVU99
 411 00b6 6222     		movs	r2, #98
 412 00b8 5A70     		strb	r2, [r3, #1]
 153:Src/notes.c   ****   case MIDI_B0:
 413              		.loc 1 153 5 is_stmt 1 view .LVU100
 414 00ba C4E7     		b	.L19
 415              	.L20:
 155:Src/notes.c   ****     break;
 416              		.loc 1 155 5 view .LVU101
 155:Src/notes.c   ****     break;
 417              		.loc 1 155 17 is_stmt 0 view .LVU102
 418 00bc 034B     		ldr	r3, .L34+8
 419 00be 4222     		movs	r2, #66
 420 00c0 1A70     		strb	r2, [r3]
 156:Src/notes.c   ****   }
 421              		.loc 1 156 5 is_stmt 1 view .LVU103
 422 00c2 C0E7     		b	.L19
 423              	.L35:
 424              		.align	2
 425              	.L34:
ARM GAS  /var/folders/hv/f19l0kw128sbpybv1h43gz3c0000gn/T//ccarbZC9.s 			page 12


 426 00c4 ABAAAA2A 		.word	715827883
 427 00c8 00000000 		.word	.LANCHOR0
 428 00cc 00000000 		.word	note
 429 00d0 00000000 		.word	arrColor
 430              		.cfi_endproc
 431              	.LFE6:
 433              		.section	.text.getNoteBuffer,"ax",%progbits
 434              		.align	1
 435              		.global	getNoteBuffer
 436              		.syntax unified
 437              		.thumb
 438              		.thumb_func
 439              		.fpu softvfp
 441              	getNoteBuffer:
 442              	.LVL22:
 443              	.LFB7:
 160:Src/notes.c   **** 
 161:Src/notes.c   **** char getNoteBuffer(uint8_t index, uint8_t field)
 162:Src/notes.c   **** {
 444              		.loc 1 162 1 view -0
 445              		.cfi_startproc
 446              		@ args = 0, pretend = 0, frame = 0
 447              		@ frame_needed = 0, uses_anonymous_args = 0
 448              		@ link register save eliminated.
 163:Src/notes.c   ****   switch (field)
 449              		.loc 1 163 3 view .LVU105
 450 0000 0129     		cmp	r1, #1
 451 0002 0BD0     		beq	.L37
 452 0004 4BB2     		sxtb	r3, r1
 453 0006 1BB1     		cbz	r3, .L38
 454 0008 0229     		cmp	r1, #2
 455 000a 0ED0     		beq	.L39
 164:Src/notes.c   ****   {
 165:Src/notes.c   ****   case 0:
 166:Src/notes.c   ****     return noteBuffer[index].note.symbol;
 167:Src/notes.c   ****   case 1:
 168:Src/notes.c   ****     return noteBuffer[index].note.pitch;
 169:Src/notes.c   ****   case 2:
 170:Src/notes.c   ****     return noteBuffer[index].note.octave;
 171:Src/notes.c   ****   default:
 172:Src/notes.c   ****     return '\0';
 456              		.loc 1 172 12 is_stmt 0 view .LVU106
 457 000c 0020     		movs	r0, #0
 458              	.LVL23:
 459              		.loc 1 172 12 view .LVU107
 460 000e 7047     		bx	lr
 461              	.LVL24:
 462              	.L38:
 166:Src/notes.c   ****   case 1:
 463              		.loc 1 166 5 is_stmt 1 view .LVU108
 166:Src/notes.c   ****   case 1:
 464              		.loc 1 166 34 is_stmt 0 view .LVU109
 465 0010 00EB4000 		add	r0, r0, r0, lsl #1
 466              	.LVL25:
 166:Src/notes.c   ****   case 1:
 467              		.loc 1 166 34 view .LVU110
 468 0014 4300     		lsls	r3, r0, #1
ARM GAS  /var/folders/hv/f19l0kw128sbpybv1h43gz3c0000gn/T//ccarbZC9.s 			page 13


 469 0016 084A     		ldr	r2, .L41
 470 0018 D05C     		ldrb	r0, [r2, r3]	@ zero_extendqisi2
 471 001a 7047     		bx	lr
 472              	.LVL26:
 473              	.L37:
 168:Src/notes.c   ****   case 2:
 474              		.loc 1 168 5 is_stmt 1 view .LVU111
 168:Src/notes.c   ****   case 2:
 475              		.loc 1 168 34 is_stmt 0 view .LVU112
 476 001c 00EB4000 		add	r0, r0, r0, lsl #1
 477              	.LVL27:
 168:Src/notes.c   ****   case 2:
 478              		.loc 1 168 34 view .LVU113
 479 0020 4200     		lsls	r2, r0, #1
 480 0022 054B     		ldr	r3, .L41
 481 0024 1344     		add	r3, r3, r2
 482 0026 5878     		ldrb	r0, [r3, #1]	@ zero_extendqisi2
 483 0028 7047     		bx	lr
 484              	.LVL28:
 485              	.L39:
 170:Src/notes.c   ****   default:
 486              		.loc 1 170 5 is_stmt 1 view .LVU114
 170:Src/notes.c   ****   default:
 487              		.loc 1 170 34 is_stmt 0 view .LVU115
 488 002a 00EB4000 		add	r0, r0, r0, lsl #1
 489              	.LVL29:
 170:Src/notes.c   ****   default:
 490              		.loc 1 170 34 view .LVU116
 491 002e 4200     		lsls	r2, r0, #1
 492 0030 014B     		ldr	r3, .L41
 493 0032 1344     		add	r3, r3, r2
 494 0034 9878     		ldrb	r0, [r3, #2]	@ zero_extendqisi2
 173:Src/notes.c   ****   }
 174:Src/notes.c   **** }
 495              		.loc 1 174 1 view .LVU117
 496 0036 7047     		bx	lr
 497              	.L42:
 498              		.align	2
 499              	.L41:
 500 0038 00000000 		.word	noteBuffer
 501              		.cfi_endproc
 502              	.LFE7:
 504              		.section	.text.clearNoteBuffer,"ax",%progbits
 505              		.align	1
 506              		.global	clearNoteBuffer
 507              		.syntax unified
 508              		.thumb
 509              		.thumb_func
 510              		.fpu softvfp
 512              	clearNoteBuffer:
 513              	.LFB8:
 175:Src/notes.c   **** 
 176:Src/notes.c   **** void clearNoteBuffer(void)
 177:Src/notes.c   **** {
 514              		.loc 1 177 1 is_stmt 1 view -0
 515              		.cfi_startproc
 516              		@ args = 0, pretend = 0, frame = 0
ARM GAS  /var/folders/hv/f19l0kw128sbpybv1h43gz3c0000gn/T//ccarbZC9.s 			page 14


 517              		@ frame_needed = 0, uses_anonymous_args = 0
 518              		@ link register save eliminated.
 178:Src/notes.c   ****   uint8_t i;
 519              		.loc 1 178 3 view .LVU119
 179:Src/notes.c   ****   for (uint8_t z = 0; z < ARRAY_LEN(noteBuffer); z++)
 520              		.loc 1 179 3 view .LVU120
 521              	.LBB4:
 522              		.loc 1 179 8 view .LVU121
 523              	.LVL30:
 524              		.loc 1 179 16 is_stmt 0 view .LVU122
 525 0000 0020     		movs	r0, #0
 526              	.LVL31:
 527              		.loc 1 179 3 view .LVU123
 528 0002 0928     		cmp	r0, #9
 529 0004 1ED8     		bhi	.L51
 530              	.LBE4:
 177:Src/notes.c   ****   uint8_t i;
 531              		.loc 1 177 1 view .LVU124
 532 0006 30B4     		push	{r4, r5}
 533              	.LCFI3:
 534              		.cfi_def_cfa_offset 8
 535              		.cfi_offset 4, -8
 536              		.cfi_offset 5, -4
 537 0008 03E0     		b	.L47
 538              	.LVL32:
 539              	.L53:
 540              	.LBB5:
 541              		.loc 1 179 51 discriminator 2 view .LVU125
 542 000a 0130     		adds	r0, r0, #1
 543              	.LVL33:
 544              		.loc 1 179 51 discriminator 2 view .LVU126
 545 000c C0B2     		uxtb	r0, r0
 546              	.LVL34:
 547              		.loc 1 179 3 discriminator 2 view .LVU127
 548 000e 0928     		cmp	r0, #9
 549 0010 16D8     		bhi	.L52
 550              	.LVL35:
 551              	.L47:
 180:Src/notes.c   ****   {
 181:Src/notes.c   ****     noteBuffer[z].note.symbol = '\0';
 552              		.loc 1 181 5 is_stmt 1 view .LVU128
 553              		.loc 1 181 23 is_stmt 0 view .LVU129
 554 0012 0446     		mov	r4, r0
 555              		.loc 1 181 31 view .LVU130
 556 0014 0C4D     		ldr	r5, .L54
 557 0016 4300     		lsls	r3, r0, #1
 558 0018 0344     		add	r3, r3, r0
 559 001a 5A00     		lsls	r2, r3, #1
 560 001c A918     		adds	r1, r5, r2
 561 001e 0023     		movs	r3, #0
 562 0020 AB54     		strb	r3, [r5, r2]
 182:Src/notes.c   ****     noteBuffer[z].note.pitch = '\0';
 563              		.loc 1 182 5 is_stmt 1 view .LVU131
 564              		.loc 1 182 30 is_stmt 0 view .LVU132
 565 0022 4B70     		strb	r3, [r1, #1]
 183:Src/notes.c   ****     noteBuffer[z].note.octave = '\0';
 566              		.loc 1 183 5 is_stmt 1 view .LVU133
ARM GAS  /var/folders/hv/f19l0kw128sbpybv1h43gz3c0000gn/T//ccarbZC9.s 			page 15


 567              		.loc 1 183 31 is_stmt 0 view .LVU134
 568 0024 8B70     		strb	r3, [r1, #2]
 184:Src/notes.c   ****     for (i = 0; i < 3; i++)
 569              		.loc 1 184 5 is_stmt 1 view .LVU135
 570              	.LVL36:
 571              	.L45:
 572              		.loc 1 184 5 is_stmt 0 discriminator 1 view .LVU136
 573 0026 022B     		cmp	r3, #2
 574 0028 EFD8     		bhi	.L53
 185:Src/notes.c   ****     {
 186:Src/notes.c   ****       noteBuffer[z].color[i] = 0;
 575              		.loc 1 186 7 is_stmt 1 discriminator 3 view .LVU137
 576              		.loc 1 186 30 is_stmt 0 discriminator 3 view .LVU138
 577 002a 04EB4402 		add	r2, r4, r4, lsl #1
 578 002e 5100     		lsls	r1, r2, #1
 579 0030 054A     		ldr	r2, .L54
 580 0032 0A44     		add	r2, r2, r1
 581 0034 1A44     		add	r2, r2, r3
 582 0036 0021     		movs	r1, #0
 583 0038 D170     		strb	r1, [r2, #3]
 184:Src/notes.c   ****     for (i = 0; i < 3; i++)
 584              		.loc 1 184 25 discriminator 3 view .LVU139
 585 003a 0133     		adds	r3, r3, #1
 586              	.LVL37:
 184:Src/notes.c   ****     for (i = 0; i < 3; i++)
 587              		.loc 1 184 25 discriminator 3 view .LVU140
 588 003c DBB2     		uxtb	r3, r3
 589              	.LVL38:
 184:Src/notes.c   ****     for (i = 0; i < 3; i++)
 590              		.loc 1 184 25 discriminator 3 view .LVU141
 591 003e F2E7     		b	.L45
 592              	.L52:
 184:Src/notes.c   ****     for (i = 0; i < 3; i++)
 593              		.loc 1 184 25 discriminator 3 view .LVU142
 594              	.LBE5:
 187:Src/notes.c   ****     }
 188:Src/notes.c   ****   }
 189:Src/notes.c   **** }...
 595              		.loc 1 189 1 view .LVU143
 596 0040 30BC     		pop	{r4, r5}
 597              	.LCFI4:
 598              		.cfi_restore 5
 599              		.cfi_restore 4
 600              		.cfi_def_cfa_offset 0
 601 0042 7047     		bx	lr
 602              	.LVL39:
 603              	.L51:
 604              		.loc 1 189 1 view .LVU144
 605 0044 7047     		bx	lr
 606              	.L55:
 607 0046 00BF     		.align	2
 608              	.L54:
 609 0048 00000000 		.word	noteBuffer
 610              		.cfi_endproc
 611              	.LFE8:
 613              		.global	velocity
 614              		.global	resto
ARM GAS  /var/folders/hv/f19l0kw128sbpybv1h43gz3c0000gn/T//ccarbZC9.s 			page 16


 615              		.global	waitForMessage
 616              		.global	cntMessage
 617              		.comm	noteBuffer,60,4
 618              		.global	noteSequence
 619              		.comm	note,3,4
 620              		.comm	textColor,3,4
 621              		.comm	backColor,3,4
 622              		.comm	textLayer,32,4
 623              		.comm	backLayer,768,4
 624              		.section	.bss.cntMessage,"aw",%nobits
 627              	cntMessage:
 628 0000 00       		.space	1
 629              		.section	.bss.velocity,"aw",%nobits
 630              		.set	.LANCHOR1,. + 0
 633              	velocity:
 634 0000 00       		.space	1
 635              		.section	.bss.waitForMessage,"aw",%nobits
 638              	waitForMessage:
 639 0000 00       		.space	1
 640              		.section	.data.noteSequence,"aw"
 641              		.align	2
 644              	noteSequence:
 645 0000 46       		.byte	70
 646 0001 00       		.byte	0
 647 0002 31       		.byte	49
 648 0003 44       		.byte	68
 649 0004 00       		.byte	0
 650 0005 36       		.byte	54
 651 0006 44       		.byte	68
 652 0007 00       		.byte	0
 653 0008 36       		.byte	54
 654 0009 5465636E 		.ascii	"Tecnologia"
 654      6F6C6F67 
 654      6961
 655 0013 41       		.byte	65
 656 0014 00       		.byte	0
 657 0015 34       		.byte	52
 658 0016 43       		.byte	67
 659 0017 00       		.byte	0
 660 0018 35       		.byte	53
 661 0019 46       		.byte	70
 662 001a 00       		.byte	0
 663 001b 36       		.byte	54
 664 001c 4D757369 		.ascii	"Musica\000"
 664      636100
 665 0023 000000   		.space	3
 666 0026 42       		.byte	66
 667 0027 00       		.byte	0
 668 0028 34       		.byte	52
 669 0029 42       		.byte	66
 670 002a 00       		.byte	0
 671 002b 35       		.byte	53
 672 002c 47       		.byte	71
 673 002d 00       		.byte	0
 674 002e 36       		.byte	54
 675 002f 53657200 		.ascii	"Ser\000"
 676 0033 00000000 		.space	6
ARM GAS  /var/folders/hv/f19l0kw128sbpybv1h43gz3c0000gn/T//ccarbZC9.s 			page 17


 676      0000
 677 0039 41       		.byte	65
 678 003a 00       		.byte	0
 679 003b 34       		.byte	52
 680 003c 41       		.byte	65
 681 003d 00       		.byte	0
 682 003e 35       		.byte	53
 683 003f 41       		.byte	65
 684 0040 00       		.byte	0
 685 0041 36       		.byte	54
 686 0042 6500     		.ascii	"e\000"
 687 0044 00000000 		.space	8
 687      00000000 
 688 004c 46       		.byte	70
 689 004d 00       		.byte	0
 690 004e 34       		.byte	52
 691 004f 41       		.byte	65
 692 0050 00       		.byte	0
 693 0051 35       		.byte	53
 694 0052 41       		.byte	65
 695 0053 00       		.byte	0
 696 0054 36       		.byte	54
 697 0055 53616265 		.ascii	"Saber\000"
 697      7200
 698 005b 00000000 		.space	4
 699 005f 41       		.byte	65
 700 0060 00       		.byte	0
 701 0061 34       		.byte	52
 702 0062 45       		.byte	69
 703 0063 00       		.byte	0
 704 0064 35       		.byte	53
 705 0065 41       		.byte	65
 706 0066 00       		.byte	0
 707 0067 36       		.byte	54
 708 0068 53657200 		.ascii	"Ser\000"
 709 006c 00000000 		.space	6
 709      0000
 710              		.section	.data.resto,"aw"
 711              		.set	.LANCHOR0,. + 0
 714              	resto:
 715 0000 0C       		.byte	12
 716              		.text
 717              	.Letext0:
 718              		.file 2 "/Users/luissousa/opt/gcc-arm-none-eabi-8-2018-q4-major/arm-none-eabi/include/machine/_def
 719              		.file 3 "/Users/luissousa/opt/gcc-arm-none-eabi-8-2018-q4-major/arm-none-eabi/include/sys/_stdint.
 720              		.file 4 "/Users/luissousa/opt/gcc-arm-none-eabi-8-2018-q4-major/arm-none-eabi/include/sys/lock.h"
 721              		.file 5 "/Users/luissousa/opt/gcc-arm-none-eabi-8-2018-q4-major/arm-none-eabi/include/sys/_types.h
 722              		.file 6 "/Users/luissousa/opt/gcc-arm-none-eabi-8-2018-q4-major/lib/gcc/arm-none-eabi/8.2.1/includ
 723              		.file 7 "/Users/luissousa/opt/gcc-arm-none-eabi-8-2018-q4-major/arm-none-eabi/include/sys/reent.h"
 724              		.file 8 "Src/definitions.h"
 725              		.file 9 "Src/notes.h"
 726              		.file 10 "Src/draw.h"
ARM GAS  /var/folders/hv/f19l0kw128sbpybv1h43gz3c0000gn/T//ccarbZC9.s 			page 18

