ARM GAS  /var/folders/hv/f19l0kw128sbpybv1h43gz3c0000gn/T//ccU2gSVm.s 			page 1


   1              		.cpu cortex-m3
   2              		.eabi_attribute 20, 1
   3              		.eabi_attribute 21, 1
   4              		.eabi_attribute 23, 3
   5              		.eabi_attribute 24, 1
   6              		.eabi_attribute 25, 1
   7              		.eabi_attribute 26, 1
   8              		.eabi_attribute 30, 1
   9              		.eabi_attribute 34, 1
  10              		.eabi_attribute 18, 4
  11              		.file	"ws2812.c"
  12              		.text
  13              	.Ltext0:
  14              		.cfi_sections	.debug_frame
  15              		.section	.text.WS2812_framedata_setPixel,"ax",%progbits
  16              		.align	1
  17              		.global	WS2812_framedata_setPixel
  18              		.arch armv7-m
  19              		.syntax unified
  20              		.thumb
  21              		.thumb_func
  22              		.fpu softvfp
  24              	WS2812_framedata_setPixel:
  25              	.LVL0:
  26              	.LFB0:
  27              		.file 1 "Src/ws2812.c"
   1:Src/ws2812.c  **** #include "stdint.h"
   2:Src/ws2812.c  **** #include "definitions.h"
   3:Src/ws2812.c  **** #include "ws2812.h"
   4:Src/ws2812.c  **** 
   5:Src/ws2812.c  **** volatile uint8_t WS2812_TC = 1;
   6:Src/ws2812.c  **** uint16_t WS2812_IO_High = 0xFFFF;
   7:Src/ws2812.c  **** uint16_t WS2812_IO_Low = 0x0000;
   8:Src/ws2812.c  **** 
   9:Src/ws2812.c  **** void WS2812_framedata_setPixel(uint8_t row, uint16_t column, uint8_t red, uint8_t green, uint8_t bl
  10:Src/ws2812.c  **** {
  28              		.loc 1 10 1 view -0
  29              		.cfi_startproc
  30              		@ args = 4, pretend = 0, frame = 0
  31              		@ frame_needed = 0, uses_anonymous_args = 0
  32              		.loc 1 10 1 is_stmt 0 view .LVU1
  33 0000 2DE9F043 		push	{r4, r5, r6, r7, r8, r9, lr}
  34              	.LCFI0:
  35              		.cfi_def_cfa_offset 28
  36              		.cfi_offset 4, -28
  37              		.cfi_offset 5, -24
  38              		.cfi_offset 6, -20
  39              		.cfi_offset 7, -16
  40              		.cfi_offset 8, -12
  41              		.cfi_offset 9, -8
  42              		.cfi_offset 14, -4
  43 0004 9DF81CC0 		ldrb	ip, [sp, #28]	@ zero_extendqisi2
  11:Src/ws2812.c  ****   uint8_t i;
  44              		.loc 1 11 3 is_stmt 1 view .LVU2
  12:Src/ws2812.c  ****   for (i = 0; i < 8; i++)
  45              		.loc 1 12 3 view .LVU3
  46              	.LVL1:
ARM GAS  /var/folders/hv/f19l0kw128sbpybv1h43gz3c0000gn/T//ccU2gSVm.s 			page 2


  47              		.loc 1 12 10 is_stmt 0 view .LVU4
  48 0008 0027     		movs	r7, #0
  49              		.loc 1 12 3 view .LVU5
  50 000a 43E0     		b	.L2
  51              	.LVL2:
  52              	.L3:
  13:Src/ws2812.c  ****   {
  14:Src/ws2812.c  ****     // clear the data for pixel
  15:Src/ws2812.c  ****     WS2812_IO_framedata[((column * 24) + i)] &= ~(0x01 << row);
  53              		.loc 1 15 5 is_stmt 1 discriminator 3 view .LVU6
  54              		.loc 1 15 46 is_stmt 0 discriminator 3 view .LVU7
  55 000c 01EB4104 		add	r4, r1, r1, lsl #1
  56 0010 E500     		lsls	r5, r4, #3
  57 0012 05EB0708 		add	r8, r5, r7
  58              		.loc 1 15 56 discriminator 3 view .LVU8
  59 0016 0126     		movs	r6, #1
  60 0018 8640     		lsls	r6, r6, r0
  61              		.loc 1 15 46 discriminator 3 view .LVU9
  62 001a F643     		mvns	r6, r6
  63 001c 36B2     		sxth	r6, r6
  64 001e 1F4C     		ldr	r4, .L5
  65 0020 34F818E0 		ldrh	lr, [r4, r8, lsl #1]
  66 0024 06EA0E0E 		and	lr, r6, lr
  67 0028 24F818E0 		strh	lr, [r4, r8, lsl #1]	@ movhi
  16:Src/ws2812.c  ****     WS2812_IO_framedata[((column * 24) + 8 + i)] &= ~(0x01 << row);
  68              		.loc 1 16 5 is_stmt 1 discriminator 3 view .LVU10
  69              		.loc 1 16 50 is_stmt 0 discriminator 3 view .LVU11
  70 002c 05F1080E 		add	lr, r5, #8
  71 0030 BE44     		add	lr, lr, r7
  72 0032 34F81E90 		ldrh	r9, [r4, lr, lsl #1]
  73 0036 06EA0909 		and	r9, r6, r9
  74 003a 24F81E90 		strh	r9, [r4, lr, lsl #1]	@ movhi
  17:Src/ws2812.c  ****     WS2812_IO_framedata[((column * 24) + 16 + i)] &= ~(0x01 << row);
  75              		.loc 1 17 5 is_stmt 1 discriminator 3 view .LVU12
  76              		.loc 1 17 51 is_stmt 0 discriminator 3 view .LVU13
  77 003e 1035     		adds	r5, r5, #16
  78 0040 3D44     		add	r5, r5, r7
  79 0042 34F81590 		ldrh	r9, [r4, r5, lsl #1]
  80 0046 06EA0906 		and	r6, r6, r9
  81 004a 24F81560 		strh	r6, [r4, r5, lsl #1]	@ movhi
  18:Src/ws2812.c  ****     // write new data for pixel
  19:Src/ws2812.c  ****     WS2812_IO_framedata[((column * 24) + i)] |= ((((green << i) & 0x80) >> 7) << row);
  82              		.loc 1 19 5 is_stmt 1 discriminator 3 view .LVU14
  83              		.loc 1 19 59 is_stmt 0 discriminator 3 view .LVU15
  84 004e 03FA07F6 		lsl	r6, r3, r7
  85              		.loc 1 19 73 discriminator 3 view .LVU16
  86 0052 C6F3C016 		ubfx	r6, r6, #7, #1
  87              		.loc 1 19 79 discriminator 3 view .LVU17
  88 0056 8640     		lsls	r6, r6, r0
  89              		.loc 1 19 46 discriminator 3 view .LVU18
  90 0058 34F81890 		ldrh	r9, [r4, r8, lsl #1]
  91 005c 46EA0906 		orr	r6, r6, r9
  92 0060 24F81860 		strh	r6, [r4, r8, lsl #1]	@ movhi
  20:Src/ws2812.c  ****     WS2812_IO_framedata[((column * 24) + 8 + i)] |= ((((red << i) & 0x80) >> 7) << row);
  93              		.loc 1 20 5 is_stmt 1 discriminator 3 view .LVU19
  94              		.loc 1 20 61 is_stmt 0 discriminator 3 view .LVU20
  95 0064 02FA07F6 		lsl	r6, r2, r7
ARM GAS  /var/folders/hv/f19l0kw128sbpybv1h43gz3c0000gn/T//ccU2gSVm.s 			page 3


  96              		.loc 1 20 75 discriminator 3 view .LVU21
  97 0068 C6F3C016 		ubfx	r6, r6, #7, #1
  98              		.loc 1 20 81 discriminator 3 view .LVU22
  99 006c 8640     		lsls	r6, r6, r0
 100              		.loc 1 20 50 discriminator 3 view .LVU23
 101 006e 34F81E80 		ldrh	r8, [r4, lr, lsl #1]
 102 0072 46EA0806 		orr	r6, r6, r8
 103 0076 24F81E60 		strh	r6, [r4, lr, lsl #1]	@ movhi
  21:Src/ws2812.c  ****     WS2812_IO_framedata[((column * 24) + 16 + i)] |= ((((blue << i) & 0x80) >> 7) << row);
 104              		.loc 1 21 5 is_stmt 1 discriminator 3 view .LVU24
 105              		.loc 1 21 63 is_stmt 0 discriminator 3 view .LVU25
 106 007a 0CFA07F6 		lsl	r6, ip, r7
 107              		.loc 1 21 77 discriminator 3 view .LVU26
 108 007e C6F3C016 		ubfx	r6, r6, #7, #1
 109              		.loc 1 21 83 discriminator 3 view .LVU27
 110 0082 8640     		lsls	r6, r6, r0
 111              		.loc 1 21 51 discriminator 3 view .LVU28
 112 0084 34F815E0 		ldrh	lr, [r4, r5, lsl #1]
 113 0088 46EA0E06 		orr	r6, r6, lr
 114 008c 24F81560 		strh	r6, [r4, r5, lsl #1]	@ movhi
  12:Src/ws2812.c  ****   {
 115              		.loc 1 12 23 discriminator 3 view .LVU29
 116 0090 0137     		adds	r7, r7, #1
 117              	.LVL3:
  12:Src/ws2812.c  ****   {
 118              		.loc 1 12 23 discriminator 3 view .LVU30
 119 0092 FFB2     		uxtb	r7, r7
 120              	.LVL4:
 121              	.L2:
  12:Src/ws2812.c  ****   {
 122              		.loc 1 12 3 discriminator 1 view .LVU31
 123 0094 072F     		cmp	r7, #7
 124 0096 B9D9     		bls	.L3
  22:Src/ws2812.c  ****   }
  23:Src/ws2812.c  **** }
 125              		.loc 1 23 1 view .LVU32
 126 0098 BDE8F083 		pop	{r4, r5, r6, r7, r8, r9, pc}
 127              	.LVL5:
 128              	.L6:
 129              		.loc 1 23 1 view .LVU33
 130              		.align	2
 131              	.L5:
 132 009c 00000000 		.word	WS2812_IO_framedata
 133              		.cfi_endproc
 134              	.LFE0:
 136              		.section	.text.WS2812_framedata_setRow,"ax",%progbits
 137              		.align	1
 138              		.global	WS2812_framedata_setRow
 139              		.syntax unified
 140              		.thumb
 141              		.thumb_func
 142              		.fpu softvfp
 144              	WS2812_framedata_setRow:
 145              	.LVL6:
 146              	.LFB1:
  24:Src/ws2812.c  **** 
  25:Src/ws2812.c  **** void WS2812_framedata_setRow(uint8_t row, uint16_t columns, uint8_t red, uint8_t green, uint8_t blu
ARM GAS  /var/folders/hv/f19l0kw128sbpybv1h43gz3c0000gn/T//ccU2gSVm.s 			page 4


  26:Src/ws2812.c  **** {
 147              		.loc 1 26 1 is_stmt 1 view -0
 148              		.cfi_startproc
 149              		@ args = 4, pretend = 0, frame = 0
 150              		@ frame_needed = 0, uses_anonymous_args = 0
 151              		.loc 1 26 1 is_stmt 0 view .LVU35
 152 0000 2DE9F043 		push	{r4, r5, r6, r7, r8, r9, lr}
 153              	.LCFI1:
 154              		.cfi_def_cfa_offset 28
 155              		.cfi_offset 4, -28
 156              		.cfi_offset 5, -24
 157              		.cfi_offset 6, -20
 158              		.cfi_offset 7, -16
 159              		.cfi_offset 8, -12
 160              		.cfi_offset 9, -8
 161              		.cfi_offset 14, -4
 162 0004 83B0     		sub	sp, sp, #12
 163              	.LCFI2:
 164              		.cfi_def_cfa_offset 40
 165 0006 8146     		mov	r9, r0
 166 0008 0D46     		mov	r5, r1
 167 000a 9046     		mov	r8, r2
 168 000c 1F46     		mov	r7, r3
 169 000e 9DF82860 		ldrb	r6, [sp, #40]	@ zero_extendqisi2
  27:Src/ws2812.c  ****   uint8_t i;
 170              		.loc 1 27 3 is_stmt 1 view .LVU36
  28:Src/ws2812.c  ****   for (i = 0; i < columns; i++)
 171              		.loc 1 28 3 view .LVU37
 172              	.LVL7:
 173              		.loc 1 28 10 is_stmt 0 view .LVU38
 174 0012 0024     		movs	r4, #0
 175              	.LVL8:
 176              	.L8:
 177              		.loc 1 28 17 discriminator 1 view .LVU39
 178 0014 A1B2     		uxth	r1, r4
 179              		.loc 1 28 3 discriminator 1 view .LVU40
 180 0016 A942     		cmp	r1, r5
 181 0018 08D2     		bcs	.L11
  29:Src/ws2812.c  ****   {
  30:Src/ws2812.c  ****     WS2812_framedata_setPixel(row, i, red, green, blue);
 182              		.loc 1 30 5 is_stmt 1 discriminator 3 view .LVU41
 183 001a 0096     		str	r6, [sp]
 184 001c 3B46     		mov	r3, r7
 185 001e 4246     		mov	r2, r8
 186 0020 4846     		mov	r0, r9
 187 0022 FFF7FEFF 		bl	WS2812_framedata_setPixel
 188              	.LVL9:
  28:Src/ws2812.c  ****   for (i = 0; i < columns; i++)
 189              		.loc 1 28 29 is_stmt 0 discriminator 3 view .LVU42
 190 0026 0134     		adds	r4, r4, #1
 191              	.LVL10:
  28:Src/ws2812.c  ****   for (i = 0; i < columns; i++)
 192              		.loc 1 28 29 discriminator 3 view .LVU43
 193 0028 E4B2     		uxtb	r4, r4
 194              	.LVL11:
  28:Src/ws2812.c  ****   for (i = 0; i < columns; i++)
 195              		.loc 1 28 29 discriminator 3 view .LVU44
ARM GAS  /var/folders/hv/f19l0kw128sbpybv1h43gz3c0000gn/T//ccU2gSVm.s 			page 5


 196 002a F3E7     		b	.L8
 197              	.L11:
  31:Src/ws2812.c  ****   }
  32:Src/ws2812.c  **** }
 198              		.loc 1 32 1 view .LVU45
 199 002c 03B0     		add	sp, sp, #12
 200              	.LCFI3:
 201              		.cfi_def_cfa_offset 28
 202              		@ sp needed
 203 002e BDE8F083 		pop	{r4, r5, r6, r7, r8, r9, pc}
 204              		.loc 1 32 1 view .LVU46
 205              		.cfi_endproc
 206              	.LFE1:
 208              		.global	WS2812_IO_Low
 209              		.global	WS2812_IO_High
 210              		.global	WS2812_TC
 211              		.comm	WS2812_IO_framedata,8640,4
 212              		.comm	textColor,3,4
 213              		.comm	backColor,3,4
 214              		.comm	textLayer,6075,4
 215              		.comm	backLayer,6075,4
 216              		.section	.bss.WS2812_IO_Low,"aw",%nobits
 217              		.align	1
 220              	WS2812_IO_Low:
 221 0000 0000     		.space	2
 222              		.section	.data.WS2812_IO_High,"aw"
 223              		.align	1
 226              	WS2812_IO_High:
 227 0000 FFFF     		.short	-1
 228              		.section	.data.WS2812_TC,"aw"
 231              	WS2812_TC:
 232 0000 01       		.byte	1
 233              		.text
 234              	.Letext0:
 235              		.file 2 "/Users/luissousa/opt/gcc-arm-none-eabi-8-2018-q4-major/arm-none-eabi/include/machine/_def
 236              		.file 3 "/Users/luissousa/opt/gcc-arm-none-eabi-8-2018-q4-major/arm-none-eabi/include/sys/_stdint.
 237              		.file 4 "Src/definitions.h"
 238              		.file 5 "Src/ws2812.h"
ARM GAS  /var/folders/hv/f19l0kw128sbpybv1h43gz3c0000gn/T//ccU2gSVm.s 			page 6

