ARM GAS  /var/folders/hv/f19l0kw128sbpybv1h43gz3c0000gn/T//ccqqj4tA.s 			page 1


   1              		.cpu cortex-m4
   2              		.eabi_attribute 27, 1
   3              		.eabi_attribute 28, 1
   4              		.eabi_attribute 20, 1
   5              		.eabi_attribute 21, 1
   6              		.eabi_attribute 23, 3
   7              		.eabi_attribute 24, 1
   8              		.eabi_attribute 25, 1
   9              		.eabi_attribute 26, 1
  10              		.eabi_attribute 30, 1
  11              		.eabi_attribute 34, 1
  12              		.eabi_attribute 18, 4
  13              		.file	"main.c"
  14              		.text
  15              	.Ltext0:
  16              		.cfi_sections	.debug_frame
  17              		.section	.text.Error_Handler,"ax",%progbits
  18              		.align	1
  19              		.global	Error_Handler
  20              		.arch armv7e-m
  21              		.syntax unified
  22              		.thumb
  23              		.thumb_func
  24              		.fpu fpv4-sp-d16
  26              	Error_Handler:
  27              	.LFB132:
  28              		.file 1 "Src/main.c"
   1:Src/main.c    **** /**
   2:Src/main.c    ****   ******************************************************************************
   3:Src/main.c    ****   * File Name          : main.c
   4:Src/main.c    ****   * Description        : Main program body
   5:Src/main.c    ****   ******************************************************************************
   6:Src/main.c    ****   *
   7:Src/main.c    ****   * COPYRIGHT(c) 2016 STMicroelectronics
   8:Src/main.c    ****   *
   9:Src/main.c    ****   * Redistribution and use in source and binary forms, with or without modification,
  10:Src/main.c    ****   * are permitted provided that the following conditions are met:
  11:Src/main.c    ****   *   1. Redistributions of source code must retain the above copyright notice,
  12:Src/main.c    ****   *      this list of conditions and the following disclaimer.
  13:Src/main.c    ****   *   2. Redistributions in binary form must reproduce the above copyright notice,
  14:Src/main.c    ****   *      this list of conditions and the following disclaimer in the documentation
  15:Src/main.c    ****   *      and/or other materials provided with the distribution.
  16:Src/main.c    ****   *   3. Neither the name of STMicroelectronics nor the names of its contributors
  17:Src/main.c    ****   *      may be used to endorse or promote products derived from this software
  18:Src/main.c    ****   *      without specific prior written permission.
  19:Src/main.c    ****   *
  20:Src/main.c    ****   * THIS SOFTWARE IS PROVIDED BY THE COPYRIGHT HOLDERS AND CONTRIBUTORS "AS IS"
  21:Src/main.c    ****   * AND ANY EXPRESS OR IMPLIED WARRANTIES, INCLUDING, BUT NOT LIMITED TO, THE
  22:Src/main.c    ****   * IMPLIED WARRANTIES OF MERCHANTABILITY AND FITNESS FOR A PARTICULAR PURPOSE ARE
  23:Src/main.c    ****   * DISCLAIMED. IN NO EVENT SHALL THE COPYRIGHT HOLDER OR CONTRIBUTORS BE LIABLE
  24:Src/main.c    ****   * FOR ANY DIRECT, INDIRECT, INCIDENTAL, SPECIAL, EXEMPLARY, OR CONSEQUENTIAL
  25:Src/main.c    ****   * DAMAGES (INCLUDING, BUT NOT LIMITED TO, PROCUREMENT OF SUBSTITUTE GOODS OR
  26:Src/main.c    ****   * SERVICES; LOSS OF USE, DATA, OR PROFITS; OR BUSINESS INTERRUPTION) HOWEVER
  27:Src/main.c    ****   * CAUSED AND ON ANY THEORY OF LIABILITY, WHETHER IN CONTRACT, STRICT LIABILITY,
  28:Src/main.c    ****   * OR TORT (INCLUDING NEGLIGENCE OR OTHERWISE) ARISING IN ANY WAY OUT OF THE USE
  29:Src/main.c    ****   * OF THIS SOFTWARE, EVEN IF ADVISED OF THE POSSIBILITY OF SUCH DAMAGE.
  30:Src/main.c    ****   *
ARM GAS  /var/folders/hv/f19l0kw128sbpybv1h43gz3c0000gn/T//ccqqj4tA.s 			page 2


  31:Src/main.c    ****   ******************************************************************************
  32:Src/main.c    ****   */
  33:Src/main.c    **** /* Includes ------------------------------------------------------------------*/
  34:Src/main.c    **** #include "main.h"
  35:Src/main.c    **** #include "stm32f4xx_hal.h"
  36:Src/main.c    **** 
  37:Src/main.c    **** /* USER CODE BEGIN Includes */
  38:Src/main.c    **** #include "visEffect.h"
  39:Src/main.c    **** /* USER CODE END Includes */
  40:Src/main.c    **** 
  41:Src/main.c    **** /* Private variables ---------------------------------------------------------*/
  42:Src/main.c    **** 
  43:Src/main.c    **** /* USER CODE BEGIN PV */
  44:Src/main.c    **** /* Private variables ---------------------------------------------------------*/
  45:Src/main.c    **** 
  46:Src/main.c    **** /* USER CODE END PV */
  47:Src/main.c    **** 
  48:Src/main.c    **** /* Private function prototypes -----------------------------------------------*/
  49:Src/main.c    **** void SystemClock_Config(void);
  50:Src/main.c    **** void Error_Handler(void);
  51:Src/main.c    **** 
  52:Src/main.c    **** /* USER CODE BEGIN PFP */
  53:Src/main.c    **** /* Private function prototypes -----------------------------------------------*/
  54:Src/main.c    **** 
  55:Src/main.c    **** /* USER CODE END PFP */
  56:Src/main.c    **** 
  57:Src/main.c    **** /* USER CODE BEGIN 0 */
  58:Src/main.c    **** 
  59:Src/main.c    **** /* USER CODE END 0 */
  60:Src/main.c    **** 
  61:Src/main.c    **** int main(void)
  62:Src/main.c    **** {
  63:Src/main.c    **** 
  64:Src/main.c    ****   /* USER CODE BEGIN 1 */
  65:Src/main.c    **** 
  66:Src/main.c    ****   /* USER CODE END 1 */
  67:Src/main.c    **** 
  68:Src/main.c    ****   /* MCU Configuration----------------------------------------------------------*/
  69:Src/main.c    **** 
  70:Src/main.c    ****   /* Reset of all peripherals, Initializes the Flash interface and the Systick. */
  71:Src/main.c    ****   HAL_Init();
  72:Src/main.c    **** 
  73:Src/main.c    ****   /* Configure the system clock */
  74:Src/main.c    ****   SystemClock_Config();
  75:Src/main.c    **** 
  76:Src/main.c    ****   /* Initialize all configured peripherals */
  77:Src/main.c    **** 
  78:Src/main.c    ****   /* USER CODE BEGIN 2 */
  79:Src/main.c    **** 
  80:Src/main.c    ****   visInit();
  81:Src/main.c    ****   /* USER CODE END 2 */
  82:Src/main.c    **** 
  83:Src/main.c    ****   /* Infinite loop */
  84:Src/main.c    ****   /* USER CODE BEGIN WHILE */
  85:Src/main.c    ****   while (1)
  86:Src/main.c    ****   {
  87:Src/main.c    ****     /* USER CODE END WHILE */
ARM GAS  /var/folders/hv/f19l0kw128sbpybv1h43gz3c0000gn/T//ccqqj4tA.s 			page 3


  88:Src/main.c    **** 
  89:Src/main.c    ****     visHandle();
  90:Src/main.c    **** 
  91:Src/main.c    ****     /* USER CODE BEGIN 3 */
  92:Src/main.c    ****   }
  93:Src/main.c    ****   /* USER CODE END 3 */
  94:Src/main.c    **** }
  95:Src/main.c    **** 
  96:Src/main.c    **** /** System Clock Configuration
  97:Src/main.c    **** */
  98:Src/main.c    **** void SystemClock_Config(void)
  99:Src/main.c    **** {
 100:Src/main.c    **** 
 101:Src/main.c    ****   RCC_OscInitTypeDef RCC_OscInitStruct;
 102:Src/main.c    ****   RCC_ClkInitTypeDef RCC_ClkInitStruct;
 103:Src/main.c    **** 
 104:Src/main.c    ****   /**Configure the main internal regulator output voltage 
 105:Src/main.c    ****     */
 106:Src/main.c    ****   __HAL_RCC_PWR_CLK_ENABLE();
 107:Src/main.c    **** 
 108:Src/main.c    ****   __HAL_PWR_VOLTAGESCALING_CONFIG(PWR_REGULATOR_VOLTAGE_SCALE1);
 109:Src/main.c    **** 
 110:Src/main.c    ****   /**Initializes the CPU, AHB and APB busses clocks 
 111:Src/main.c    ****     */
 112:Src/main.c    ****   RCC_OscInitStruct.OscillatorType = RCC_OSCILLATORTYPE_HSI;
 113:Src/main.c    ****   RCC_OscInitStruct.HSIState = RCC_HSI_ON;
 114:Src/main.c    ****   RCC_OscInitStruct.HSICalibrationValue = 16;
 115:Src/main.c    ****   RCC_OscInitStruct.PLL.PLLState = RCC_PLL_ON;
 116:Src/main.c    ****   RCC_OscInitStruct.PLL.PLLSource = RCC_PLLSOURCE_HSI;
 117:Src/main.c    ****   RCC_OscInitStruct.PLL.PLLM = 8;
 118:Src/main.c    ****   RCC_OscInitStruct.PLL.PLLN = 168;
 119:Src/main.c    ****   RCC_OscInitStruct.PLL.PLLP = RCC_PLLP_DIV2;
 120:Src/main.c    ****   RCC_OscInitStruct.PLL.PLLQ = 4;
 121:Src/main.c    ****   if (HAL_RCC_OscConfig(&RCC_OscInitStruct) != HAL_OK)
 122:Src/main.c    ****   {
 123:Src/main.c    ****     Error_Handler();
 124:Src/main.c    ****   }
 125:Src/main.c    **** 
 126:Src/main.c    ****   /**Initializes the CPU, AHB and APB busses clocks 
 127:Src/main.c    ****     */
 128:Src/main.c    ****   RCC_ClkInitStruct.ClockType = RCC_CLOCKTYPE_HCLK | RCC_CLOCKTYPE_SYSCLK | RCC_CLOCKTYPE_PCLK1 | R
 129:Src/main.c    ****   RCC_ClkInitStruct.SYSCLKSource = RCC_SYSCLKSOURCE_PLLCLK;
 130:Src/main.c    ****   RCC_ClkInitStruct.AHBCLKDivider = RCC_SYSCLK_DIV1;
 131:Src/main.c    ****   RCC_ClkInitStruct.APB1CLKDivider = RCC_HCLK_DIV4;
 132:Src/main.c    ****   RCC_ClkInitStruct.APB2CLKDivider = RCC_HCLK_DIV2;
 133:Src/main.c    **** 
 134:Src/main.c    ****   if (HAL_RCC_ClockConfig(&RCC_ClkInitStruct, FLASH_LATENCY_5) != HAL_OK)
 135:Src/main.c    ****   {
 136:Src/main.c    ****     Error_Handler();
 137:Src/main.c    ****   }
 138:Src/main.c    **** 
 139:Src/main.c    ****   /**Configure the Systick interrupt time 
 140:Src/main.c    ****     */
 141:Src/main.c    ****   HAL_SYSTICK_Config(HAL_RCC_GetHCLKFreq() / 1000);
 142:Src/main.c    **** 
 143:Src/main.c    ****   /**Configure the Systick 
 144:Src/main.c    ****     */
ARM GAS  /var/folders/hv/f19l0kw128sbpybv1h43gz3c0000gn/T//ccqqj4tA.s 			page 4


 145:Src/main.c    ****   HAL_SYSTICK_CLKSourceConfig(SYSTICK_CLKSOURCE_HCLK);
 146:Src/main.c    **** 
 147:Src/main.c    ****   /* SysTick_IRQn interrupt configuration */
 148:Src/main.c    ****   HAL_NVIC_SetPriority(SysTick_IRQn, 0, 0);
 149:Src/main.c    **** }
 150:Src/main.c    **** 
 151:Src/main.c    **** /* USER CODE BEGIN 4 */
 152:Src/main.c    **** 
 153:Src/main.c    **** /* USER CODE END 4 */
 154:Src/main.c    **** 
 155:Src/main.c    **** /**
 156:Src/main.c    ****   * @brief  This function is executed in case of error occurrence.
 157:Src/main.c    ****   * @param  None
 158:Src/main.c    ****   * @retval None
 159:Src/main.c    ****   */
 160:Src/main.c    **** void Error_Handler(void)
 161:Src/main.c    **** {
  29              		.loc 1 161 1 view -0
  30              		.cfi_startproc
  31              		@ Volatile: function does not return.
  32              		@ args = 0, pretend = 0, frame = 0
  33              		@ frame_needed = 0, uses_anonymous_args = 0
  34              		@ link register save eliminated.
  35              	.L2:
 162:Src/main.c    ****   /* USER CODE BEGIN Error_Handler */
 163:Src/main.c    ****   /* User can add his own implementation to report the HAL error return state */
 164:Src/main.c    ****   while (1)
  36              		.loc 1 164 3 discriminator 1 view .LVU1
 165:Src/main.c    ****   {
 166:Src/main.c    ****   }
  37              		.loc 1 166 3 discriminator 1 view .LVU2
  38 0000 FEE7     		b	.L2
  39              		.cfi_endproc
  40              	.LFE132:
  42              		.section	.text.SystemClock_Config,"ax",%progbits
  43              		.align	1
  44              		.global	SystemClock_Config
  45              		.syntax unified
  46              		.thumb
  47              		.thumb_func
  48              		.fpu fpv4-sp-d16
  50              	SystemClock_Config:
  51              	.LFB131:
  99:Src/main.c    **** 
  52              		.loc 1 99 1 view -0
  53              		.cfi_startproc
  54              		@ args = 0, pretend = 0, frame = 80
  55              		@ frame_needed = 0, uses_anonymous_args = 0
  56 0000 00B5     		push	{lr}
  57              	.LCFI0:
  58              		.cfi_def_cfa_offset 4
  59              		.cfi_offset 14, -4
  60 0002 95B0     		sub	sp, sp, #84
  61              	.LCFI1:
  62              		.cfi_def_cfa_offset 88
 101:Src/main.c    ****   RCC_ClkInitTypeDef RCC_ClkInitStruct;
  63              		.loc 1 101 3 view .LVU4
ARM GAS  /var/folders/hv/f19l0kw128sbpybv1h43gz3c0000gn/T//ccqqj4tA.s 			page 5


 102:Src/main.c    **** 
  64              		.loc 1 102 3 view .LVU5
 106:Src/main.c    **** 
  65              		.loc 1 106 3 view .LVU6
  66              	.LBB2:
 106:Src/main.c    **** 
  67              		.loc 1 106 3 view .LVU7
  68 0004 0022     		movs	r2, #0
  69 0006 0192     		str	r2, [sp, #4]
 106:Src/main.c    **** 
  70              		.loc 1 106 3 view .LVU8
  71 0008 284B     		ldr	r3, .L9
  72 000a 196C     		ldr	r1, [r3, #64]
  73 000c 41F08051 		orr	r1, r1, #268435456
  74 0010 1964     		str	r1, [r3, #64]
 106:Src/main.c    **** 
  75              		.loc 1 106 3 view .LVU9
  76 0012 1B6C     		ldr	r3, [r3, #64]
  77 0014 03F08053 		and	r3, r3, #268435456
  78 0018 0193     		str	r3, [sp, #4]
 106:Src/main.c    **** 
  79              		.loc 1 106 3 view .LVU10
  80 001a 019B     		ldr	r3, [sp, #4]
  81              	.LBE2:
 108:Src/main.c    **** 
  82              		.loc 1 108 3 view .LVU11
  83              	.LBB3:
 108:Src/main.c    **** 
  84              		.loc 1 108 3 view .LVU12
  85 001c 0292     		str	r2, [sp, #8]
 108:Src/main.c    **** 
  86              		.loc 1 108 3 view .LVU13
  87 001e 244B     		ldr	r3, .L9+4
  88 0020 1968     		ldr	r1, [r3]
  89 0022 41F44041 		orr	r1, r1, #49152
  90 0026 1960     		str	r1, [r3]
 108:Src/main.c    **** 
  91              		.loc 1 108 3 view .LVU14
  92 0028 1B68     		ldr	r3, [r3]
  93 002a 03F44043 		and	r3, r3, #49152
  94 002e 0293     		str	r3, [sp, #8]
 108:Src/main.c    **** 
  95              		.loc 1 108 3 view .LVU15
  96 0030 029B     		ldr	r3, [sp, #8]
  97              	.LBE3:
 112:Src/main.c    ****   RCC_OscInitStruct.HSIState = RCC_HSI_ON;
  98              		.loc 1 112 3 view .LVU16
 112:Src/main.c    ****   RCC_OscInitStruct.HSIState = RCC_HSI_ON;
  99              		.loc 1 112 36 is_stmt 0 view .LVU17
 100 0032 0223     		movs	r3, #2
 101 0034 0893     		str	r3, [sp, #32]
 113:Src/main.c    ****   RCC_OscInitStruct.HSICalibrationValue = 16;
 102              		.loc 1 113 3 is_stmt 1 view .LVU18
 113:Src/main.c    ****   RCC_OscInitStruct.HSICalibrationValue = 16;
 103              		.loc 1 113 30 is_stmt 0 view .LVU19
 104 0036 0121     		movs	r1, #1
 105 0038 0B91     		str	r1, [sp, #44]
ARM GAS  /var/folders/hv/f19l0kw128sbpybv1h43gz3c0000gn/T//ccqqj4tA.s 			page 6


 114:Src/main.c    ****   RCC_OscInitStruct.PLL.PLLState = RCC_PLL_ON;
 106              		.loc 1 114 3 is_stmt 1 view .LVU20
 114:Src/main.c    ****   RCC_OscInitStruct.PLL.PLLState = RCC_PLL_ON;
 107              		.loc 1 114 41 is_stmt 0 view .LVU21
 108 003a 1021     		movs	r1, #16
 109 003c 0C91     		str	r1, [sp, #48]
 115:Src/main.c    ****   RCC_OscInitStruct.PLL.PLLSource = RCC_PLLSOURCE_HSI;
 110              		.loc 1 115 3 is_stmt 1 view .LVU22
 115:Src/main.c    ****   RCC_OscInitStruct.PLL.PLLSource = RCC_PLLSOURCE_HSI;
 111              		.loc 1 115 34 is_stmt 0 view .LVU23
 112 003e 0E93     		str	r3, [sp, #56]
 116:Src/main.c    ****   RCC_OscInitStruct.PLL.PLLM = 8;
 113              		.loc 1 116 3 is_stmt 1 view .LVU24
 116:Src/main.c    ****   RCC_OscInitStruct.PLL.PLLM = 8;
 114              		.loc 1 116 35 is_stmt 0 view .LVU25
 115 0040 0F92     		str	r2, [sp, #60]
 117:Src/main.c    ****   RCC_OscInitStruct.PLL.PLLN = 168;
 116              		.loc 1 117 3 is_stmt 1 view .LVU26
 117:Src/main.c    ****   RCC_OscInitStruct.PLL.PLLN = 168;
 117              		.loc 1 117 30 is_stmt 0 view .LVU27
 118 0042 0822     		movs	r2, #8
 119 0044 1092     		str	r2, [sp, #64]
 118:Src/main.c    ****   RCC_OscInitStruct.PLL.PLLP = RCC_PLLP_DIV2;
 120              		.loc 1 118 3 is_stmt 1 view .LVU28
 118:Src/main.c    ****   RCC_OscInitStruct.PLL.PLLP = RCC_PLLP_DIV2;
 121              		.loc 1 118 30 is_stmt 0 view .LVU29
 122 0046 A822     		movs	r2, #168
 123 0048 1192     		str	r2, [sp, #68]
 119:Src/main.c    ****   RCC_OscInitStruct.PLL.PLLQ = 4;
 124              		.loc 1 119 3 is_stmt 1 view .LVU30
 119:Src/main.c    ****   RCC_OscInitStruct.PLL.PLLQ = 4;
 125              		.loc 1 119 30 is_stmt 0 view .LVU31
 126 004a 1293     		str	r3, [sp, #72]
 120:Src/main.c    ****   if (HAL_RCC_OscConfig(&RCC_OscInitStruct) != HAL_OK)
 127              		.loc 1 120 3 is_stmt 1 view .LVU32
 120:Src/main.c    ****   if (HAL_RCC_OscConfig(&RCC_OscInitStruct) != HAL_OK)
 128              		.loc 1 120 30 is_stmt 0 view .LVU33
 129 004c 0423     		movs	r3, #4
 130 004e 1393     		str	r3, [sp, #76]
 121:Src/main.c    ****   {
 131              		.loc 1 121 3 is_stmt 1 view .LVU34
 121:Src/main.c    ****   {
 132              		.loc 1 121 7 is_stmt 0 view .LVU35
 133 0050 08A8     		add	r0, sp, #32
 134 0052 FFF7FEFF 		bl	HAL_RCC_OscConfig
 135              	.LVL0:
 121:Src/main.c    ****   {
 136              		.loc 1 121 6 view .LVU36
 137 0056 20BB     		cbnz	r0, .L7
 128:Src/main.c    ****   RCC_ClkInitStruct.SYSCLKSource = RCC_SYSCLKSOURCE_PLLCLK;
 138              		.loc 1 128 3 is_stmt 1 view .LVU37
 128:Src/main.c    ****   RCC_ClkInitStruct.SYSCLKSource = RCC_SYSCLKSOURCE_PLLCLK;
 139              		.loc 1 128 31 is_stmt 0 view .LVU38
 140 0058 0F23     		movs	r3, #15
 141 005a 0393     		str	r3, [sp, #12]
 129:Src/main.c    ****   RCC_ClkInitStruct.AHBCLKDivider = RCC_SYSCLK_DIV1;
 142              		.loc 1 129 3 is_stmt 1 view .LVU39
ARM GAS  /var/folders/hv/f19l0kw128sbpybv1h43gz3c0000gn/T//ccqqj4tA.s 			page 7


 129:Src/main.c    ****   RCC_ClkInitStruct.AHBCLKDivider = RCC_SYSCLK_DIV1;
 143              		.loc 1 129 34 is_stmt 0 view .LVU40
 144 005c 0223     		movs	r3, #2
 145 005e 0493     		str	r3, [sp, #16]
 130:Src/main.c    ****   RCC_ClkInitStruct.APB1CLKDivider = RCC_HCLK_DIV4;
 146              		.loc 1 130 3 is_stmt 1 view .LVU41
 130:Src/main.c    ****   RCC_ClkInitStruct.APB1CLKDivider = RCC_HCLK_DIV4;
 147              		.loc 1 130 35 is_stmt 0 view .LVU42
 148 0060 0023     		movs	r3, #0
 149 0062 0593     		str	r3, [sp, #20]
 131:Src/main.c    ****   RCC_ClkInitStruct.APB2CLKDivider = RCC_HCLK_DIV2;
 150              		.loc 1 131 3 is_stmt 1 view .LVU43
 131:Src/main.c    ****   RCC_ClkInitStruct.APB2CLKDivider = RCC_HCLK_DIV2;
 151              		.loc 1 131 36 is_stmt 0 view .LVU44
 152 0064 4FF4A053 		mov	r3, #5120
 153 0068 0693     		str	r3, [sp, #24]
 132:Src/main.c    **** 
 154              		.loc 1 132 3 is_stmt 1 view .LVU45
 132:Src/main.c    **** 
 155              		.loc 1 132 36 is_stmt 0 view .LVU46
 156 006a 4FF48053 		mov	r3, #4096
 157 006e 0793     		str	r3, [sp, #28]
 134:Src/main.c    ****   {
 158              		.loc 1 134 3 is_stmt 1 view .LVU47
 134:Src/main.c    ****   {
 159              		.loc 1 134 7 is_stmt 0 view .LVU48
 160 0070 0521     		movs	r1, #5
 161 0072 03A8     		add	r0, sp, #12
 162 0074 FFF7FEFF 		bl	HAL_RCC_ClockConfig
 163              	.LVL1:
 134:Src/main.c    ****   {
 164              		.loc 1 134 6 view .LVU49
 165 0078 A8B9     		cbnz	r0, .L8
 141:Src/main.c    **** 
 166              		.loc 1 141 3 is_stmt 1 view .LVU50
 141:Src/main.c    **** 
 167              		.loc 1 141 22 is_stmt 0 view .LVU51
 168 007a FFF7FEFF 		bl	HAL_RCC_GetHCLKFreq
 169              	.LVL2:
 141:Src/main.c    **** 
 170              		.loc 1 141 3 view .LVU52
 171 007e 0D4B     		ldr	r3, .L9+8
 172 0080 A3FB0030 		umull	r3, r0, r3, r0
 173 0084 8009     		lsrs	r0, r0, #6
 174 0086 FFF7FEFF 		bl	HAL_SYSTICK_Config
 175              	.LVL3:
 145:Src/main.c    **** 
 176              		.loc 1 145 3 is_stmt 1 view .LVU53
 177 008a 0420     		movs	r0, #4
 178 008c FFF7FEFF 		bl	HAL_SYSTICK_CLKSourceConfig
 179              	.LVL4:
 148:Src/main.c    **** }
 180              		.loc 1 148 3 view .LVU54
 181 0090 0022     		movs	r2, #0
 182 0092 1146     		mov	r1, r2
 183 0094 4FF0FF30 		mov	r0, #-1
 184 0098 FFF7FEFF 		bl	HAL_NVIC_SetPriority
ARM GAS  /var/folders/hv/f19l0kw128sbpybv1h43gz3c0000gn/T//ccqqj4tA.s 			page 8


 185              	.LVL5:
 149:Src/main.c    **** 
 186              		.loc 1 149 1 is_stmt 0 view .LVU55
 187 009c 15B0     		add	sp, sp, #84
 188              	.LCFI2:
 189              		.cfi_remember_state
 190              		.cfi_def_cfa_offset 4
 191              		@ sp needed
 192 009e 5DF804FB 		ldr	pc, [sp], #4
 193              	.L7:
 194              	.LCFI3:
 195              		.cfi_restore_state
 123:Src/main.c    ****   }
 196              		.loc 1 123 5 is_stmt 1 view .LVU56
 197 00a2 FFF7FEFF 		bl	Error_Handler
 198              	.LVL6:
 199              	.L8:
 136:Src/main.c    ****   }
 200              		.loc 1 136 5 view .LVU57
 201 00a6 FFF7FEFF 		bl	Error_Handler
 202              	.LVL7:
 203              	.L10:
 204 00aa 00BF     		.align	2
 205              	.L9:
 206 00ac 00380240 		.word	1073887232
 207 00b0 00700040 		.word	1073770496
 208 00b4 D34D6210 		.word	274877907
 209              		.cfi_endproc
 210              	.LFE131:
 212              		.section	.text.main,"ax",%progbits
 213              		.align	1
 214              		.global	main
 215              		.syntax unified
 216              		.thumb
 217              		.thumb_func
 218              		.fpu fpv4-sp-d16
 220              	main:
 221              	.LFB130:
  62:Src/main.c    **** 
 222              		.loc 1 62 1 view -0
 223              		.cfi_startproc
 224              		@ Volatile: function does not return.
 225              		@ args = 0, pretend = 0, frame = 0
 226              		@ frame_needed = 0, uses_anonymous_args = 0
 227 0000 08B5     		push	{r3, lr}
 228              	.LCFI4:
 229              		.cfi_def_cfa_offset 8
 230              		.cfi_offset 3, -8
 231              		.cfi_offset 14, -4
  71:Src/main.c    **** 
 232              		.loc 1 71 3 view .LVU59
 233 0002 FFF7FEFF 		bl	HAL_Init
 234              	.LVL8:
  74:Src/main.c    **** 
 235              		.loc 1 74 3 view .LVU60
 236 0006 FFF7FEFF 		bl	SystemClock_Config
 237              	.LVL9:
ARM GAS  /var/folders/hv/f19l0kw128sbpybv1h43gz3c0000gn/T//ccqqj4tA.s 			page 9


  80:Src/main.c    ****   /* USER CODE END 2 */
 238              		.loc 1 80 3 view .LVU61
 239 000a FFF7FEFF 		bl	visInit
 240              	.LVL10:
 241              	.L12:
  85:Src/main.c    ****   {
 242              		.loc 1 85 3 discriminator 1 view .LVU62
  89:Src/main.c    **** 
 243              		.loc 1 89 5 discriminator 1 view .LVU63
 244 000e FFF7FEFF 		bl	visHandle
 245              	.LVL11:
 246 0012 FCE7     		b	.L12
 247              		.cfi_endproc
 248              	.LFE130:
 250              		.text
 251              	.Letext0:
 252              		.file 2 "/Users/luissousa/opt/gcc-arm-none-eabi-8-2018-q4-major/arm-none-eabi/include/machine/_def
 253              		.file 3 "/Users/luissousa/opt/gcc-arm-none-eabi-8-2018-q4-major/arm-none-eabi/include/sys/_stdint.
 254              		.file 4 "Drivers/CMSIS/Include/core_cm4.h"
 255              		.file 5 "Drivers/CMSIS/Device/ST/STM32F4xx/Include/system_stm32f4xx.h"
 256              		.file 6 "Drivers/CMSIS/Device/ST/STM32F4xx/Include/stm32f401xc.h"
 257              		.file 7 "Drivers/STM32F4xx_HAL_Driver/Inc/stm32f4xx_hal_def.h"
 258              		.file 8 "Drivers/STM32F4xx_HAL_Driver/Inc/stm32f4xx_hal_rcc_ex.h"
 259              		.file 9 "Drivers/STM32F4xx_HAL_Driver/Inc/stm32f4xx_hal_rcc.h"
 260              		.file 10 "Drivers/STM32F4xx_HAL_Driver/Inc/stm32f4xx_hal_cortex.h"
 261              		.file 11 "Drivers/STM32F4xx_HAL_Driver/Inc/stm32f4xx_hal.h"
 262              		.file 12 "Src/visEffect.h"
ARM GAS  /var/folders/hv/f19l0kw128sbpybv1h43gz3c0000gn/T//ccqqj4tA.s 			page 10

